ARM GAS  /tmp/cctkIrJw.s 			page 1


   1              		.syntax unified
   2              		.cpu cortex-m3
   3              		.fpu softvfp
   4              		.eabi_attribute 20, 1
   5              		.eabi_attribute 21, 1
   6              		.eabi_attribute 23, 3
   7              		.eabi_attribute 24, 1
   8              		.eabi_attribute 25, 1
   9              		.eabi_attribute 26, 1
  10              		.eabi_attribute 30, 2
  11              		.eabi_attribute 34, 1
  12              		.eabi_attribute 18, 4
  13              		.thumb
  14              		.file	"chcore_v7m.c"
  15              		.text
  16              	.Ltext0:
  17              		.cfi_sections	.debug_frame
  18              		.section	.text._port_switch_from_isr,"ax",%progbits
  19              		.align	2
  20              		.global	_port_switch_from_isr
  21              		.thumb
  22              		.thumb_func
  23              		.type	_port_switch_from_isr, %function
  24              	_port_switch_from_isr:
  25              	.LFB11:
  26              		.file 1 "../../os/ports/GCC/ARMCMx/chcore_v7m.c"
  27              		.loc 1 207 0
  28              		.cfi_startproc
  29              		@ Naked Function: prologue and epilogue provided by programmer.
  30              		@ args = 0, pretend = 0, frame = 0
  31              		@ frame_needed = 0, uses_anonymous_args = 0
  32              		.loc 1 210 0
  33 0000 FFF7FEFF 		bl	chSchDoReschedule
  34              	.LVL0:
  35              		.loc 1 212 0
  36              	@ 212 "../../os/ports/GCC/ARMCMx/chcore_v7m.c" 1
  37              		_port_exit_from_isr:
  38              	@ 0 "" 2
  39              		.loc 1 214 0
  40              	@ 214 "../../os/ports/GCC/ARMCMx/chcore_v7m.c" 1
  41 0004 00DF     		svc     #0
  42              	@ 0 "" 2
  43              		.loc 1 221 0
  44              		.thumb
  45              		.cfi_endproc
  46              	.LFE11:
  47              		.size	_port_switch_from_isr, .-_port_switch_from_isr
  48 0006 00BF     		.section	.text.SVCallVector,"ax",%progbits
  49              		.align	2
  50              		.global	SVCallVector
  51              		.thumb
  52              		.thumb_func
  53              		.type	SVCallVector, %function
  54              	SVCallVector:
  55              	.LFB8:
  56              		.loc 1 65 0
  57              		.cfi_startproc
ARM GAS  /tmp/cctkIrJw.s 			page 2


  58              		@ args = 0, pretend = 0, frame = 0
  59              		@ frame_needed = 0, uses_anonymous_args = 0
  60              		@ link register save eliminated.
  61              		.loc 1 69 0
  62              	@ 69 "../../os/ports/GCC/ARMCMx/chcore_v7m.c" 1
  63 0000 EFF30983 		mrs     r3, PSP
  64              	@ 0 "" 2
  65              	.LVL1:
  66              		.loc 1 73 0
  67              		.thumb
  68 0004 2033     		adds	r3, r3, #32
  69              	.LVL2:
  70              		.loc 1 80 0
  71              	@ 80 "../../os/ports/GCC/ARMCMx/chcore_v7m.c" 1
  72 0006 83F30988 		msr     PSP, r3
  73              	@ 0 "" 2
  74              		.thumb
  75              	.LBB2:
  76              		.loc 1 81 0
  77 000a 0023     		movs	r3, #0
  78              	.LVL3:
  79              	@ 81 "../../os/ports/GCC/ARMCMx/chcore_v7m.c" 1
  80 000c 83F31188 		msr     BASEPRI, r3
  81              	@ 0 "" 2
  82              		.thumb
  83 0010 7047     		bx	lr
  84              	.LBE2:
  85              		.cfi_endproc
  86              	.LFE8:
  87              		.size	SVCallVector, .-SVCallVector
  88 0012 00BF     		.section	.text._port_init,"ax",%progbits
  89              		.align	2
  90              		.global	_port_init
  91              		.thumb
  92              		.thumb_func
  93              		.type	_port_init, %function
  94              	_port_init:
  95              	.LFB9:
  96              		.loc 1 118 0
  97              		.cfi_startproc
  98              		@ args = 0, pretend = 0, frame = 0
  99              		@ frame_needed = 0, uses_anonymous_args = 0
 100 0000 08B5     		push	{r3, lr}
 101              		.cfi_def_cfa_offset 8
 102              		.cfi_offset 3, -8
 103              		.cfi_offset 14, -4
 104              		.loc 1 122 0
 105 0002 094A     		ldr	r2, .L4
 106              		.loc 1 121 0
 107 0004 094B     		ldr	r3, .L4+4
 108 0006 0021     		movs	r1, #0
 109 0008 9960     		str	r1, [r3, #8]
 110              		.loc 1 125 0
 111 000a 0720     		movs	r0, #7
 112              		.loc 1 122 0
 113 000c DA60     		str	r2, [r3, #12]
 114              		.loc 1 125 0
ARM GAS  /tmp/cctkIrJw.s 			page 3


 115 000e 1021     		movs	r1, #16
 116 0010 FFF7FEFF 		bl	nvicSetSystemHandlerPriority
 117              	.LVL4:
 118              		.loc 1 127 0
 119 0014 0A20     		movs	r0, #10
 120 0016 2021     		movs	r1, #32
 121 0018 FFF7FEFF 		bl	nvicSetSystemHandlerPriority
 122              	.LVL5:
 123              		.loc 1 131 0
 124 001c BDE80840 		pop	{r3, lr}
 125              		.loc 1 129 0
 126 0020 0B20     		movs	r0, #11
 127 0022 8021     		movs	r1, #128
 128 0024 FFF7FEBF 		b	nvicSetSystemHandlerPriority
 129              	.LVL6:
 130              	.L5:
 131              		.align	2
 132              	.L4:
 133 0028 0003FA05 		.word	100270848
 134 002c 00ED00E0 		.word	-536810240
 135              		.cfi_endproc
 136              	.LFE9:
 137              		.size	_port_init, .-_port_init
 138              		.section	.text._port_irq_epilogue,"ax",%progbits
 139              		.align	2
 140              		.global	_port_irq_epilogue
 141              		.thumb
 142              		.thumb_func
 143              		.type	_port_irq_epilogue, %function
 144              	_port_irq_epilogue:
 145              	.LFB10:
 146              		.loc 1 148 0
 147              		.cfi_startproc
 148              		@ args = 0, pretend = 0, frame = 0
 149              		@ frame_needed = 0, uses_anonymous_args = 0
 150              		@ link register save eliminated.
 151              	.LBB3:
 152              		.loc 1 150 0
 153 0000 2023     		movs	r3, #32
 154              	@ 150 "../../os/ports/GCC/ARMCMx/chcore_v7m.c" 1
 155 0002 83F31188 		msr     BASEPRI, r3
 156              	@ 0 "" 2
 157              		.thumb
 158              	.LBE3:
 159              		.loc 1 151 0
 160 0006 164B     		ldr	r3, .L14
 161 0008 5B68     		ldr	r3, [r3, #4]
 162 000a 13F40063 		ands	r3, r3, #2048
 163 000e 19D0     		beq	.L7
 164              	.LBB4:
 165              		.loc 1 155 0
 166              	@ 155 "../../os/ports/GCC/ARMCMx/chcore_v7m.c" 1
 167 0010 EFF30983 		mrs     r3, PSP
 168              	@ 0 "" 2
 169              	.LVL7:
 170              		.loc 1 159 0
 171              		.thumb
ARM GAS  /tmp/cctkIrJw.s 			page 4


 172 0014 A3F12002 		sub	r2, r3, #32
 173              	.LVL8:
 174              		.loc 1 160 0
 175              	@ 160 "../../os/ports/GCC/ARMCMx/chcore_v7m.c" 1
 176 0018 82F30988 		msr     PSP, r2
 177              	@ 0 "" 2
 178              		.loc 1 165 0
 179              		.thumb
 180 001c 1149     		ldr	r1, .L14+4
 181              		.loc 1 161 0
 182 001e 4FF08070 		mov	r0, #16777216
 183              		.loc 1 165 0
 184 0022 8A69     		ldr	r2, [r1, #24]
 185              	.LVL9:
 186              		.loc 1 161 0
 187 0024 43F8040C 		str	r0, [r3, #-4]
 188              		.loc 1 165 0
 189 0028 D07F     		ldrb	r0, [r2, #31]	@ zero_extendqisi2
 190 002a 0968     		ldr	r1, [r1]
 191 002c 9268     		ldr	r2, [r2, #8]
 192 002e 8968     		ldr	r1, [r1, #8]
 193 0030 58B1     		cbz	r0, .L8
 194              		.loc 1 165 0 is_stmt 0 discriminator 1
 195 0032 9142     		cmp	r1, r2
 196 0034 94BF     		ite	ls
 197 0036 0022     		movls	r2, #0
 198 0038 0122     		movhi	r2, #1
 199 003a 62B1     		cbz	r2, .L10
 200              	.L13:
 201              		.loc 1 167 0 is_stmt 1
 202 003c 0A4A     		ldr	r2, .L14+8
 203 003e 43F8082C 		str	r2, [r3, #-8]
 204 0042 7047     		bx	lr
 205              	.LVL10:
 206              	.L7:
 207              	.LBE4:
 208              	.LBB5:
 209              		.loc 1 197 0
 210              	@ 197 "../../os/ports/GCC/ARMCMx/chcore_v7m.c" 1
 211 0044 83F31188 		msr     BASEPRI, r3
 212              	@ 0 "" 2
 213              		.thumb
 214 0048 7047     		bx	lr
 215              	.LVL11:
 216              	.L8:
 217              	.LBE5:
 218              	.LBB6:
 219              		.loc 1 165 0 discriminator 2
 220 004a 9142     		cmp	r1, r2
 221 004c 34BF     		ite	cc
 222 004e 0022     		movcc	r2, #0
 223 0050 0122     		movcs	r2, #1
 224 0052 002A     		cmp	r2, #0
 225 0054 F2D1     		bne	.L13
 226              	.L10:
 227              		.loc 1 176 0
 228 0056 054A     		ldr	r2, .L14+12
ARM GAS  /tmp/cctkIrJw.s 			page 5


 229 0058 43F8082C 		str	r2, [r3, #-8]
 230 005c 7047     		bx	lr
 231              	.L15:
 232 005e 00BF     		.align	2
 233              	.L14:
 234 0060 00ED00E0 		.word	-536810240
 235 0064 00000000 		.word	rlist
 236 0068 00000000 		.word	_port_switch_from_isr
 237 006c 04000000 		.word	_port_exit_from_isr
 238              	.LBE6:
 239              		.cfi_endproc
 240              	.LFE10:
 241              		.size	_port_irq_epilogue, .-_port_irq_epilogue
 242              		.section	.text.SysTickVector,"ax",%progbits
 243              		.align	2
 244              		.global	SysTickVector
 245              		.thumb
 246              		.thumb_func
 247              		.type	SysTickVector, %function
 248              	SysTickVector:
 249              	.LFB7:
 250              		.loc 1 47 0
 251              		.cfi_startproc
 252              		@ args = 0, pretend = 0, frame = 0
 253              		@ frame_needed = 0, uses_anonymous_args = 0
 254 0000 08B5     		push	{r3, lr}
 255              		.cfi_def_cfa_offset 8
 256              		.cfi_offset 3, -8
 257              		.cfi_offset 14, -4
 258              	.LBB7:
 259              		.loc 1 51 0
 260 0002 2023     		movs	r3, #32
 261              	@ 51 "../../os/ports/GCC/ARMCMx/chcore_v7m.c" 1
 262 0004 83F31188 		msr     BASEPRI, r3
 263              	@ 0 "" 2
 264              		.thumb
 265              	.LBE7:
 266              		.loc 1 52 0
 267 0008 FFF7FEFF 		bl	chSysTimerHandlerI
 268              	.LVL12:
 269              	.LBB8:
 270              		.loc 1 53 0
 271 000c 0023     		movs	r3, #0
 272              	@ 53 "../../os/ports/GCC/ARMCMx/chcore_v7m.c" 1
 273 000e 83F31188 		msr     BASEPRI, r3
 274              	@ 0 "" 2
 275              		.thumb
 276              	.LBE8:
 277              		.loc 1 56 0
 278 0012 BDE80840 		pop	{r3, lr}
 279              		.loc 1 55 0
 280 0016 FFF7FEBF 		b	_port_irq_epilogue
 281              	.LVL13:
 282              		.cfi_endproc
 283              	.LFE7:
 284              		.size	SysTickVector, .-SysTickVector
 285 001a 00BF     		.section	.text._port_switch,"ax",%progbits
ARM GAS  /tmp/cctkIrJw.s 			page 6


 286              		.align	2
 287              		.global	_port_switch
 288              		.thumb
 289              		.thumb_func
 290              		.type	_port_switch, %function
 291              	_port_switch:
 292              	.LFB12:
 293              		.loc 1 236 0
 294              		.cfi_startproc
 295              		@ Naked Function: prologue and epilogue provided by programmer.
 296              		@ args = 0, pretend = 0, frame = 0
 297              		@ frame_needed = 0, uses_anonymous_args = 0
 298              	.LVL14:
 299              		.loc 1 238 0
 300              	@ 238 "../../os/ports/GCC/ARMCMx/chcore_v7m.c" 1
 301 0000 2DE9F04F 		push    {r4, r5, r6, r7, r8, r9, r10, r11, lr}
 302              	@ 0 "" 2
 303              		.loc 1 244 0
 304              	@ 244 "../../os/ports/GCC/ARMCMx/chcore_v7m.c" 1
 305 0004 C1F80CD0 		str     sp, [r1, #12]                          
 306 0008 D0F80CD0 		ldr     sp, [r0, #12]
 307              	@ 0 "" 2
 308              		.loc 1 250 0
 309              	@ 250 "../../os/ports/GCC/ARMCMx/chcore_v7m.c" 1
 310 000c BDE8F08F 		pop     {r4, r5, r6, r7, r8, r9, r10, r11, pc}
 311              	@ 0 "" 2
 312              		.loc 1 252 0
 313              		.thumb
 314              		.cfi_endproc
 315              	.LFE12:
 316              		.size	_port_switch, .-_port_switch
 317              		.section	.text._port_thread_start,"ax",%progbits
 318              		.align	2
 319              		.global	_port_thread_start
 320              		.thumb
 321              		.thumb_func
 322              		.type	_port_thread_start, %function
 323              	_port_thread_start:
 324              	.LFB13:
 325              		.loc 1 259 0
 326              		.cfi_startproc
 327              		@ args = 0, pretend = 0, frame = 0
 328              		@ frame_needed = 0, uses_anonymous_args = 0
 329              		@ link register save eliminated.
 330              	.LBB9:
 331              		.loc 1 261 0
 332 0000 0023     		movs	r3, #0
 333              	@ 261 "../../os/ports/GCC/ARMCMx/chcore_v7m.c" 1
 334 0002 83F31188 		msr     BASEPRI, r3
 335              	@ 0 "" 2
 336              		.thumb
 337              	.LBE9:
 338              		.loc 1 262 0
 339              	@ 262 "../../os/ports/GCC/ARMCMx/chcore_v7m.c" 1
 340 0006 2846     		mov     r0, r5                                 
 341 0008 A047     		blx     r4                                     
 342 000a FFF7FEFF 		bl      chThdExit
ARM GAS  /tmp/cctkIrJw.s 			page 7


 343              	@ 0 "" 2
 344              		.thumb
 345 000e 7047     		bx	lr
 346              		.cfi_endproc
 347              	.LFE13:
 348              		.size	_port_thread_start, .-_port_thread_start
 349              		.text
 350              	.Letext0:
 351              		.file 2 "/usr/include/newlib/machine/_default_types.h"
 352              		.file 3 "/usr/include/newlib/stdint.h"
 353              		.file 4 "../../os/ports/GCC/ARMCMx/chtypes.h"
 354              		.file 5 "../../os/kernel/include/chlists.h"
 355              		.file 6 "../../os/kernel/include/chthreads.h"
 356              		.file 7 "../../os/ports/GCC/ARMCMx/chcore_v7m.h"
 357              		.file 8 "../../os/ports/common/ARMCMx/nvic.h"
 358              		.file 9 "../../os/kernel/include/chschd.h"
 359              		.file 10 "../../os/kernel/include/chmtx.h"
 360              		.file 11 "../../os/kernel/include/chsys.h"