ARM GAS  /tmp/ccZ5CNaR.s 			page 1


   1              		.syntax unified
   2              		.cpu cortex-m3
   3              		.fpu softvfp
   4              		.eabi_attribute 20, 1
   5              		.eabi_attribute 21, 1
   6              		.eabi_attribute 23, 3
   7              		.eabi_attribute 24, 1
   8              		.eabi_attribute 25, 1
   9              		.eabi_attribute 26, 1
  10              		.eabi_attribute 30, 2
  11              		.eabi_attribute 34, 1
  12              		.eabi_attribute 18, 4
  13              		.thumb
  14              		.file	"chmboxes.c"
  15              		.text
  16              	.Ltext0:
  17              		.cfi_sections	.debug_frame
  18              		.section	.text.chMBInit,"ax",%progbits
  19              		.align	2
  20              		.global	chMBInit
  21              		.thumb
  22              		.thumb_func
  23              		.type	chMBInit, %function
  24              	chMBInit:
  25              	.LFB7:
  26              		.file 1 "../../os/kernel/src/chmboxes.c"
  27              		.loc 1 72 0
  28              		.cfi_startproc
  29              		@ args = 0, pretend = 0, frame = 0
  30              		@ frame_needed = 0, uses_anonymous_args = 0
  31              	.LVL0:
  32 0000 10B5     		push	{r4, lr}
  33              		.cfi_def_cfa_offset 8
  34              		.cfi_offset 4, -8
  35              		.cfi_offset 14, -4
  36              		.loc 1 72 0
  37 0002 0B46     		mov	r3, r1
  38              		.loc 1 77 0
  39 0004 01EB8201 		add	r1, r1, r2, lsl #2
  40              	.LVL1:
  41 0008 4160     		str	r1, [r0, #4]
  42              		.loc 1 72 0
  43 000a 0446     		mov	r4, r0
  44              		.loc 1 76 0
  45 000c C360     		str	r3, [r0, #12]
  46 000e 8360     		str	r3, [r0, #8]
  47 0010 0360     		str	r3, [r0]
  48              		.loc 1 78 0
  49 0012 1146     		mov	r1, r2
  50 0014 1C30     		adds	r0, r0, #28
  51              	.LVL2:
  52 0016 FFF7FEFF 		bl	chSemInit
  53              	.LVL3:
  54              		.loc 1 79 0
  55 001a 04F11000 		add	r0, r4, #16
  56 001e 0021     		movs	r1, #0
  57              		.loc 1 80 0
ARM GAS  /tmp/ccZ5CNaR.s 			page 2


  58 0020 BDE81040 		pop	{r4, lr}
  59              	.LVL4:
  60              		.loc 1 79 0
  61 0024 FFF7FEBF 		b	chSemInit
  62              	.LVL5:
  63              		.cfi_endproc
  64              	.LFE7:
  65              		.size	chMBInit, .-chMBInit
  66              		.section	.text.chMBReset,"ax",%progbits
  67              		.align	2
  68              		.global	chMBReset
  69              		.thumb
  70              		.thumb_func
  71              		.type	chMBReset, %function
  72              	chMBReset:
  73              	.LFB8:
  74              		.loc 1 91 0
  75              		.cfi_startproc
  76              		@ args = 0, pretend = 0, frame = 0
  77              		@ frame_needed = 0, uses_anonymous_args = 0
  78              	.LVL6:
  79 0000 10B5     		push	{r4, lr}
  80              		.cfi_def_cfa_offset 8
  81              		.cfi_offset 4, -8
  82              		.cfi_offset 14, -4
  83              	.LBB2:
  84              		.loc 1 95 0
  85 0002 2023     		movs	r3, #32
  86              	.LBE2:
  87              		.loc 1 91 0
  88 0004 0446     		mov	r4, r0
  89              	.LBB3:
  90              		.loc 1 95 0
  91              	@ 95 "../../os/kernel/src/chmboxes.c" 1
  92 0006 83F31188 		msr     BASEPRI, r3
  93              	@ 0 "" 2
  94              		.thumb
  95              	.LBE3:
  96              		.loc 1 96 0
  97 000a 0368     		ldr	r3, [r0]
  98              		.loc 1 97 0
  99 000c 4168     		ldr	r1, [r0, #4]
 100              		.loc 1 96 0
 101 000e C360     		str	r3, [r0, #12]
 102              		.loc 1 97 0
 103 0010 C91A     		subs	r1, r1, r3
 104              		.loc 1 96 0
 105 0012 8360     		str	r3, [r0, #8]
 106              		.loc 1 97 0
 107 0014 8910     		asrs	r1, r1, #2
 108 0016 1C30     		adds	r0, r0, #28
 109              	.LVL7:
 110 0018 FFF7FEFF 		bl	chSemResetI
 111              	.LVL8:
 112              		.loc 1 98 0
 113 001c 04F11000 		add	r0, r4, #16
 114 0020 0021     		movs	r1, #0
ARM GAS  /tmp/ccZ5CNaR.s 			page 3


 115 0022 FFF7FEFF 		bl	chSemResetI
 116              	.LVL9:
 117              		.loc 1 99 0
 118 0026 FFF7FEFF 		bl	chSchRescheduleS
 119              	.LVL10:
 120              	.LBB4:
 121              		.loc 1 100 0
 122 002a 0023     		movs	r3, #0
 123              	@ 100 "../../os/kernel/src/chmboxes.c" 1
 124 002c 83F31188 		msr     BASEPRI, r3
 125              	@ 0 "" 2
 126              		.thumb
 127 0030 10BD     		pop	{r4, pc}
 128              	.LBE4:
 129              		.cfi_endproc
 130              	.LFE8:
 131              		.size	chMBReset, .-chMBReset
 132 0032 00BF     		.section	.text.chMBPostS,"ax",%progbits
 133              		.align	2
 134              		.global	chMBPostS
 135              		.thumb
 136              		.thumb_func
 137              		.type	chMBPostS, %function
 138              	chMBPostS:
 139              	.LFB10:
 140              		.loc 1 150 0
 141              		.cfi_startproc
 142              		@ args = 0, pretend = 0, frame = 0
 143              		@ frame_needed = 0, uses_anonymous_args = 0
 144              	.LVL11:
 145 0000 70B5     		push	{r4, r5, r6, lr}
 146              		.cfi_def_cfa_offset 16
 147              		.cfi_offset 4, -16
 148              		.cfi_offset 5, -12
 149              		.cfi_offset 6, -8
 150              		.cfi_offset 14, -4
 151              		.loc 1 150 0
 152 0002 0446     		mov	r4, r0
 153 0004 0E46     		mov	r6, r1
 154              		.loc 1 156 0
 155 0006 1C30     		adds	r0, r0, #28
 156              	.LVL12:
 157 0008 1146     		mov	r1, r2
 158              	.LVL13:
 159 000a FFF7FEFF 		bl	chSemWaitTimeoutS
 160              	.LVL14:
 161              		.loc 1 157 0
 162 000e 0546     		mov	r5, r0
 163 0010 78B9     		cbnz	r0, .L4
 164              		.loc 1 158 0
 165 0012 A268     		ldr	r2, [r4, #8]
 166              		.loc 1 159 0
 167 0014 6168     		ldr	r1, [r4, #4]
 168              		.loc 1 158 0
 169 0016 131D     		adds	r3, r2, #4
 170              		.loc 1 159 0
 171 0018 8B42     		cmp	r3, r1
ARM GAS  /tmp/ccZ5CNaR.s 			page 4


 172              		.loc 1 158 0
 173 001a A360     		str	r3, [r4, #8]
 174              		.loc 1 160 0
 175 001c 28BF     		it	cs
 176 001e 2368     		ldrcs	r3, [r4]
 177              		.loc 1 158 0
 178 0020 1660     		str	r6, [r2]
 179              		.loc 1 161 0
 180 0022 04F11000 		add	r0, r4, #16
 181              	.LVL15:
 182              		.loc 1 160 0
 183 0026 28BF     		it	cs
 184 0028 A360     		strcs	r3, [r4, #8]
 185              		.loc 1 161 0
 186 002a FFF7FEFF 		bl	chSemSignalI
 187              	.LVL16:
 188              		.loc 1 162 0
 189 002e FFF7FEFF 		bl	chSchRescheduleS
 190              	.LVL17:
 191              	.L4:
 192              		.loc 1 165 0
 193 0032 2846     		mov	r0, r5
 194 0034 70BD     		pop	{r4, r5, r6, pc}
 195              		.cfi_endproc
 196              	.LFE10:
 197              		.size	chMBPostS, .-chMBPostS
 198 0036 00BF     		.section	.text.chMBPost,"ax",%progbits
 199              		.align	2
 200              		.global	chMBPost
 201              		.thumb
 202              		.thumb_func
 203              		.type	chMBPost, %function
 204              	chMBPost:
 205              	.LFB9:
 206              		.loc 1 122 0
 207              		.cfi_startproc
 208              		@ args = 0, pretend = 0, frame = 0
 209              		@ frame_needed = 0, uses_anonymous_args = 0
 210              	.LVL18:
 211 0000 08B5     		push	{r3, lr}
 212              		.cfi_def_cfa_offset 8
 213              		.cfi_offset 3, -8
 214              		.cfi_offset 14, -4
 215              	.LBB5:
 216              		.loc 1 125 0
 217 0002 2023     		movs	r3, #32
 218              	@ 125 "../../os/kernel/src/chmboxes.c" 1
 219 0004 83F31188 		msr     BASEPRI, r3
 220              	@ 0 "" 2
 221              		.thumb
 222              	.LBE5:
 223              		.loc 1 126 0
 224 0008 FFF7FEFF 		bl	chMBPostS
 225              	.LVL19:
 226              	.LBB6:
 227              		.loc 1 127 0
 228 000c 0023     		movs	r3, #0
ARM GAS  /tmp/ccZ5CNaR.s 			page 5


 229              	@ 127 "../../os/kernel/src/chmboxes.c" 1
 230 000e 83F31188 		msr     BASEPRI, r3
 231              	@ 0 "" 2
 232              		.thumb
 233              	.LBE6:
 234              		.loc 1 129 0
 235 0012 08BD     		pop	{r3, pc}
 236              		.cfi_endproc
 237              	.LFE9:
 238              		.size	chMBPost, .-chMBPost
 239              		.section	.text.chMBPostI,"ax",%progbits
 240              		.align	2
 241              		.global	chMBPostI
 242              		.thumb
 243              		.thumb_func
 244              		.type	chMBPostI, %function
 245              	chMBPostI:
 246              	.LFB11:
 247              		.loc 1 181 0
 248              		.cfi_startproc
 249              		@ args = 0, pretend = 0, frame = 0
 250              		@ frame_needed = 0, uses_anonymous_args = 0
 251              	.LVL20:
 252 0000 38B5     		push	{r3, r4, r5, lr}
 253              		.cfi_def_cfa_offset 16
 254              		.cfi_offset 3, -16
 255              		.cfi_offset 4, -12
 256              		.cfi_offset 5, -8
 257              		.cfi_offset 14, -4
 258              		.loc 1 186 0
 259 0002 436A     		ldr	r3, [r0, #36]
 260 0004 002B     		cmp	r3, #0
 261 0006 12DD     		ble	.L11
 262              		.loc 1 189 0
 263 0008 8468     		ldr	r4, [r0, #8]
 264              		.loc 1 190 0
 265 000a 4568     		ldr	r5, [r0, #4]
 266              		.loc 1 189 0
 267 000c 221D     		adds	r2, r4, #4
 268              		.loc 1 188 0
 269 000e 013B     		subs	r3, r3, #1
 270              		.loc 1 190 0
 271 0010 AA42     		cmp	r2, r5
 272              		.loc 1 188 0
 273 0012 4362     		str	r3, [r0, #36]
 274              		.loc 1 191 0
 275 0014 28BF     		it	cs
 276 0016 0368     		ldrcs	r3, [r0]
 277              		.loc 1 189 0
 278 0018 8260     		str	r2, [r0, #8]
 279 001a 2160     		str	r1, [r4]
 280              		.loc 1 192 0
 281 001c 00F11000 		add	r0, r0, #16
 282              	.LVL21:
 283              		.loc 1 191 0
 284 0020 28BF     		it	cs
 285 0022 40F8083C 		strcs	r3, [r0, #-8]
ARM GAS  /tmp/ccZ5CNaR.s 			page 6


 286              		.loc 1 192 0
 287 0026 FFF7FEFF 		bl	chSemSignalI
 288              	.LVL22:
 289              		.loc 1 193 0
 290 002a 0020     		movs	r0, #0
 291 002c 38BD     		pop	{r3, r4, r5, pc}
 292              	.LVL23:
 293              	.L11:
 294              		.loc 1 187 0
 295 002e 4FF0FF30 		mov	r0, #-1
 296              	.LVL24:
 297              		.loc 1 194 0
 298 0032 38BD     		pop	{r3, r4, r5, pc}
 299              		.cfi_endproc
 300              	.LFE11:
 301              		.size	chMBPostI, .-chMBPostI
 302              		.section	.text.chMBPostAheadS,"ax",%progbits
 303              		.align	2
 304              		.global	chMBPostAheadS
 305              		.thumb
 306              		.thumb_func
 307              		.type	chMBPostAheadS, %function
 308              	chMBPostAheadS:
 309              	.LFB13:
 310              		.loc 1 243 0
 311              		.cfi_startproc
 312              		@ args = 0, pretend = 0, frame = 0
 313              		@ frame_needed = 0, uses_anonymous_args = 0
 314              	.LVL25:
 315 0000 70B5     		push	{r4, r5, r6, lr}
 316              		.cfi_def_cfa_offset 16
 317              		.cfi_offset 4, -16
 318              		.cfi_offset 5, -12
 319              		.cfi_offset 6, -8
 320              		.cfi_offset 14, -4
 321              		.loc 1 243 0
 322 0002 0446     		mov	r4, r0
 323 0004 0E46     		mov	r6, r1
 324              		.loc 1 249 0
 325 0006 1C30     		adds	r0, r0, #28
 326              	.LVL26:
 327 0008 1146     		mov	r1, r2
 328              	.LVL27:
 329 000a FFF7FEFF 		bl	chSemWaitTimeoutS
 330              	.LVL28:
 331              		.loc 1 250 0
 332 000e 0546     		mov	r5, r0
 333 0010 60B9     		cbnz	r0, .L13
 334              		.loc 1 251 0
 335 0012 E368     		ldr	r3, [r4, #12]
 336 0014 2268     		ldr	r2, [r4]
 337 0016 043B     		subs	r3, r3, #4
 338 0018 9342     		cmp	r3, r2
 339 001a E360     		str	r3, [r4, #12]
 340 001c 08D3     		bcc	.L15
 341              	.L14:
 342              		.loc 1 253 0
ARM GAS  /tmp/ccZ5CNaR.s 			page 7


 343 001e 1E60     		str	r6, [r3]
 344              		.loc 1 254 0
 345 0020 04F11000 		add	r0, r4, #16
 346              	.LVL29:
 347 0024 FFF7FEFF 		bl	chSemSignalI
 348              	.LVL30:
 349              		.loc 1 255 0
 350 0028 FFF7FEFF 		bl	chSchRescheduleS
 351              	.LVL31:
 352              	.L13:
 353              		.loc 1 258 0
 354 002c 2846     		mov	r0, r5
 355 002e 70BD     		pop	{r4, r5, r6, pc}
 356              	.LVL32:
 357              	.L15:
 358              		.loc 1 252 0
 359 0030 6368     		ldr	r3, [r4, #4]
 360 0032 043B     		subs	r3, r3, #4
 361 0034 E360     		str	r3, [r4, #12]
 362 0036 F2E7     		b	.L14
 363              		.cfi_endproc
 364              	.LFE13:
 365              		.size	chMBPostAheadS, .-chMBPostAheadS
 366              		.section	.text.chMBPostAhead,"ax",%progbits
 367              		.align	2
 368              		.global	chMBPostAhead
 369              		.thumb
 370              		.thumb_func
 371              		.type	chMBPostAhead, %function
 372              	chMBPostAhead:
 373              	.LFB12:
 374              		.loc 1 215 0
 375              		.cfi_startproc
 376              		@ args = 0, pretend = 0, frame = 0
 377              		@ frame_needed = 0, uses_anonymous_args = 0
 378              	.LVL33:
 379 0000 08B5     		push	{r3, lr}
 380              		.cfi_def_cfa_offset 8
 381              		.cfi_offset 3, -8
 382              		.cfi_offset 14, -4
 383              	.LBB7:
 384              		.loc 1 218 0
 385 0002 2023     		movs	r3, #32
 386              	@ 218 "../../os/kernel/src/chmboxes.c" 1
 387 0004 83F31188 		msr     BASEPRI, r3
 388              	@ 0 "" 2
 389              		.thumb
 390              	.LBE7:
 391              		.loc 1 219 0
 392 0008 FFF7FEFF 		bl	chMBPostAheadS
 393              	.LVL34:
 394              	.LBB8:
 395              		.loc 1 220 0
 396 000c 0023     		movs	r3, #0
 397              	@ 220 "../../os/kernel/src/chmboxes.c" 1
 398 000e 83F31188 		msr     BASEPRI, r3
 399              	@ 0 "" 2
ARM GAS  /tmp/ccZ5CNaR.s 			page 8


 400              		.thumb
 401              	.LBE8:
 402              		.loc 1 222 0
 403 0012 08BD     		pop	{r3, pc}
 404              		.cfi_endproc
 405              	.LFE12:
 406              		.size	chMBPostAhead, .-chMBPostAhead
 407              		.section	.text.chMBPostAheadI,"ax",%progbits
 408              		.align	2
 409              		.global	chMBPostAheadI
 410              		.thumb
 411              		.thumb_func
 412              		.type	chMBPostAheadI, %function
 413              	chMBPostAheadI:
 414              	.LFB14:
 415              		.loc 1 274 0
 416              		.cfi_startproc
 417              		@ args = 0, pretend = 0, frame = 0
 418              		@ frame_needed = 0, uses_anonymous_args = 0
 419              	.LVL35:
 420              		.loc 1 279 0
 421 0000 426A     		ldr	r2, [r0, #36]
 422              		.loc 1 274 0
 423 0002 10B5     		push	{r4, lr}
 424              		.cfi_def_cfa_offset 8
 425              		.cfi_offset 4, -8
 426              		.cfi_offset 14, -4
 427              		.loc 1 279 0
 428 0004 002A     		cmp	r2, #0
 429 0006 10DD     		ble	.L20
 430              		.loc 1 282 0
 431 0008 C368     		ldr	r3, [r0, #12]
 432 000a 0468     		ldr	r4, [r0]
 433 000c 043B     		subs	r3, r3, #4
 434              		.loc 1 281 0
 435 000e 013A     		subs	r2, r2, #1
 436              		.loc 1 282 0
 437 0010 A342     		cmp	r3, r4
 438              		.loc 1 281 0
 439 0012 4262     		str	r2, [r0, #36]
 440              		.loc 1 282 0
 441 0014 C360     		str	r3, [r0, #12]
 442 0016 02D2     		bcs	.L19
 443              		.loc 1 283 0
 444 0018 4368     		ldr	r3, [r0, #4]
 445 001a 043B     		subs	r3, r3, #4
 446 001c C360     		str	r3, [r0, #12]
 447              	.L19:
 448              		.loc 1 284 0
 449 001e 1960     		str	r1, [r3]
 450              		.loc 1 285 0
 451 0020 1030     		adds	r0, r0, #16
 452              	.LVL36:
 453 0022 FFF7FEFF 		bl	chSemSignalI
 454              	.LVL37:
 455              		.loc 1 286 0
 456 0026 0020     		movs	r0, #0
ARM GAS  /tmp/ccZ5CNaR.s 			page 9


 457 0028 10BD     		pop	{r4, pc}
 458              	.LVL38:
 459              	.L20:
 460              		.loc 1 280 0
 461 002a 4FF0FF30 		mov	r0, #-1
 462              	.LVL39:
 463              		.loc 1 287 0
 464 002e 10BD     		pop	{r4, pc}
 465              		.cfi_endproc
 466              	.LFE14:
 467              		.size	chMBPostAheadI, .-chMBPostAheadI
 468              		.section	.text.chMBFetchS,"ax",%progbits
 469              		.align	2
 470              		.global	chMBFetchS
 471              		.thumb
 472              		.thumb_func
 473              		.type	chMBFetchS, %function
 474              	chMBFetchS:
 475              	.LFB16:
 476              		.loc 1 336 0
 477              		.cfi_startproc
 478              		@ args = 0, pretend = 0, frame = 0
 479              		@ frame_needed = 0, uses_anonymous_args = 0
 480              	.LVL40:
 481 0000 70B5     		push	{r4, r5, r6, lr}
 482              		.cfi_def_cfa_offset 16
 483              		.cfi_offset 4, -16
 484              		.cfi_offset 5, -12
 485              		.cfi_offset 6, -8
 486              		.cfi_offset 14, -4
 487              		.loc 1 336 0
 488 0002 0446     		mov	r4, r0
 489 0004 0E46     		mov	r6, r1
 490              		.loc 1 342 0
 491 0006 1030     		adds	r0, r0, #16
 492              	.LVL41:
 493 0008 1146     		mov	r1, r2
 494              	.LVL42:
 495 000a FFF7FEFF 		bl	chSemWaitTimeoutS
 496              	.LVL43:
 497              		.loc 1 343 0
 498 000e 0546     		mov	r5, r0
 499 0010 80B9     		cbnz	r0, .L22
 500              		.loc 1 344 0
 501 0012 E368     		ldr	r3, [r4, #12]
 502              		.loc 1 345 0
 503 0014 6268     		ldr	r2, [r4, #4]
 504              		.loc 1 344 0
 505 0016 1968     		ldr	r1, [r3]
 506 0018 0433     		adds	r3, r3, #4
 507              		.loc 1 345 0
 508 001a 9342     		cmp	r3, r2
 509              		.loc 1 344 0
 510 001c E360     		str	r3, [r4, #12]
 511              		.loc 1 346 0
 512 001e 28BF     		it	cs
 513 0020 2368     		ldrcs	r3, [r4]
ARM GAS  /tmp/ccZ5CNaR.s 			page 10


 514              		.loc 1 344 0
 515 0022 3160     		str	r1, [r6]
 516              		.loc 1 347 0
 517 0024 04F11C00 		add	r0, r4, #28
 518              	.LVL44:
 519              		.loc 1 346 0
 520 0028 28BF     		it	cs
 521 002a E360     		strcs	r3, [r4, #12]
 522              		.loc 1 347 0
 523 002c FFF7FEFF 		bl	chSemSignalI
 524              	.LVL45:
 525              		.loc 1 348 0
 526 0030 FFF7FEFF 		bl	chSchRescheduleS
 527              	.LVL46:
 528              	.L22:
 529              		.loc 1 351 0
 530 0034 2846     		mov	r0, r5
 531 0036 70BD     		pop	{r4, r5, r6, pc}
 532              		.cfi_endproc
 533              	.LFE16:
 534              		.size	chMBFetchS, .-chMBFetchS
 535              		.section	.text.chMBFetch,"ax",%progbits
 536              		.align	2
 537              		.global	chMBFetch
 538              		.thumb
 539              		.thumb_func
 540              		.type	chMBFetch, %function
 541              	chMBFetch:
 542              	.LFB15:
 543              		.loc 1 308 0
 544              		.cfi_startproc
 545              		@ args = 0, pretend = 0, frame = 0
 546              		@ frame_needed = 0, uses_anonymous_args = 0
 547              	.LVL47:
 548 0000 08B5     		push	{r3, lr}
 549              		.cfi_def_cfa_offset 8
 550              		.cfi_offset 3, -8
 551              		.cfi_offset 14, -4
 552              	.LBB9:
 553              		.loc 1 311 0
 554 0002 2023     		movs	r3, #32
 555              	@ 311 "../../os/kernel/src/chmboxes.c" 1
 556 0004 83F31188 		msr     BASEPRI, r3
 557              	@ 0 "" 2
 558              		.thumb
 559              	.LBE9:
 560              		.loc 1 312 0
 561 0008 FFF7FEFF 		bl	chMBFetchS
 562              	.LVL48:
 563              	.LBB10:
 564              		.loc 1 313 0
 565 000c 0023     		movs	r3, #0
 566              	@ 313 "../../os/kernel/src/chmboxes.c" 1
 567 000e 83F31188 		msr     BASEPRI, r3
 568              	@ 0 "" 2
 569              		.thumb
 570              	.LBE10:
ARM GAS  /tmp/ccZ5CNaR.s 			page 11


 571              		.loc 1 315 0
 572 0012 08BD     		pop	{r3, pc}
 573              		.cfi_endproc
 574              	.LFE15:
 575              		.size	chMBFetch, .-chMBFetch
 576              		.section	.text.chMBFetchI,"ax",%progbits
 577              		.align	2
 578              		.global	chMBFetchI
 579              		.thumb
 580              		.thumb_func
 581              		.type	chMBFetchI, %function
 582              	chMBFetchI:
 583              	.LFB17:
 584              		.loc 1 367 0
 585              		.cfi_startproc
 586              		@ args = 0, pretend = 0, frame = 0
 587              		@ frame_needed = 0, uses_anonymous_args = 0
 588              	.LVL49:
 589              		.loc 1 372 0
 590 0000 8369     		ldr	r3, [r0, #24]
 591              		.loc 1 367 0
 592 0002 10B5     		push	{r4, lr}
 593              		.cfi_def_cfa_offset 8
 594              		.cfi_offset 4, -8
 595              		.cfi_offset 14, -4
 596              		.loc 1 372 0
 597 0004 002B     		cmp	r3, #0
 598 0006 13DD     		ble	.L28
 599              		.loc 1 374 0
 600 0008 5A1E     		subs	r2, r3, #1
 601              		.loc 1 375 0
 602 000a C368     		ldr	r3, [r0, #12]
 603              		.loc 1 374 0
 604 000c 8261     		str	r2, [r0, #24]
 605              		.loc 1 376 0
 606 000e 4268     		ldr	r2, [r0, #4]
 607              		.loc 1 375 0
 608 0010 1C68     		ldr	r4, [r3]
 609 0012 0433     		adds	r3, r3, #4
 610              		.loc 1 376 0
 611 0014 9342     		cmp	r3, r2
 612              		.loc 1 375 0
 613 0016 C360     		str	r3, [r0, #12]
 614              		.loc 1 377 0
 615 0018 28BF     		it	cs
 616 001a 0368     		ldrcs	r3, [r0]
 617              		.loc 1 375 0
 618 001c 0C60     		str	r4, [r1]
 619              		.loc 1 378 0
 620 001e 00F11C00 		add	r0, r0, #28
 621              	.LVL50:
 622              		.loc 1 377 0
 623 0022 28BF     		it	cs
 624 0024 40F8103C 		strcs	r3, [r0, #-16]
 625              		.loc 1 378 0
 626 0028 FFF7FEFF 		bl	chSemSignalI
 627              	.LVL51:
ARM GAS  /tmp/ccZ5CNaR.s 			page 12


 628              		.loc 1 379 0
 629 002c 0020     		movs	r0, #0
 630 002e 10BD     		pop	{r4, pc}
 631              	.LVL52:
 632              	.L28:
 633              		.loc 1 373 0
 634 0030 4FF0FF30 		mov	r0, #-1
 635              	.LVL53:
 636              		.loc 1 380 0
 637 0034 10BD     		pop	{r4, pc}
 638              		.cfi_endproc
 639              	.LFE17:
 640              		.size	chMBFetchI, .-chMBFetchI
 641 0036 00BF     		.text
 642              	.Letext0:
 643              		.file 2 "/usr/include/newlib/machine/_default_types.h"
 644              		.file 3 "/usr/include/newlib/stdint.h"
 645              		.file 4 "../../os/ports/GCC/ARMCMx/chtypes.h"
 646              		.file 5 "../../os/kernel/include/chlists.h"
 647              		.file 6 "../../os/kernel/include/chthreads.h"
 648              		.file 7 "../../os/ports/GCC/ARMCMx/chcore_v7m.h"
 649              		.file 8 "../../os/kernel/include/chsem.h"
 650              		.file 9 "../../os/kernel/include/chmtx.h"
 651              		.file 10 "../../os/kernel/include/chmboxes.h"
 652              		.file 11 "../../os/kernel/include/chschd.h"
 653              		.section	.debug_info,"",%progbits
 654              	.Ldebug_info0:
 655 0000 440A0000 		.4byte	0xa44
 656 0004 0400     		.2byte	0x4
 657 0006 00000000 		.4byte	.Ldebug_abbrev0
 658 000a 04       		.byte	0x4
 659 000b 01       		.uleb128 0x1
 660 000c 28020000 		.4byte	.LASF85
 661 0010 01       		.byte	0x1
 662 0011 EB000000 		.4byte	.LASF86
 663 0015 85030000 		.4byte	.LASF87
 664 0019 18000000 		.4byte	.Ldebug_ranges0+0x18
 665 001d 00000000 		.4byte	0
 666 0021 00000000 		.4byte	.Ldebug_line0
 667 0025 02       		.uleb128 0x2
 668 0026 04       		.byte	0x4
 669 0027 05       		.byte	0x5
 670 0028 696E7400 		.ascii	"int\000"
 671 002c 03       		.uleb128 0x3
 672 002d 04       		.byte	0x4
 673 002e 07       		.byte	0x7
 674 002f 35010000 		.4byte	.LASF0
 675 0033 03       		.uleb128 0x3
 676 0034 01       		.byte	0x1
 677 0035 06       		.byte	0x6
 678 0036 A3000000 		.4byte	.LASF1
 679 003a 04       		.uleb128 0x4
 680 003b 21000000 		.4byte	.LASF5
 681 003f 02       		.byte	0x2
 682 0040 1D       		.byte	0x1d
 683 0041 45000000 		.4byte	0x45
 684 0045 03       		.uleb128 0x3
ARM GAS  /tmp/ccZ5CNaR.s 			page 13


 685 0046 01       		.byte	0x1
 686 0047 08       		.byte	0x8
 687 0048 BE020000 		.4byte	.LASF2
 688 004c 03       		.uleb128 0x3
 689 004d 02       		.byte	0x2
 690 004e 05       		.byte	0x5
 691 004f DD020000 		.4byte	.LASF3
 692 0053 03       		.uleb128 0x3
 693 0054 02       		.byte	0x2
 694 0055 07       		.byte	0x7
 695 0056 77010000 		.4byte	.LASF4
 696 005a 04       		.uleb128 0x4
 697 005b 66030000 		.4byte	.LASF6
 698 005f 02       		.byte	0x2
 699 0060 3F       		.byte	0x3f
 700 0061 65000000 		.4byte	0x65
 701 0065 03       		.uleb128 0x3
 702 0066 04       		.byte	0x4
 703 0067 05       		.byte	0x5
 704 0068 C9000000 		.4byte	.LASF7
 705 006c 04       		.uleb128 0x4
 706 006d 1B010000 		.4byte	.LASF8
 707 0071 02       		.byte	0x2
 708 0072 41       		.byte	0x41
 709 0073 77000000 		.4byte	0x77
 710 0077 03       		.uleb128 0x3
 711 0078 04       		.byte	0x4
 712 0079 07       		.byte	0x7
 713 007a 4B010000 		.4byte	.LASF9
 714 007e 03       		.uleb128 0x3
 715 007f 08       		.byte	0x8
 716 0080 05       		.byte	0x5
 717 0081 95000000 		.4byte	.LASF10
 718 0085 03       		.uleb128 0x3
 719 0086 08       		.byte	0x8
 720 0087 07       		.byte	0x7
 721 0088 56000000 		.4byte	.LASF11
 722 008c 04       		.uleb128 0x4
 723 008d 00040000 		.4byte	.LASF12
 724 0091 03       		.byte	0x3
 725 0092 2A       		.byte	0x2a
 726 0093 3A000000 		.4byte	0x3a
 727 0097 04       		.uleb128 0x4
 728 0098 B6020000 		.4byte	.LASF13
 729 009c 03       		.byte	0x3
 730 009d 41       		.byte	0x41
 731 009e 5A000000 		.4byte	0x5a
 732 00a2 04       		.uleb128 0x4
 733 00a3 2A030000 		.4byte	.LASF14
 734 00a7 03       		.byte	0x3
 735 00a8 42       		.byte	0x42
 736 00a9 6C000000 		.4byte	0x6c
 737 00ad 03       		.uleb128 0x3
 738 00ae 01       		.byte	0x1
 739 00af 02       		.byte	0x2
 740 00b0 B0020000 		.4byte	.LASF15
 741 00b4 04       		.uleb128 0x4
ARM GAS  /tmp/ccZ5CNaR.s 			page 14


 742 00b5 A6010000 		.4byte	.LASF16
 743 00b9 04       		.byte	0x4
 744 00ba 2C       		.byte	0x2c
 745 00bb 8C000000 		.4byte	0x8c
 746 00bf 04       		.uleb128 0x4
 747 00c0 D2000000 		.4byte	.LASF17
 748 00c4 04       		.byte	0x4
 749 00c5 2D       		.byte	0x2d
 750 00c6 8C000000 		.4byte	0x8c
 751 00ca 04       		.uleb128 0x4
 752 00cb 11020000 		.4byte	.LASF18
 753 00cf 04       		.byte	0x4
 754 00d0 2E       		.byte	0x2e
 755 00d1 8C000000 		.4byte	0x8c
 756 00d5 04       		.uleb128 0x4
 757 00d6 BF000000 		.4byte	.LASF19
 758 00da 04       		.byte	0x4
 759 00db 2F       		.byte	0x2f
 760 00dc 8C000000 		.4byte	0x8c
 761 00e0 04       		.uleb128 0x4
 762 00e1 20020000 		.4byte	.LASF20
 763 00e5 04       		.byte	0x4
 764 00e6 30       		.byte	0x30
 765 00e7 A2000000 		.4byte	0xa2
 766 00eb 04       		.uleb128 0x4
 767 00ec 95010000 		.4byte	.LASF21
 768 00f0 04       		.byte	0x4
 769 00f1 31       		.byte	0x31
 770 00f2 97000000 		.4byte	0x97
 771 00f6 04       		.uleb128 0x4
 772 00f7 BA010000 		.4byte	.LASF22
 773 00fb 04       		.byte	0x4
 774 00fc 33       		.byte	0x33
 775 00fd A2000000 		.4byte	0xa2
 776 0101 04       		.uleb128 0x4
 777 0102 51030000 		.4byte	.LASF23
 778 0106 04       		.byte	0x4
 779 0107 35       		.byte	0x35
 780 0108 A2000000 		.4byte	0xa2
 781 010c 04       		.uleb128 0x4
 782 010d 2F010000 		.4byte	.LASF24
 783 0111 04       		.byte	0x4
 784 0112 36       		.byte	0x36
 785 0113 97000000 		.4byte	0x97
 786 0117 04       		.uleb128 0x4
 787 0118 18030000 		.4byte	.LASF25
 788 011c 05       		.byte	0x5
 789 011d 2A       		.byte	0x2a
 790 011e 22010000 		.4byte	0x122
 791 0122 05       		.uleb128 0x5
 792 0123 18030000 		.4byte	.LASF25
 793 0127 48       		.byte	0x48
 794 0128 06       		.byte	0x6
 795 0129 5E       		.byte	0x5e
 796 012a 1F020000 		.4byte	0x21f
 797 012e 06       		.uleb128 0x6
 798 012f 00030000 		.4byte	.LASF26
ARM GAS  /tmp/ccZ5CNaR.s 			page 15


 799 0133 06       		.byte	0x6
 800 0134 5F       		.byte	0x5f
 801 0135 40020000 		.4byte	0x240
 802 0139 00       		.byte	0
 803 013a 06       		.uleb128 0x6
 804 013b 19020000 		.4byte	.LASF27
 805 013f 06       		.byte	0x6
 806 0140 61       		.byte	0x61
 807 0141 40020000 		.4byte	0x240
 808 0145 04       		.byte	0x4
 809 0146 06       		.uleb128 0x6
 810 0147 8E000000 		.4byte	.LASF28
 811 014b 06       		.byte	0x6
 812 014c 63       		.byte	0x63
 813 014d E0000000 		.4byte	0xe0
 814 0151 08       		.byte	0x8
 815 0152 06       		.uleb128 0x6
 816 0153 1E040000 		.4byte	.LASF29
 817 0157 06       		.byte	0x6
 818 0158 64       		.byte	0x64
 819 0159 FA020000 		.4byte	0x2fa
 820 015d 0C       		.byte	0xc
 821 015e 06       		.uleb128 0x6
 822 015f DB000000 		.4byte	.LASF30
 823 0163 06       		.byte	0x6
 824 0164 66       		.byte	0x66
 825 0165 40020000 		.4byte	0x240
 826 0169 10       		.byte	0x10
 827 016a 06       		.uleb128 0x6
 828 016b ED010000 		.4byte	.LASF31
 829 016f 06       		.byte	0x6
 830 0170 67       		.byte	0x67
 831 0171 40020000 		.4byte	0x240
 832 0175 14       		.byte	0x14
 833 0176 06       		.uleb128 0x6
 834 0177 0F040000 		.4byte	.LASF32
 835 017b 06       		.byte	0x6
 836 017c 6E       		.byte	0x6e
 837 017d 30040000 		.4byte	0x430
 838 0181 18       		.byte	0x18
 839 0182 06       		.uleb128 0x6
 840 0183 E7020000 		.4byte	.LASF33
 841 0187 06       		.byte	0x6
 842 0188 79       		.byte	0x79
 843 0189 BF000000 		.4byte	0xbf
 844 018d 1C       		.byte	0x1c
 845 018e 06       		.uleb128 0x6
 846 018f 07030000 		.4byte	.LASF34
 847 0193 06       		.byte	0x6
 848 0194 7D       		.byte	0x7d
 849 0195 B4000000 		.4byte	0xb4
 850 0199 1D       		.byte	0x1d
 851 019a 06       		.uleb128 0x6
 852 019b ED030000 		.4byte	.LASF35
 853 019f 06       		.byte	0x6
 854 01a0 82       		.byte	0x82
 855 01a1 CA000000 		.4byte	0xca
ARM GAS  /tmp/ccZ5CNaR.s 			page 16


 856 01a5 1E       		.byte	0x1e
 857 01a6 06       		.uleb128 0x6
 858 01a7 EF020000 		.4byte	.LASF36
 859 01ab 06       		.byte	0x6
 860 01ac 88       		.byte	0x88
 861 01ad D5000000 		.4byte	0xd5
 862 01b1 1F       		.byte	0x1f
 863 01b2 06       		.uleb128 0x6
 864 01b3 70030000 		.4byte	.LASF37
 865 01b7 06       		.byte	0x6
 866 01b8 8F       		.byte	0x8f
 867 01b9 22030000 		.4byte	0x322
 868 01bd 20       		.byte	0x20
 869 01be 07       		.uleb128 0x7
 870 01bf 705F7500 		.ascii	"p_u\000"
 871 01c3 06       		.byte	0x6
 872 01c4 B4       		.byte	0xb4
 873 01c5 FB030000 		.4byte	0x3fb
 874 01c9 24       		.byte	0x24
 875 01ca 06       		.uleb128 0x6
 876 01cb 24040000 		.4byte	.LASF38
 877 01cf 06       		.byte	0x6
 878 01d0 B9       		.byte	0xb9
 879 01d1 66020000 		.4byte	0x266
 880 01d5 28       		.byte	0x28
 881 01d6 06       		.uleb128 0x6
 882 01d7 C3030000 		.4byte	.LASF39
 883 01db 06       		.byte	0x6
 884 01dc BF       		.byte	0xbf
 885 01dd 46020000 		.4byte	0x246
 886 01e1 2C       		.byte	0x2c
 887 01e2 06       		.uleb128 0x6
 888 01e3 07000000 		.4byte	.LASF40
 889 01e7 06       		.byte	0x6
 890 01e8 C3       		.byte	0xc3
 891 01e9 EB000000 		.4byte	0xeb
 892 01ed 34       		.byte	0x34
 893 01ee 06       		.uleb128 0x6
 894 01ef 1F030000 		.4byte	.LASF41
 895 01f3 06       		.byte	0x6
 896 01f4 C9       		.byte	0xc9
 897 01f5 F6000000 		.4byte	0xf6
 898 01f9 38       		.byte	0x38
 899 01fa 06       		.uleb128 0x6
 900 01fb D3020000 		.4byte	.LASF42
 901 01ff 06       		.byte	0x6
 902 0200 D0       		.byte	0xd0
 903 0201 42040000 		.4byte	0x442
 904 0205 3C       		.byte	0x3c
 905 0206 06       		.uleb128 0x6
 906 0207 5B030000 		.4byte	.LASF43
 907 020b 06       		.byte	0x6
 908 020c D4       		.byte	0xd4
 909 020d E0000000 		.4byte	0xe0
 910 0211 40       		.byte	0x40
 911 0212 06       		.uleb128 0x6
 912 0213 AF000000 		.4byte	.LASF44
ARM GAS  /tmp/ccZ5CNaR.s 			page 17


 913 0217 06       		.byte	0x6
 914 0218 DA       		.byte	0xda
 915 0219 7C020000 		.4byte	0x27c
 916 021d 44       		.byte	0x44
 917 021e 00       		.byte	0
 918 021f 08       		.uleb128 0x8
 919 0220 08       		.byte	0x8
 920 0221 05       		.byte	0x5
 921 0222 61       		.byte	0x61
 922 0223 40020000 		.4byte	0x240
 923 0227 06       		.uleb128 0x6
 924 0228 00030000 		.4byte	.LASF26
 925 022c 05       		.byte	0x5
 926 022d 62       		.byte	0x62
 927 022e 40020000 		.4byte	0x240
 928 0232 00       		.byte	0
 929 0233 06       		.uleb128 0x6
 930 0234 19020000 		.4byte	.LASF27
 931 0238 05       		.byte	0x5
 932 0239 64       		.byte	0x64
 933 023a 40020000 		.4byte	0x240
 934 023e 04       		.byte	0x4
 935 023f 00       		.byte	0
 936 0240 09       		.uleb128 0x9
 937 0241 04       		.byte	0x4
 938 0242 17010000 		.4byte	0x117
 939 0246 04       		.uleb128 0x4
 940 0247 F5010000 		.4byte	.LASF45
 941 024b 05       		.byte	0x5
 942 024c 66       		.byte	0x66
 943 024d 1F020000 		.4byte	0x21f
 944 0251 08       		.uleb128 0x8
 945 0252 04       		.byte	0x4
 946 0253 05       		.byte	0x5
 947 0254 6B       		.byte	0x6b
 948 0255 66020000 		.4byte	0x266
 949 0259 06       		.uleb128 0x6
 950 025a 00030000 		.4byte	.LASF26
 951 025e 05       		.byte	0x5
 952 025f 6D       		.byte	0x6d
 953 0260 40020000 		.4byte	0x240
 954 0264 00       		.byte	0
 955 0265 00       		.byte	0
 956 0266 04       		.uleb128 0x4
 957 0267 AE010000 		.4byte	.LASF46
 958 026b 05       		.byte	0x5
 959 026c 70       		.byte	0x70
 960 026d 51020000 		.4byte	0x251
 961 0271 04       		.uleb128 0x4
 962 0272 26010000 		.4byte	.LASF47
 963 0276 07       		.byte	0x7
 964 0277 E5       		.byte	0xe5
 965 0278 7C020000 		.4byte	0x27c
 966 027c 0A       		.uleb128 0xa
 967 027d 04       		.byte	0x4
 968 027e 0B       		.uleb128 0xb
 969 027f 00000000 		.4byte	.LASF48
ARM GAS  /tmp/ccZ5CNaR.s 			page 18


 970 0283 24       		.byte	0x24
 971 0284 07       		.byte	0x7
 972 0285 0C01     		.2byte	0x10c
 973 0287 FA020000 		.4byte	0x2fa
 974 028b 0C       		.uleb128 0xc
 975 028c 723400   		.ascii	"r4\000"
 976 028f 07       		.byte	0x7
 977 0290 1F01     		.2byte	0x11f
 978 0292 71020000 		.4byte	0x271
 979 0296 00       		.byte	0
 980 0297 0C       		.uleb128 0xc
 981 0298 723500   		.ascii	"r5\000"
 982 029b 07       		.byte	0x7
 983 029c 2001     		.2byte	0x120
 984 029e 71020000 		.4byte	0x271
 985 02a2 04       		.byte	0x4
 986 02a3 0C       		.uleb128 0xc
 987 02a4 723600   		.ascii	"r6\000"
 988 02a7 07       		.byte	0x7
 989 02a8 2101     		.2byte	0x121
 990 02aa 71020000 		.4byte	0x271
 991 02ae 08       		.byte	0x8
 992 02af 0C       		.uleb128 0xc
 993 02b0 723700   		.ascii	"r7\000"
 994 02b3 07       		.byte	0x7
 995 02b4 2201     		.2byte	0x122
 996 02b6 71020000 		.4byte	0x271
 997 02ba 0C       		.byte	0xc
 998 02bb 0C       		.uleb128 0xc
 999 02bc 723800   		.ascii	"r8\000"
 1000 02bf 07       		.byte	0x7
 1001 02c0 2301     		.2byte	0x123
 1002 02c2 71020000 		.4byte	0x271
 1003 02c6 10       		.byte	0x10
 1004 02c7 0C       		.uleb128 0xc
 1005 02c8 723900   		.ascii	"r9\000"
 1006 02cb 07       		.byte	0x7
 1007 02cc 2401     		.2byte	0x124
 1008 02ce 71020000 		.4byte	0x271
 1009 02d2 14       		.byte	0x14
 1010 02d3 0C       		.uleb128 0xc
 1011 02d4 72313000 		.ascii	"r10\000"
 1012 02d8 07       		.byte	0x7
 1013 02d9 2501     		.2byte	0x125
 1014 02db 71020000 		.4byte	0x271
 1015 02df 18       		.byte	0x18
 1016 02e0 0C       		.uleb128 0xc
 1017 02e1 72313100 		.ascii	"r11\000"
 1018 02e5 07       		.byte	0x7
 1019 02e6 2601     		.2byte	0x126
 1020 02e8 71020000 		.4byte	0x271
 1021 02ec 1C       		.byte	0x1c
 1022 02ed 0C       		.uleb128 0xc
 1023 02ee 6C7200   		.ascii	"lr\000"
 1024 02f1 07       		.byte	0x7
 1025 02f2 2701     		.2byte	0x127
 1026 02f4 71020000 		.4byte	0x271
ARM GAS  /tmp/ccZ5CNaR.s 			page 19


 1027 02f8 20       		.byte	0x20
 1028 02f9 00       		.byte	0
 1029 02fa 0B       		.uleb128 0xb
 1030 02fb 6F010000 		.4byte	.LASF49
 1031 02ff 04       		.byte	0x4
 1032 0300 07       		.byte	0x7
 1033 0301 3101     		.2byte	0x131
 1034 0303 15030000 		.4byte	0x315
 1035 0307 0C       		.uleb128 0xc
 1036 0308 72313300 		.ascii	"r13\000"
 1037 030c 07       		.byte	0x7
 1038 030d 3201     		.2byte	0x132
 1039 030f 15030000 		.4byte	0x315
 1040 0313 00       		.byte	0
 1041 0314 00       		.byte	0
 1042 0315 09       		.uleb128 0x9
 1043 0316 04       		.byte	0x4
 1044 0317 7E020000 		.4byte	0x27e
 1045 031b 03       		.uleb128 0x3
 1046 031c 04       		.byte	0x4
 1047 031d 07       		.byte	0x7
 1048 031e D1010000 		.4byte	.LASF50
 1049 0322 0D       		.uleb128 0xd
 1050 0323 01010000 		.4byte	0x101
 1051 0327 05       		.uleb128 0x5
 1052 0328 D8030000 		.4byte	.LASF51
 1053 032c 0C       		.byte	0xc
 1054 032d 08       		.byte	0x8
 1055 032e 2C       		.byte	0x2c
 1056 032f 4C030000 		.4byte	0x34c
 1057 0333 06       		.uleb128 0x6
 1058 0334 E3000000 		.4byte	.LASF52
 1059 0338 08       		.byte	0x8
 1060 0339 2D       		.byte	0x2d
 1061 033a 46020000 		.4byte	0x246
 1062 033e 00       		.byte	0
 1063 033f 06       		.uleb128 0x6
 1064 0340 69010000 		.4byte	.LASF53
 1065 0344 08       		.byte	0x8
 1066 0345 2F       		.byte	0x2f
 1067 0346 0C010000 		.4byte	0x10c
 1068 034a 08       		.byte	0x8
 1069 034b 00       		.byte	0
 1070 034c 04       		.uleb128 0x4
 1071 034d D8030000 		.4byte	.LASF51
 1072 0351 08       		.byte	0x8
 1073 0352 30       		.byte	0x30
 1074 0353 27030000 		.4byte	0x327
 1075 0357 05       		.uleb128 0x5
 1076 0358 C6010000 		.4byte	.LASF54
 1077 035c 10       		.byte	0x10
 1078 035d 09       		.byte	0x9
 1079 035e 2C       		.byte	0x2c
 1080 035f 88030000 		.4byte	0x388
 1081 0363 06       		.uleb128 0x6
 1082 0364 B7000000 		.4byte	.LASF55
 1083 0368 09       		.byte	0x9
ARM GAS  /tmp/ccZ5CNaR.s 			page 20


 1084 0369 2D       		.byte	0x2d
 1085 036a 46020000 		.4byte	0x246
 1086 036e 00       		.byte	0
 1087 036f 06       		.uleb128 0x6
 1088 0370 16040000 		.4byte	.LASF56
 1089 0374 09       		.byte	0x9
 1090 0375 2F       		.byte	0x2f
 1091 0376 40020000 		.4byte	0x240
 1092 037a 08       		.byte	0x8
 1093 037b 06       		.uleb128 0x6
 1094 037c 4A030000 		.4byte	.LASF57
 1095 0380 09       		.byte	0x9
 1096 0381 31       		.byte	0x31
 1097 0382 88030000 		.4byte	0x388
 1098 0386 0C       		.byte	0xc
 1099 0387 00       		.byte	0
 1100 0388 09       		.uleb128 0x9
 1101 0389 04       		.byte	0x4
 1102 038a 57030000 		.4byte	0x357
 1103 038e 04       		.uleb128 0x4
 1104 038f C6010000 		.4byte	.LASF54
 1105 0393 09       		.byte	0x9
 1106 0394 33       		.byte	0x33
 1107 0395 57030000 		.4byte	0x357
 1108 0399 08       		.uleb128 0x8
 1109 039a 28       		.byte	0x28
 1110 039b 0A       		.byte	0xa
 1111 039c 33       		.byte	0x33
 1112 039d EA030000 		.4byte	0x3ea
 1113 03a1 06       		.uleb128 0x6
 1114 03a2 02020000 		.4byte	.LASF58
 1115 03a6 0A       		.byte	0xa
 1116 03a7 34       		.byte	0x34
 1117 03a8 EA030000 		.4byte	0x3ea
 1118 03ac 00       		.byte	0
 1119 03ad 06       		.uleb128 0x6
 1120 03ae CC020000 		.4byte	.LASF59
 1121 03b2 0A       		.byte	0xa
 1122 03b3 36       		.byte	0x36
 1123 03b4 EA030000 		.4byte	0x3ea
 1124 03b8 04       		.byte	0x4
 1125 03b9 06       		.uleb128 0x6
 1126 03ba 85000000 		.4byte	.LASF60
 1127 03be 0A       		.byte	0xa
 1128 03bf 38       		.byte	0x38
 1129 03c0 EA030000 		.4byte	0x3ea
 1130 03c4 08       		.byte	0x8
 1131 03c5 06       		.uleb128 0x6
 1132 03c6 DA010000 		.4byte	.LASF61
 1133 03ca 0A       		.byte	0xa
 1134 03cb 39       		.byte	0x39
 1135 03cc EA030000 		.4byte	0x3ea
 1136 03d0 0C       		.byte	0xc
 1137 03d1 06       		.uleb128 0x6
 1138 03d2 E2030000 		.4byte	.LASF62
 1139 03d6 0A       		.byte	0xa
 1140 03d7 3A       		.byte	0x3a
ARM GAS  /tmp/ccZ5CNaR.s 			page 21


 1141 03d8 4C030000 		.4byte	0x34c
 1142 03dc 10       		.byte	0x10
 1143 03dd 06       		.uleb128 0x6
 1144 03de 5D010000 		.4byte	.LASF63
 1145 03e2 0A       		.byte	0xa
 1146 03e3 3C       		.byte	0x3c
 1147 03e4 4C030000 		.4byte	0x34c
 1148 03e8 1C       		.byte	0x1c
 1149 03e9 00       		.byte	0
 1150 03ea 09       		.uleb128 0x9
 1151 03eb 04       		.byte	0x4
 1152 03ec EB000000 		.4byte	0xeb
 1153 03f0 04       		.uleb128 0x4
 1154 03f1 3F000000 		.4byte	.LASF64
 1155 03f5 0A       		.byte	0xa
 1156 03f6 3E       		.byte	0x3e
 1157 03f7 99030000 		.4byte	0x399
 1158 03fb 0E       		.uleb128 0xe
 1159 03fc 04       		.byte	0x4
 1160 03fd 06       		.byte	0x6
 1161 03fe 96       		.byte	0x96
 1162 03ff 30040000 		.4byte	0x430
 1163 0403 0F       		.uleb128 0xf
 1164 0404 1A000000 		.4byte	.LASF65
 1165 0408 06       		.byte	0x6
 1166 0409 9D       		.byte	0x9d
 1167 040a EB000000 		.4byte	0xeb
 1168 040e 0F       		.uleb128 0xf
 1169 040f 6D000000 		.4byte	.LASF66
 1170 0413 06       		.byte	0x6
 1171 0414 A4       		.byte	0xa4
 1172 0415 EB000000 		.4byte	0xeb
 1173 0419 0F       		.uleb128 0xf
 1174 041a 08040000 		.4byte	.LASF67
 1175 041e 06       		.byte	0x6
 1176 041f AB       		.byte	0xab
 1177 0420 7C020000 		.4byte	0x27c
 1178 0424 0F       		.uleb128 0xf
 1179 0425 F9020000 		.4byte	.LASF68
 1180 0429 06       		.byte	0x6
 1181 042a B2       		.byte	0xb2
 1182 042b F6000000 		.4byte	0xf6
 1183 042f 00       		.byte	0
 1184 0430 09       		.uleb128 0x9
 1185 0431 04       		.byte	0x4
 1186 0432 36040000 		.4byte	0x436
 1187 0436 10       		.uleb128 0x10
 1188 0437 3B040000 		.4byte	0x43b
 1189 043b 03       		.uleb128 0x3
 1190 043c 01       		.byte	0x1
 1191 043d 08       		.byte	0x8
 1192 043e 33030000 		.4byte	.LASF69
 1193 0442 09       		.uleb128 0x9
 1194 0443 04       		.byte	0x4
 1195 0444 8E030000 		.4byte	0x38e
 1196 0448 11       		.uleb128 0x11
 1197 0449 42010000 		.4byte	.LASF70
ARM GAS  /tmp/ccZ5CNaR.s 			page 22


 1198 044d 01       		.byte	0x1
 1199 044e 48       		.byte	0x48
 1200 044f 00000000 		.4byte	.LFB7
 1201 0453 28000000 		.4byte	.LFE7-.LFB7
 1202 0457 01       		.uleb128 0x1
 1203 0458 9C       		.byte	0x9c
 1204 0459 BC040000 		.4byte	0x4bc
 1205 045d 12       		.uleb128 0x12
 1206 045e 6D627000 		.ascii	"mbp\000"
 1207 0462 01       		.byte	0x1
 1208 0463 48       		.byte	0x48
 1209 0464 BC040000 		.4byte	0x4bc
 1210 0468 00000000 		.4byte	.LLST0
 1211 046c 12       		.uleb128 0x12
 1212 046d 62756600 		.ascii	"buf\000"
 1213 0471 01       		.byte	0x1
 1214 0472 48       		.byte	0x48
 1215 0473 EA030000 		.4byte	0x3ea
 1216 0477 39000000 		.4byte	.LLST1
 1217 047b 12       		.uleb128 0x12
 1218 047c 6E00     		.ascii	"n\000"
 1219 047e 01       		.byte	0x1
 1220 047f 48       		.byte	0x48
 1221 0480 0C010000 		.4byte	0x10c
 1222 0484 65000000 		.4byte	.LLST2
 1223 0488 13       		.uleb128 0x13
 1224 0489 1A000000 		.4byte	.LVL3
 1225 048d E7090000 		.4byte	0x9e7
 1226 0491 A3040000 		.4byte	0x4a3
 1227 0495 14       		.uleb128 0x14
 1228 0496 01       		.uleb128 0x1
 1229 0497 51       		.byte	0x51
 1230 0498 03       		.uleb128 0x3
 1231 0499 F3       		.byte	0xf3
 1232 049a 01       		.uleb128 0x1
 1233 049b 52       		.byte	0x52
 1234 049c 14       		.uleb128 0x14
 1235 049d 01       		.uleb128 0x1
 1236 049e 50       		.byte	0x50
 1237 049f 02       		.uleb128 0x2
 1238 04a0 74       		.byte	0x74
 1239 04a1 1C       		.sleb128 28
 1240 04a2 00       		.byte	0
 1241 04a3 15       		.uleb128 0x15
 1242 04a4 28000000 		.4byte	.LVL5
 1243 04a8 E7090000 		.4byte	0x9e7
 1244 04ac 14       		.uleb128 0x14
 1245 04ad 01       		.uleb128 0x1
 1246 04ae 51       		.byte	0x51
 1247 04af 01       		.uleb128 0x1
 1248 04b0 30       		.byte	0x30
 1249 04b1 14       		.uleb128 0x14
 1250 04b2 01       		.uleb128 0x1
 1251 04b3 50       		.byte	0x50
 1252 04b4 05       		.uleb128 0x5
 1253 04b5 F3       		.byte	0xf3
 1254 04b6 01       		.uleb128 0x1
ARM GAS  /tmp/ccZ5CNaR.s 			page 23


 1255 04b7 50       		.byte	0x50
 1256 04b8 23       		.byte	0x23
 1257 04b9 10       		.uleb128 0x10
 1258 04ba 00       		.byte	0
 1259 04bb 00       		.byte	0
 1260 04bc 09       		.uleb128 0x9
 1261 04bd 04       		.byte	0x4
 1262 04be F0030000 		.4byte	0x3f0
 1263 04c2 11       		.uleb128 0x11
 1264 04c3 E3010000 		.4byte	.LASF71
 1265 04c7 01       		.byte	0x1
 1266 04c8 5B       		.byte	0x5b
 1267 04c9 00000000 		.4byte	.LFB8
 1268 04cd 32000000 		.4byte	.LFE8-.LFB8
 1269 04d1 01       		.uleb128 0x1
 1270 04d2 9C       		.byte	0x9c
 1271 04d3 4F050000 		.4byte	0x54f
 1272 04d7 12       		.uleb128 0x12
 1273 04d8 6D627000 		.ascii	"mbp\000"
 1274 04dc 01       		.byte	0x1
 1275 04dd 5B       		.byte	0x5b
 1276 04de BC040000 		.4byte	0x4bc
 1277 04e2 86000000 		.4byte	.LLST3
 1278 04e6 16       		.uleb128 0x16
 1279 04e7 00000000 		.4byte	.Ldebug_ranges0+0
 1280 04eb FD040000 		.4byte	0x4fd
 1281 04ef 17       		.uleb128 0x17
 1282 04f0 746D7000 		.ascii	"tmp\000"
 1283 04f4 01       		.byte	0x1
 1284 04f5 5F       		.byte	0x5f
 1285 04f6 A2000000 		.4byte	0xa2
 1286 04fa 01       		.uleb128 0x1
 1287 04fb 53       		.byte	0x53
 1288 04fc 00       		.byte	0
 1289 04fd 18       		.uleb128 0x18
 1290 04fe 2A000000 		.4byte	.LBB4
 1291 0502 08000000 		.4byte	.LBE4-.LBB4
 1292 0506 18050000 		.4byte	0x518
 1293 050a 17       		.uleb128 0x17
 1294 050b 746D7000 		.ascii	"tmp\000"
 1295 050f 01       		.byte	0x1
 1296 0510 64       		.byte	0x64
 1297 0511 A2000000 		.4byte	0xa2
 1298 0515 01       		.uleb128 0x1
 1299 0516 53       		.byte	0x53
 1300 0517 00       		.byte	0
 1301 0518 13       		.uleb128 0x13
 1302 0519 1C000000 		.4byte	.LVL8
 1303 051d 030A0000 		.4byte	0xa03
 1304 0521 2C050000 		.4byte	0x52c
 1305 0525 14       		.uleb128 0x14
 1306 0526 01       		.uleb128 0x1
 1307 0527 50       		.byte	0x50
 1308 0528 02       		.uleb128 0x2
 1309 0529 74       		.byte	0x74
 1310 052a 1C       		.sleb128 28
 1311 052b 00       		.byte	0
ARM GAS  /tmp/ccZ5CNaR.s 			page 24


 1312 052c 13       		.uleb128 0x13
 1313 052d 26000000 		.4byte	.LVL9
 1314 0531 030A0000 		.4byte	0xa03
 1315 0535 45050000 		.4byte	0x545
 1316 0539 14       		.uleb128 0x14
 1317 053a 01       		.uleb128 0x1
 1318 053b 51       		.byte	0x51
 1319 053c 01       		.uleb128 0x1
 1320 053d 30       		.byte	0x30
 1321 053e 14       		.uleb128 0x14
 1322 053f 01       		.uleb128 0x1
 1323 0540 50       		.byte	0x50
 1324 0541 02       		.uleb128 0x2
 1325 0542 74       		.byte	0x74
 1326 0543 10       		.sleb128 16
 1327 0544 00       		.byte	0
 1328 0545 19       		.uleb128 0x19
 1329 0546 2A000000 		.4byte	.LVL10
 1330 054a 190A0000 		.4byte	0xa19
 1331 054e 00       		.byte	0
 1332 054f 1A       		.uleb128 0x1a
 1333 0550 35000000 		.4byte	.LASF73
 1334 0554 01       		.byte	0x1
 1335 0555 96       		.byte	0x96
 1336 0556 EB000000 		.4byte	0xeb
 1337 055a 00000000 		.4byte	.LFB10
 1338 055e 36000000 		.4byte	.LFE10-.LFB10
 1339 0562 01       		.uleb128 0x1
 1340 0563 9C       		.byte	0x9c
 1341 0564 DD050000 		.4byte	0x5dd
 1342 0568 12       		.uleb128 0x12
 1343 0569 6D627000 		.ascii	"mbp\000"
 1344 056d 01       		.byte	0x1
 1345 056e 96       		.byte	0x96
 1346 056f BC040000 		.4byte	0x4bc
 1347 0573 A4000000 		.4byte	.LLST4
 1348 0577 12       		.uleb128 0x12
 1349 0578 6D736700 		.ascii	"msg\000"
 1350 057c 01       		.byte	0x1
 1351 057d 96       		.byte	0x96
 1352 057e EB000000 		.4byte	0xeb
 1353 0582 C2000000 		.4byte	.LLST5
 1354 0586 1B       		.uleb128 0x1b
 1355 0587 0C020000 		.4byte	.LASF72
 1356 058b 01       		.byte	0x1
 1357 058c 96       		.byte	0x96
 1358 058d 01010000 		.4byte	0x101
 1359 0591 E0000000 		.4byte	.LLST6
 1360 0595 1C       		.uleb128 0x1c
 1361 0596 1A000000 		.4byte	.LASF65
 1362 059a 01       		.byte	0x1
 1363 059b 97       		.byte	0x97
 1364 059c EB000000 		.4byte	0xeb
 1365 05a0 01010000 		.4byte	.LLST7
 1366 05a4 13       		.uleb128 0x13
 1367 05a5 0E000000 		.4byte	.LVL14
 1368 05a9 200A0000 		.4byte	0xa20
ARM GAS  /tmp/ccZ5CNaR.s 			page 25


 1369 05ad BF050000 		.4byte	0x5bf
 1370 05b1 14       		.uleb128 0x14
 1371 05b2 01       		.uleb128 0x1
 1372 05b3 51       		.byte	0x51
 1373 05b4 03       		.uleb128 0x3
 1374 05b5 F3       		.byte	0xf3
 1375 05b6 01       		.uleb128 0x1
 1376 05b7 52       		.byte	0x52
 1377 05b8 14       		.uleb128 0x14
 1378 05b9 01       		.uleb128 0x1
 1379 05ba 50       		.byte	0x50
 1380 05bb 02       		.uleb128 0x2
 1381 05bc 74       		.byte	0x74
 1382 05bd 1C       		.sleb128 28
 1383 05be 00       		.byte	0
 1384 05bf 13       		.uleb128 0x13
 1385 05c0 2E000000 		.4byte	.LVL16
 1386 05c4 3A0A0000 		.4byte	0xa3a
 1387 05c8 D3050000 		.4byte	0x5d3
 1388 05cc 14       		.uleb128 0x14
 1389 05cd 01       		.uleb128 0x1
 1390 05ce 50       		.byte	0x50
 1391 05cf 02       		.uleb128 0x2
 1392 05d0 74       		.byte	0x74
 1393 05d1 10       		.sleb128 16
 1394 05d2 00       		.byte	0
 1395 05d3 19       		.uleb128 0x19
 1396 05d4 32000000 		.4byte	.LVL17
 1397 05d8 190A0000 		.4byte	0xa19
 1398 05dc 00       		.byte	0
 1399 05dd 1A       		.uleb128 0x1a
 1400 05de 0F030000 		.4byte	.LASF74
 1401 05e2 01       		.byte	0x1
 1402 05e3 7A       		.byte	0x7a
 1403 05e4 EB000000 		.4byte	0xeb
 1404 05e8 00000000 		.4byte	.LFB9
 1405 05ec 14000000 		.4byte	.LFE9-.LFB9
 1406 05f0 01       		.uleb128 0x1
 1407 05f1 9C       		.byte	0x9c
 1408 05f2 86060000 		.4byte	0x686
 1409 05f6 12       		.uleb128 0x12
 1410 05f7 6D627000 		.ascii	"mbp\000"
 1411 05fb 01       		.byte	0x1
 1412 05fc 7A       		.byte	0x7a
 1413 05fd BC040000 		.4byte	0x4bc
 1414 0601 1F010000 		.4byte	.LLST8
 1415 0605 12       		.uleb128 0x12
 1416 0606 6D736700 		.ascii	"msg\000"
 1417 060a 01       		.byte	0x1
 1418 060b 7A       		.byte	0x7a
 1419 060c EB000000 		.4byte	0xeb
 1420 0610 40010000 		.4byte	.LLST9
 1421 0614 1B       		.uleb128 0x1b
 1422 0615 0C020000 		.4byte	.LASF72
 1423 0619 01       		.byte	0x1
 1424 061a 7A       		.byte	0x7a
 1425 061b 01010000 		.4byte	0x101
ARM GAS  /tmp/ccZ5CNaR.s 			page 26


 1426 061f 61010000 		.4byte	.LLST10
 1427 0623 1D       		.uleb128 0x1d
 1428 0624 1A000000 		.4byte	.LASF65
 1429 0628 01       		.byte	0x1
 1430 0629 7B       		.byte	0x7b
 1431 062a EB000000 		.4byte	0xeb
 1432 062e 01       		.uleb128 0x1
 1433 062f 50       		.byte	0x50
 1434 0630 18       		.uleb128 0x18
 1435 0631 02000000 		.4byte	.LBB5
 1436 0635 06000000 		.4byte	.LBE5-.LBB5
 1437 0639 4B060000 		.4byte	0x64b
 1438 063d 17       		.uleb128 0x17
 1439 063e 746D7000 		.ascii	"tmp\000"
 1440 0642 01       		.byte	0x1
 1441 0643 7D       		.byte	0x7d
 1442 0644 A2000000 		.4byte	0xa2
 1443 0648 01       		.uleb128 0x1
 1444 0649 53       		.byte	0x53
 1445 064a 00       		.byte	0
 1446 064b 18       		.uleb128 0x18
 1447 064c 0C000000 		.4byte	.LBB6
 1448 0650 06000000 		.4byte	.LBE6-.LBB6
 1449 0654 66060000 		.4byte	0x666
 1450 0658 17       		.uleb128 0x17
 1451 0659 746D7000 		.ascii	"tmp\000"
 1452 065d 01       		.byte	0x1
 1453 065e 7F       		.byte	0x7f
 1454 065f A2000000 		.4byte	0xa2
 1455 0663 01       		.uleb128 0x1
 1456 0664 53       		.byte	0x53
 1457 0665 00       		.byte	0
 1458 0666 1E       		.uleb128 0x1e
 1459 0667 0C000000 		.4byte	.LVL19
 1460 066b 4F050000 		.4byte	0x54f
 1461 066f 14       		.uleb128 0x14
 1462 0670 01       		.uleb128 0x1
 1463 0671 52       		.byte	0x52
 1464 0672 03       		.uleb128 0x3
 1465 0673 F3       		.byte	0xf3
 1466 0674 01       		.uleb128 0x1
 1467 0675 52       		.byte	0x52
 1468 0676 14       		.uleb128 0x14
 1469 0677 01       		.uleb128 0x1
 1470 0678 51       		.byte	0x51
 1471 0679 03       		.uleb128 0x3
 1472 067a F3       		.byte	0xf3
 1473 067b 01       		.uleb128 0x1
 1474 067c 51       		.byte	0x51
 1475 067d 14       		.uleb128 0x14
 1476 067e 01       		.uleb128 0x1
 1477 067f 50       		.byte	0x50
 1478 0680 03       		.uleb128 0x3
 1479 0681 F3       		.byte	0xf3
 1480 0682 01       		.uleb128 0x1
 1481 0683 50       		.byte	0x50
 1482 0684 00       		.byte	0
ARM GAS  /tmp/ccZ5CNaR.s 			page 27


 1483 0685 00       		.byte	0
 1484 0686 1A       		.uleb128 0x1a
 1485 0687 2B000000 		.4byte	.LASF75
 1486 068b 01       		.byte	0x1
 1487 068c B5       		.byte	0xb5
 1488 068d EB000000 		.4byte	0xeb
 1489 0691 00000000 		.4byte	.LFB11
 1490 0695 34000000 		.4byte	.LFE11-.LFB11
 1491 0699 01       		.uleb128 0x1
 1492 069a 9C       		.byte	0x9c
 1493 069b D1060000 		.4byte	0x6d1
 1494 069f 12       		.uleb128 0x12
 1495 06a0 6D627000 		.ascii	"mbp\000"
 1496 06a4 01       		.byte	0x1
 1497 06a5 B5       		.byte	0xb5
 1498 06a6 BC040000 		.4byte	0x4bc
 1499 06aa 82010000 		.4byte	.LLST11
 1500 06ae 12       		.uleb128 0x12
 1501 06af 6D736700 		.ascii	"msg\000"
 1502 06b3 01       		.byte	0x1
 1503 06b4 B5       		.byte	0xb5
 1504 06b5 EB000000 		.4byte	0xeb
 1505 06b9 C9010000 		.4byte	.LLST12
 1506 06bd 1E       		.uleb128 0x1e
 1507 06be 2A000000 		.4byte	.LVL22
 1508 06c2 3A0A0000 		.4byte	0xa3a
 1509 06c6 14       		.uleb128 0x14
 1510 06c7 01       		.uleb128 0x1
 1511 06c8 50       		.byte	0x50
 1512 06c9 05       		.uleb128 0x5
 1513 06ca F3       		.byte	0xf3
 1514 06cb 01       		.uleb128 0x1
 1515 06cc 50       		.byte	0x50
 1516 06cd 23       		.byte	0x23
 1517 06ce 10       		.uleb128 0x10
 1518 06cf 00       		.byte	0
 1519 06d0 00       		.byte	0
 1520 06d1 1A       		.uleb128 0x1a
 1521 06d2 76000000 		.4byte	.LASF76
 1522 06d6 01       		.byte	0x1
 1523 06d7 F3       		.byte	0xf3
 1524 06d8 EB000000 		.4byte	0xeb
 1525 06dc 00000000 		.4byte	.LFB13
 1526 06e0 38000000 		.4byte	.LFE13-.LFB13
 1527 06e4 01       		.uleb128 0x1
 1528 06e5 9C       		.byte	0x9c
 1529 06e6 5F070000 		.4byte	0x75f
 1530 06ea 12       		.uleb128 0x12
 1531 06eb 6D627000 		.ascii	"mbp\000"
 1532 06ef 01       		.byte	0x1
 1533 06f0 F3       		.byte	0xf3
 1534 06f1 BC040000 		.4byte	0x4bc
 1535 06f5 F5010000 		.4byte	.LLST13
 1536 06f9 12       		.uleb128 0x12
 1537 06fa 6D736700 		.ascii	"msg\000"
 1538 06fe 01       		.byte	0x1
 1539 06ff F3       		.byte	0xf3
ARM GAS  /tmp/ccZ5CNaR.s 			page 28


 1540 0700 EB000000 		.4byte	0xeb
 1541 0704 13020000 		.4byte	.LLST14
 1542 0708 1B       		.uleb128 0x1b
 1543 0709 0C020000 		.4byte	.LASF72
 1544 070d 01       		.byte	0x1
 1545 070e F3       		.byte	0xf3
 1546 070f 01010000 		.4byte	0x101
 1547 0713 31020000 		.4byte	.LLST15
 1548 0717 1C       		.uleb128 0x1c
 1549 0718 1A000000 		.4byte	.LASF65
 1550 071c 01       		.byte	0x1
 1551 071d F4       		.byte	0xf4
 1552 071e EB000000 		.4byte	0xeb
 1553 0722 52020000 		.4byte	.LLST16
 1554 0726 13       		.uleb128 0x13
 1555 0727 0E000000 		.4byte	.LVL28
 1556 072b 200A0000 		.4byte	0xa20
 1557 072f 41070000 		.4byte	0x741
 1558 0733 14       		.uleb128 0x14
 1559 0734 01       		.uleb128 0x1
 1560 0735 51       		.byte	0x51
 1561 0736 03       		.uleb128 0x3
 1562 0737 F3       		.byte	0xf3
 1563 0738 01       		.uleb128 0x1
 1564 0739 52       		.byte	0x52
 1565 073a 14       		.uleb128 0x14
 1566 073b 01       		.uleb128 0x1
 1567 073c 50       		.byte	0x50
 1568 073d 02       		.uleb128 0x2
 1569 073e 74       		.byte	0x74
 1570 073f 1C       		.sleb128 28
 1571 0740 00       		.byte	0
 1572 0741 13       		.uleb128 0x13
 1573 0742 28000000 		.4byte	.LVL30
 1574 0746 3A0A0000 		.4byte	0xa3a
 1575 074a 55070000 		.4byte	0x755
 1576 074e 14       		.uleb128 0x14
 1577 074f 01       		.uleb128 0x1
 1578 0750 50       		.byte	0x50
 1579 0751 02       		.uleb128 0x2
 1580 0752 74       		.byte	0x74
 1581 0753 10       		.sleb128 16
 1582 0754 00       		.byte	0
 1583 0755 19       		.uleb128 0x19
 1584 0756 2C000000 		.4byte	.LVL31
 1585 075a 190A0000 		.4byte	0xa19
 1586 075e 00       		.byte	0
 1587 075f 1A       		.uleb128 0x1a
 1588 0760 77030000 		.4byte	.LASF77
 1589 0764 01       		.byte	0x1
 1590 0765 D7       		.byte	0xd7
 1591 0766 EB000000 		.4byte	0xeb
 1592 076a 00000000 		.4byte	.LFB12
 1593 076e 14000000 		.4byte	.LFE12-.LFB12
 1594 0772 01       		.uleb128 0x1
 1595 0773 9C       		.byte	0x9c
 1596 0774 08080000 		.4byte	0x808
ARM GAS  /tmp/ccZ5CNaR.s 			page 29


 1597 0778 12       		.uleb128 0x12
 1598 0779 6D627000 		.ascii	"mbp\000"
 1599 077d 01       		.byte	0x1
 1600 077e D7       		.byte	0xd7
 1601 077f BC040000 		.4byte	0x4bc
 1602 0783 7B020000 		.4byte	.LLST17
 1603 0787 12       		.uleb128 0x12
 1604 0788 6D736700 		.ascii	"msg\000"
 1605 078c 01       		.byte	0x1
 1606 078d D7       		.byte	0xd7
 1607 078e EB000000 		.4byte	0xeb
 1608 0792 9C020000 		.4byte	.LLST18
 1609 0796 1B       		.uleb128 0x1b
 1610 0797 0C020000 		.4byte	.LASF72
 1611 079b 01       		.byte	0x1
 1612 079c D7       		.byte	0xd7
 1613 079d 01010000 		.4byte	0x101
 1614 07a1 BD020000 		.4byte	.LLST19
 1615 07a5 1D       		.uleb128 0x1d
 1616 07a6 1A000000 		.4byte	.LASF65
 1617 07aa 01       		.byte	0x1
 1618 07ab D8       		.byte	0xd8
 1619 07ac EB000000 		.4byte	0xeb
 1620 07b0 01       		.uleb128 0x1
 1621 07b1 50       		.byte	0x50
 1622 07b2 18       		.uleb128 0x18
 1623 07b3 02000000 		.4byte	.LBB7
 1624 07b7 06000000 		.4byte	.LBE7-.LBB7
 1625 07bb CD070000 		.4byte	0x7cd
 1626 07bf 17       		.uleb128 0x17
 1627 07c0 746D7000 		.ascii	"tmp\000"
 1628 07c4 01       		.byte	0x1
 1629 07c5 DA       		.byte	0xda
 1630 07c6 A2000000 		.4byte	0xa2
 1631 07ca 01       		.uleb128 0x1
 1632 07cb 53       		.byte	0x53
 1633 07cc 00       		.byte	0
 1634 07cd 18       		.uleb128 0x18
 1635 07ce 0C000000 		.4byte	.LBB8
 1636 07d2 06000000 		.4byte	.LBE8-.LBB8
 1637 07d6 E8070000 		.4byte	0x7e8
 1638 07da 17       		.uleb128 0x17
 1639 07db 746D7000 		.ascii	"tmp\000"
 1640 07df 01       		.byte	0x1
 1641 07e0 DC       		.byte	0xdc
 1642 07e1 A2000000 		.4byte	0xa2
 1643 07e5 01       		.uleb128 0x1
 1644 07e6 53       		.byte	0x53
 1645 07e7 00       		.byte	0
 1646 07e8 1E       		.uleb128 0x1e
 1647 07e9 0C000000 		.4byte	.LVL34
 1648 07ed D1060000 		.4byte	0x6d1
 1649 07f1 14       		.uleb128 0x14
 1650 07f2 01       		.uleb128 0x1
 1651 07f3 52       		.byte	0x52
 1652 07f4 03       		.uleb128 0x3
 1653 07f5 F3       		.byte	0xf3
ARM GAS  /tmp/ccZ5CNaR.s 			page 30


 1654 07f6 01       		.uleb128 0x1
 1655 07f7 52       		.byte	0x52
 1656 07f8 14       		.uleb128 0x14
 1657 07f9 01       		.uleb128 0x1
 1658 07fa 51       		.byte	0x51
 1659 07fb 03       		.uleb128 0x3
 1660 07fc F3       		.byte	0xf3
 1661 07fd 01       		.uleb128 0x1
 1662 07fe 51       		.byte	0x51
 1663 07ff 14       		.uleb128 0x14
 1664 0800 01       		.uleb128 0x1
 1665 0801 50       		.byte	0x50
 1666 0802 03       		.uleb128 0x3
 1667 0803 F3       		.byte	0xf3
 1668 0804 01       		.uleb128 0x1
 1669 0805 50       		.byte	0x50
 1670 0806 00       		.byte	0
 1671 0807 00       		.byte	0
 1672 0808 1F       		.uleb128 0x1f
 1673 0809 47000000 		.4byte	.LASF78
 1674 080d 01       		.byte	0x1
 1675 080e 1201     		.2byte	0x112
 1676 0810 EB000000 		.4byte	0xeb
 1677 0814 00000000 		.4byte	.LFB14
 1678 0818 30000000 		.4byte	.LFE14-.LFB14
 1679 081c 01       		.uleb128 0x1
 1680 081d 9C       		.byte	0x9c
 1681 081e 56080000 		.4byte	0x856
 1682 0822 20       		.uleb128 0x20
 1683 0823 6D627000 		.ascii	"mbp\000"
 1684 0827 01       		.byte	0x1
 1685 0828 1201     		.2byte	0x112
 1686 082a BC040000 		.4byte	0x4bc
 1687 082e DE020000 		.4byte	.LLST20
 1688 0832 20       		.uleb128 0x20
 1689 0833 6D736700 		.ascii	"msg\000"
 1690 0837 01       		.byte	0x1
 1691 0838 1201     		.2byte	0x112
 1692 083a EB000000 		.4byte	0xeb
 1693 083e 25030000 		.4byte	.LLST21
 1694 0842 1E       		.uleb128 0x1e
 1695 0843 26000000 		.4byte	.LVL37
 1696 0847 3A0A0000 		.4byte	0xa3a
 1697 084b 14       		.uleb128 0x14
 1698 084c 01       		.uleb128 0x1
 1699 084d 50       		.byte	0x50
 1700 084e 05       		.uleb128 0x5
 1701 084f F3       		.byte	0xf3
 1702 0850 01       		.uleb128 0x1
 1703 0851 50       		.byte	0x50
 1704 0852 23       		.byte	0x23
 1705 0853 10       		.uleb128 0x10
 1706 0854 00       		.byte	0
 1707 0855 00       		.byte	0
 1708 0856 1F       		.uleb128 0x1f
 1709 0857 9B010000 		.4byte	.LASF79
 1710 085b 01       		.byte	0x1
ARM GAS  /tmp/ccZ5CNaR.s 			page 31


 1711 085c 5001     		.2byte	0x150
 1712 085e EB000000 		.4byte	0xeb
 1713 0862 00000000 		.4byte	.LFB16
 1714 0866 38000000 		.4byte	.LFE16-.LFB16
 1715 086a 01       		.uleb128 0x1
 1716 086b 9C       		.byte	0x9c
 1717 086c E9080000 		.4byte	0x8e9
 1718 0870 20       		.uleb128 0x20
 1719 0871 6D627000 		.ascii	"mbp\000"
 1720 0875 01       		.byte	0x1
 1721 0876 5001     		.2byte	0x150
 1722 0878 BC040000 		.4byte	0x4bc
 1723 087c 51030000 		.4byte	.LLST22
 1724 0880 21       		.uleb128 0x21
 1725 0881 CC010000 		.4byte	.LASF80
 1726 0885 01       		.byte	0x1
 1727 0886 5001     		.2byte	0x150
 1728 0888 EA030000 		.4byte	0x3ea
 1729 088c 6F030000 		.4byte	.LLST23
 1730 0890 21       		.uleb128 0x21
 1731 0891 0C020000 		.4byte	.LASF72
 1732 0895 01       		.byte	0x1
 1733 0896 5001     		.2byte	0x150
 1734 0898 01010000 		.4byte	0x101
 1735 089c 8D030000 		.4byte	.LLST24
 1736 08a0 22       		.uleb128 0x22
 1737 08a1 1A000000 		.4byte	.LASF65
 1738 08a5 01       		.byte	0x1
 1739 08a6 5101     		.2byte	0x151
 1740 08a8 EB000000 		.4byte	0xeb
 1741 08ac AE030000 		.4byte	.LLST25
 1742 08b0 13       		.uleb128 0x13
 1743 08b1 0E000000 		.4byte	.LVL43
 1744 08b5 200A0000 		.4byte	0xa20
 1745 08b9 CB080000 		.4byte	0x8cb
 1746 08bd 14       		.uleb128 0x14
 1747 08be 01       		.uleb128 0x1
 1748 08bf 51       		.byte	0x51
 1749 08c0 03       		.uleb128 0x3
 1750 08c1 F3       		.byte	0xf3
 1751 08c2 01       		.uleb128 0x1
 1752 08c3 52       		.byte	0x52
 1753 08c4 14       		.uleb128 0x14
 1754 08c5 01       		.uleb128 0x1
 1755 08c6 50       		.byte	0x50
 1756 08c7 02       		.uleb128 0x2
 1757 08c8 74       		.byte	0x74
 1758 08c9 10       		.sleb128 16
 1759 08ca 00       		.byte	0
 1760 08cb 13       		.uleb128 0x13
 1761 08cc 30000000 		.4byte	.LVL45
 1762 08d0 3A0A0000 		.4byte	0xa3a
 1763 08d4 DF080000 		.4byte	0x8df
 1764 08d8 14       		.uleb128 0x14
 1765 08d9 01       		.uleb128 0x1
 1766 08da 50       		.byte	0x50
 1767 08db 02       		.uleb128 0x2
ARM GAS  /tmp/ccZ5CNaR.s 			page 32


 1768 08dc 74       		.byte	0x74
 1769 08dd 1C       		.sleb128 28
 1770 08de 00       		.byte	0
 1771 08df 19       		.uleb128 0x19
 1772 08e0 34000000 		.4byte	.LVL46
 1773 08e4 190A0000 		.4byte	0xa19
 1774 08e8 00       		.byte	0
 1775 08e9 1F       		.uleb128 0x1f
 1776 08ea CE030000 		.4byte	.LASF81
 1777 08ee 01       		.byte	0x1
 1778 08ef 3401     		.2byte	0x134
 1779 08f1 EB000000 		.4byte	0xeb
 1780 08f5 00000000 		.4byte	.LFB15
 1781 08f9 14000000 		.4byte	.LFE15-.LFB15
 1782 08fd 01       		.uleb128 0x1
 1783 08fe 9C       		.byte	0x9c
 1784 08ff 99090000 		.4byte	0x999
 1785 0903 20       		.uleb128 0x20
 1786 0904 6D627000 		.ascii	"mbp\000"
 1787 0908 01       		.byte	0x1
 1788 0909 3401     		.2byte	0x134
 1789 090b BC040000 		.4byte	0x4bc
 1790 090f CC030000 		.4byte	.LLST26
 1791 0913 21       		.uleb128 0x21
 1792 0914 CC010000 		.4byte	.LASF80
 1793 0918 01       		.byte	0x1
 1794 0919 3401     		.2byte	0x134
 1795 091b EA030000 		.4byte	0x3ea
 1796 091f ED030000 		.4byte	.LLST27
 1797 0923 21       		.uleb128 0x21
 1798 0924 0C020000 		.4byte	.LASF72
 1799 0928 01       		.byte	0x1
 1800 0929 3401     		.2byte	0x134
 1801 092b 01010000 		.4byte	0x101
 1802 092f 0E040000 		.4byte	.LLST28
 1803 0933 23       		.uleb128 0x23
 1804 0934 1A000000 		.4byte	.LASF65
 1805 0938 01       		.byte	0x1
 1806 0939 3501     		.2byte	0x135
 1807 093b EB000000 		.4byte	0xeb
 1808 093f 01       		.uleb128 0x1
 1809 0940 50       		.byte	0x50
 1810 0941 18       		.uleb128 0x18
 1811 0942 02000000 		.4byte	.LBB9
 1812 0946 06000000 		.4byte	.LBE9-.LBB9
 1813 094a 5D090000 		.4byte	0x95d
 1814 094e 24       		.uleb128 0x24
 1815 094f 746D7000 		.ascii	"tmp\000"
 1816 0953 01       		.byte	0x1
 1817 0954 3701     		.2byte	0x137
 1818 0956 A2000000 		.4byte	0xa2
 1819 095a 01       		.uleb128 0x1
 1820 095b 53       		.byte	0x53
 1821 095c 00       		.byte	0
 1822 095d 18       		.uleb128 0x18
 1823 095e 0C000000 		.4byte	.LBB10
 1824 0962 06000000 		.4byte	.LBE10-.LBB10
ARM GAS  /tmp/ccZ5CNaR.s 			page 33


 1825 0966 79090000 		.4byte	0x979
 1826 096a 24       		.uleb128 0x24
 1827 096b 746D7000 		.ascii	"tmp\000"
 1828 096f 01       		.byte	0x1
 1829 0970 3901     		.2byte	0x139
 1830 0972 A2000000 		.4byte	0xa2
 1831 0976 01       		.uleb128 0x1
 1832 0977 53       		.byte	0x53
 1833 0978 00       		.byte	0
 1834 0979 1E       		.uleb128 0x1e
 1835 097a 0C000000 		.4byte	.LVL48
 1836 097e 56080000 		.4byte	0x856
 1837 0982 14       		.uleb128 0x14
 1838 0983 01       		.uleb128 0x1
 1839 0984 52       		.byte	0x52
 1840 0985 03       		.uleb128 0x3
 1841 0986 F3       		.byte	0xf3
 1842 0987 01       		.uleb128 0x1
 1843 0988 52       		.byte	0x52
 1844 0989 14       		.uleb128 0x14
 1845 098a 01       		.uleb128 0x1
 1846 098b 51       		.byte	0x51
 1847 098c 03       		.uleb128 0x3
 1848 098d F3       		.byte	0xf3
 1849 098e 01       		.uleb128 0x1
 1850 098f 51       		.byte	0x51
 1851 0990 14       		.uleb128 0x14
 1852 0991 01       		.uleb128 0x1
 1853 0992 50       		.byte	0x50
 1854 0993 03       		.uleb128 0x3
 1855 0994 F3       		.byte	0xf3
 1856 0995 01       		.uleb128 0x1
 1857 0996 50       		.byte	0x50
 1858 0997 00       		.byte	0
 1859 0998 00       		.byte	0
 1860 0999 1F       		.uleb128 0x1f
 1861 099a 8A010000 		.4byte	.LASF82
 1862 099e 01       		.byte	0x1
 1863 099f 6F01     		.2byte	0x16f
 1864 09a1 EB000000 		.4byte	0xeb
 1865 09a5 00000000 		.4byte	.LFB17
 1866 09a9 36000000 		.4byte	.LFE17-.LFB17
 1867 09ad 01       		.uleb128 0x1
 1868 09ae 9C       		.byte	0x9c
 1869 09af E7090000 		.4byte	0x9e7
 1870 09b3 20       		.uleb128 0x20
 1871 09b4 6D627000 		.ascii	"mbp\000"
 1872 09b8 01       		.byte	0x1
 1873 09b9 6F01     		.2byte	0x16f
 1874 09bb BC040000 		.4byte	0x4bc
 1875 09bf 2F040000 		.4byte	.LLST29
 1876 09c3 21       		.uleb128 0x21
 1877 09c4 CC010000 		.4byte	.LASF80
 1878 09c8 01       		.byte	0x1
 1879 09c9 6F01     		.2byte	0x16f
 1880 09cb EA030000 		.4byte	0x3ea
 1881 09cf 76040000 		.4byte	.LLST30
ARM GAS  /tmp/ccZ5CNaR.s 			page 34


 1882 09d3 1E       		.uleb128 0x1e
 1883 09d4 2C000000 		.4byte	.LVL51
 1884 09d8 3A0A0000 		.4byte	0xa3a
 1885 09dc 14       		.uleb128 0x14
 1886 09dd 01       		.uleb128 0x1
 1887 09de 50       		.byte	0x50
 1888 09df 05       		.uleb128 0x5
 1889 09e0 F3       		.byte	0xf3
 1890 09e1 01       		.uleb128 0x1
 1891 09e2 50       		.byte	0x50
 1892 09e3 23       		.byte	0x23
 1893 09e4 1C       		.uleb128 0x1c
 1894 09e5 00       		.byte	0
 1895 09e6 00       		.byte	0
 1896 09e7 25       		.uleb128 0x25
 1897 09e8 2E040000 		.4byte	.LASF83
 1898 09ec 08       		.byte	0x8
 1899 09ed 35       		.byte	0x35
 1900 09ee FD090000 		.4byte	0x9fd
 1901 09f2 26       		.uleb128 0x26
 1902 09f3 FD090000 		.4byte	0x9fd
 1903 09f7 26       		.uleb128 0x26
 1904 09f8 0C010000 		.4byte	0x10c
 1905 09fc 00       		.byte	0
 1906 09fd 09       		.uleb128 0x9
 1907 09fe 04       		.byte	0x4
 1908 09ff 4C030000 		.4byte	0x34c
 1909 0a03 25       		.uleb128 0x25
 1910 0a04 F4030000 		.4byte	.LASF84
 1911 0a08 08       		.byte	0x8
 1912 0a09 37       		.byte	0x37
 1913 0a0a 190A0000 		.4byte	0xa19
 1914 0a0e 26       		.uleb128 0x26
 1915 0a0f FD090000 		.4byte	0x9fd
 1916 0a13 26       		.uleb128 0x26
 1917 0a14 0C010000 		.4byte	0x10c
 1918 0a18 00       		.byte	0
 1919 0a19 27       		.uleb128 0x27
 1920 0a1a 0A010000 		.4byte	.LASF88
 1921 0a1e 0B       		.byte	0xb
 1922 0a1f 9C       		.byte	0x9c
 1923 0a20 28       		.uleb128 0x28
 1924 0a21 38030000 		.4byte	.LASF89
 1925 0a25 08       		.byte	0x8
 1926 0a26 3B       		.byte	0x3b
 1927 0a27 EB000000 		.4byte	0xeb
 1928 0a2b 3A0A0000 		.4byte	0xa3a
 1929 0a2f 26       		.uleb128 0x26
 1930 0a30 FD090000 		.4byte	0x9fd
 1931 0a34 26       		.uleb128 0x26
 1932 0a35 01010000 		.4byte	0x101
 1933 0a39 00       		.byte	0
 1934 0a3a 29       		.uleb128 0x29
 1935 0a3b 0D000000 		.4byte	.LASF90
 1936 0a3f 08       		.byte	0x8
 1937 0a40 3D       		.byte	0x3d
 1938 0a41 26       		.uleb128 0x26
ARM GAS  /tmp/ccZ5CNaR.s 			page 35


 1939 0a42 FD090000 		.4byte	0x9fd
 1940 0a46 00       		.byte	0
 1941 0a47 00       		.byte	0
 1942              		.section	.debug_abbrev,"",%progbits
 1943              	.Ldebug_abbrev0:
 1944 0000 01       		.uleb128 0x1
 1945 0001 11       		.uleb128 0x11
 1946 0002 01       		.byte	0x1
 1947 0003 25       		.uleb128 0x25
 1948 0004 0E       		.uleb128 0xe
 1949 0005 13       		.uleb128 0x13
 1950 0006 0B       		.uleb128 0xb
 1951 0007 03       		.uleb128 0x3
 1952 0008 0E       		.uleb128 0xe
 1953 0009 1B       		.uleb128 0x1b
 1954 000a 0E       		.uleb128 0xe
 1955 000b 55       		.uleb128 0x55
 1956 000c 17       		.uleb128 0x17
 1957 000d 11       		.uleb128 0x11
 1958 000e 01       		.uleb128 0x1
 1959 000f 10       		.uleb128 0x10
 1960 0010 17       		.uleb128 0x17
 1961 0011 00       		.byte	0
 1962 0012 00       		.byte	0
 1963 0013 02       		.uleb128 0x2
 1964 0014 24       		.uleb128 0x24
 1965 0015 00       		.byte	0
 1966 0016 0B       		.uleb128 0xb
 1967 0017 0B       		.uleb128 0xb
 1968 0018 3E       		.uleb128 0x3e
 1969 0019 0B       		.uleb128 0xb
 1970 001a 03       		.uleb128 0x3
 1971 001b 08       		.uleb128 0x8
 1972 001c 00       		.byte	0
 1973 001d 00       		.byte	0
 1974 001e 03       		.uleb128 0x3
 1975 001f 24       		.uleb128 0x24
 1976 0020 00       		.byte	0
 1977 0021 0B       		.uleb128 0xb
 1978 0022 0B       		.uleb128 0xb
 1979 0023 3E       		.uleb128 0x3e
 1980 0024 0B       		.uleb128 0xb
 1981 0025 03       		.uleb128 0x3
 1982 0026 0E       		.uleb128 0xe
 1983 0027 00       		.byte	0
 1984 0028 00       		.byte	0
 1985 0029 04       		.uleb128 0x4
 1986 002a 16       		.uleb128 0x16
 1987 002b 00       		.byte	0
 1988 002c 03       		.uleb128 0x3
 1989 002d 0E       		.uleb128 0xe
 1990 002e 3A       		.uleb128 0x3a
 1991 002f 0B       		.uleb128 0xb
 1992 0030 3B       		.uleb128 0x3b
 1993 0031 0B       		.uleb128 0xb
 1994 0032 49       		.uleb128 0x49
 1995 0033 13       		.uleb128 0x13
ARM GAS  /tmp/ccZ5CNaR.s 			page 36


 1996 0034 00       		.byte	0
 1997 0035 00       		.byte	0
 1998 0036 05       		.uleb128 0x5
 1999 0037 13       		.uleb128 0x13
 2000 0038 01       		.byte	0x1
 2001 0039 03       		.uleb128 0x3
 2002 003a 0E       		.uleb128 0xe
 2003 003b 0B       		.uleb128 0xb
 2004 003c 0B       		.uleb128 0xb
 2005 003d 3A       		.uleb128 0x3a
 2006 003e 0B       		.uleb128 0xb
 2007 003f 3B       		.uleb128 0x3b
 2008 0040 0B       		.uleb128 0xb
 2009 0041 01       		.uleb128 0x1
 2010 0042 13       		.uleb128 0x13
 2011 0043 00       		.byte	0
 2012 0044 00       		.byte	0
 2013 0045 06       		.uleb128 0x6
 2014 0046 0D       		.uleb128 0xd
 2015 0047 00       		.byte	0
 2016 0048 03       		.uleb128 0x3
 2017 0049 0E       		.uleb128 0xe
 2018 004a 3A       		.uleb128 0x3a
 2019 004b 0B       		.uleb128 0xb
 2020 004c 3B       		.uleb128 0x3b
 2021 004d 0B       		.uleb128 0xb
 2022 004e 49       		.uleb128 0x49
 2023 004f 13       		.uleb128 0x13
 2024 0050 38       		.uleb128 0x38
 2025 0051 0B       		.uleb128 0xb
 2026 0052 00       		.byte	0
 2027 0053 00       		.byte	0
 2028 0054 07       		.uleb128 0x7
 2029 0055 0D       		.uleb128 0xd
 2030 0056 00       		.byte	0
 2031 0057 03       		.uleb128 0x3
 2032 0058 08       		.uleb128 0x8
 2033 0059 3A       		.uleb128 0x3a
 2034 005a 0B       		.uleb128 0xb
 2035 005b 3B       		.uleb128 0x3b
 2036 005c 0B       		.uleb128 0xb
 2037 005d 49       		.uleb128 0x49
 2038 005e 13       		.uleb128 0x13
 2039 005f 38       		.uleb128 0x38
 2040 0060 0B       		.uleb128 0xb
 2041 0061 00       		.byte	0
 2042 0062 00       		.byte	0
 2043 0063 08       		.uleb128 0x8
 2044 0064 13       		.uleb128 0x13
 2045 0065 01       		.byte	0x1
 2046 0066 0B       		.uleb128 0xb
 2047 0067 0B       		.uleb128 0xb
 2048 0068 3A       		.uleb128 0x3a
 2049 0069 0B       		.uleb128 0xb
 2050 006a 3B       		.uleb128 0x3b
 2051 006b 0B       		.uleb128 0xb
 2052 006c 01       		.uleb128 0x1
ARM GAS  /tmp/ccZ5CNaR.s 			page 37


 2053 006d 13       		.uleb128 0x13
 2054 006e 00       		.byte	0
 2055 006f 00       		.byte	0
 2056 0070 09       		.uleb128 0x9
 2057 0071 0F       		.uleb128 0xf
 2058 0072 00       		.byte	0
 2059 0073 0B       		.uleb128 0xb
 2060 0074 0B       		.uleb128 0xb
 2061 0075 49       		.uleb128 0x49
 2062 0076 13       		.uleb128 0x13
 2063 0077 00       		.byte	0
 2064 0078 00       		.byte	0
 2065 0079 0A       		.uleb128 0xa
 2066 007a 0F       		.uleb128 0xf
 2067 007b 00       		.byte	0
 2068 007c 0B       		.uleb128 0xb
 2069 007d 0B       		.uleb128 0xb
 2070 007e 00       		.byte	0
 2071 007f 00       		.byte	0
 2072 0080 0B       		.uleb128 0xb
 2073 0081 13       		.uleb128 0x13
 2074 0082 01       		.byte	0x1
 2075 0083 03       		.uleb128 0x3
 2076 0084 0E       		.uleb128 0xe
 2077 0085 0B       		.uleb128 0xb
 2078 0086 0B       		.uleb128 0xb
 2079 0087 3A       		.uleb128 0x3a
 2080 0088 0B       		.uleb128 0xb
 2081 0089 3B       		.uleb128 0x3b
 2082 008a 05       		.uleb128 0x5
 2083 008b 01       		.uleb128 0x1
 2084 008c 13       		.uleb128 0x13
 2085 008d 00       		.byte	0
 2086 008e 00       		.byte	0
 2087 008f 0C       		.uleb128 0xc
 2088 0090 0D       		.uleb128 0xd
 2089 0091 00       		.byte	0
 2090 0092 03       		.uleb128 0x3
 2091 0093 08       		.uleb128 0x8
 2092 0094 3A       		.uleb128 0x3a
 2093 0095 0B       		.uleb128 0xb
 2094 0096 3B       		.uleb128 0x3b
 2095 0097 05       		.uleb128 0x5
 2096 0098 49       		.uleb128 0x49
 2097 0099 13       		.uleb128 0x13
 2098 009a 38       		.uleb128 0x38
 2099 009b 0B       		.uleb128 0xb
 2100 009c 00       		.byte	0
 2101 009d 00       		.byte	0
 2102 009e 0D       		.uleb128 0xd
 2103 009f 35       		.uleb128 0x35
 2104 00a0 00       		.byte	0
 2105 00a1 49       		.uleb128 0x49
 2106 00a2 13       		.uleb128 0x13
 2107 00a3 00       		.byte	0
 2108 00a4 00       		.byte	0
 2109 00a5 0E       		.uleb128 0xe
ARM GAS  /tmp/ccZ5CNaR.s 			page 38


 2110 00a6 17       		.uleb128 0x17
 2111 00a7 01       		.byte	0x1
 2112 00a8 0B       		.uleb128 0xb
 2113 00a9 0B       		.uleb128 0xb
 2114 00aa 3A       		.uleb128 0x3a
 2115 00ab 0B       		.uleb128 0xb
 2116 00ac 3B       		.uleb128 0x3b
 2117 00ad 0B       		.uleb128 0xb
 2118 00ae 01       		.uleb128 0x1
 2119 00af 13       		.uleb128 0x13
 2120 00b0 00       		.byte	0
 2121 00b1 00       		.byte	0
 2122 00b2 0F       		.uleb128 0xf
 2123 00b3 0D       		.uleb128 0xd
 2124 00b4 00       		.byte	0
 2125 00b5 03       		.uleb128 0x3
 2126 00b6 0E       		.uleb128 0xe
 2127 00b7 3A       		.uleb128 0x3a
 2128 00b8 0B       		.uleb128 0xb
 2129 00b9 3B       		.uleb128 0x3b
 2130 00ba 0B       		.uleb128 0xb
 2131 00bb 49       		.uleb128 0x49
 2132 00bc 13       		.uleb128 0x13
 2133 00bd 00       		.byte	0
 2134 00be 00       		.byte	0
 2135 00bf 10       		.uleb128 0x10
 2136 00c0 26       		.uleb128 0x26
 2137 00c1 00       		.byte	0
 2138 00c2 49       		.uleb128 0x49
 2139 00c3 13       		.uleb128 0x13
 2140 00c4 00       		.byte	0
 2141 00c5 00       		.byte	0
 2142 00c6 11       		.uleb128 0x11
 2143 00c7 2E       		.uleb128 0x2e
 2144 00c8 01       		.byte	0x1
 2145 00c9 3F       		.uleb128 0x3f
 2146 00ca 19       		.uleb128 0x19
 2147 00cb 03       		.uleb128 0x3
 2148 00cc 0E       		.uleb128 0xe
 2149 00cd 3A       		.uleb128 0x3a
 2150 00ce 0B       		.uleb128 0xb
 2151 00cf 3B       		.uleb128 0x3b
 2152 00d0 0B       		.uleb128 0xb
 2153 00d1 27       		.uleb128 0x27
 2154 00d2 19       		.uleb128 0x19
 2155 00d3 11       		.uleb128 0x11
 2156 00d4 01       		.uleb128 0x1
 2157 00d5 12       		.uleb128 0x12
 2158 00d6 06       		.uleb128 0x6
 2159 00d7 40       		.uleb128 0x40
 2160 00d8 18       		.uleb128 0x18
 2161 00d9 9742     		.uleb128 0x2117
 2162 00db 19       		.uleb128 0x19
 2163 00dc 01       		.uleb128 0x1
 2164 00dd 13       		.uleb128 0x13
 2165 00de 00       		.byte	0
 2166 00df 00       		.byte	0
ARM GAS  /tmp/ccZ5CNaR.s 			page 39


 2167 00e0 12       		.uleb128 0x12
 2168 00e1 05       		.uleb128 0x5
 2169 00e2 00       		.byte	0
 2170 00e3 03       		.uleb128 0x3
 2171 00e4 08       		.uleb128 0x8
 2172 00e5 3A       		.uleb128 0x3a
 2173 00e6 0B       		.uleb128 0xb
 2174 00e7 3B       		.uleb128 0x3b
 2175 00e8 0B       		.uleb128 0xb
 2176 00e9 49       		.uleb128 0x49
 2177 00ea 13       		.uleb128 0x13
 2178 00eb 02       		.uleb128 0x2
 2179 00ec 17       		.uleb128 0x17
 2180 00ed 00       		.byte	0
 2181 00ee 00       		.byte	0
 2182 00ef 13       		.uleb128 0x13
 2183 00f0 898201   		.uleb128 0x4109
 2184 00f3 01       		.byte	0x1
 2185 00f4 11       		.uleb128 0x11
 2186 00f5 01       		.uleb128 0x1
 2187 00f6 31       		.uleb128 0x31
 2188 00f7 13       		.uleb128 0x13
 2189 00f8 01       		.uleb128 0x1
 2190 00f9 13       		.uleb128 0x13
 2191 00fa 00       		.byte	0
 2192 00fb 00       		.byte	0
 2193 00fc 14       		.uleb128 0x14
 2194 00fd 8A8201   		.uleb128 0x410a
 2195 0100 00       		.byte	0
 2196 0101 02       		.uleb128 0x2
 2197 0102 18       		.uleb128 0x18
 2198 0103 9142     		.uleb128 0x2111
 2199 0105 18       		.uleb128 0x18
 2200 0106 00       		.byte	0
 2201 0107 00       		.byte	0
 2202 0108 15       		.uleb128 0x15
 2203 0109 898201   		.uleb128 0x4109
 2204 010c 01       		.byte	0x1
 2205 010d 11       		.uleb128 0x11
 2206 010e 01       		.uleb128 0x1
 2207 010f 9542     		.uleb128 0x2115
 2208 0111 19       		.uleb128 0x19
 2209 0112 31       		.uleb128 0x31
 2210 0113 13       		.uleb128 0x13
 2211 0114 00       		.byte	0
 2212 0115 00       		.byte	0
 2213 0116 16       		.uleb128 0x16
 2214 0117 0B       		.uleb128 0xb
 2215 0118 01       		.byte	0x1
 2216 0119 55       		.uleb128 0x55
 2217 011a 17       		.uleb128 0x17
 2218 011b 01       		.uleb128 0x1
 2219 011c 13       		.uleb128 0x13
 2220 011d 00       		.byte	0
 2221 011e 00       		.byte	0
 2222 011f 17       		.uleb128 0x17
 2223 0120 34       		.uleb128 0x34
ARM GAS  /tmp/ccZ5CNaR.s 			page 40


 2224 0121 00       		.byte	0
 2225 0122 03       		.uleb128 0x3
 2226 0123 08       		.uleb128 0x8
 2227 0124 3A       		.uleb128 0x3a
 2228 0125 0B       		.uleb128 0xb
 2229 0126 3B       		.uleb128 0x3b
 2230 0127 0B       		.uleb128 0xb
 2231 0128 49       		.uleb128 0x49
 2232 0129 13       		.uleb128 0x13
 2233 012a 02       		.uleb128 0x2
 2234 012b 18       		.uleb128 0x18
 2235 012c 00       		.byte	0
 2236 012d 00       		.byte	0
 2237 012e 18       		.uleb128 0x18
 2238 012f 0B       		.uleb128 0xb
 2239 0130 01       		.byte	0x1
 2240 0131 11       		.uleb128 0x11
 2241 0132 01       		.uleb128 0x1
 2242 0133 12       		.uleb128 0x12
 2243 0134 06       		.uleb128 0x6
 2244 0135 01       		.uleb128 0x1
 2245 0136 13       		.uleb128 0x13
 2246 0137 00       		.byte	0
 2247 0138 00       		.byte	0
 2248 0139 19       		.uleb128 0x19
 2249 013a 898201   		.uleb128 0x4109
 2250 013d 00       		.byte	0
 2251 013e 11       		.uleb128 0x11
 2252 013f 01       		.uleb128 0x1
 2253 0140 31       		.uleb128 0x31
 2254 0141 13       		.uleb128 0x13
 2255 0142 00       		.byte	0
 2256 0143 00       		.byte	0
 2257 0144 1A       		.uleb128 0x1a
 2258 0145 2E       		.uleb128 0x2e
 2259 0146 01       		.byte	0x1
 2260 0147 3F       		.uleb128 0x3f
 2261 0148 19       		.uleb128 0x19
 2262 0149 03       		.uleb128 0x3
 2263 014a 0E       		.uleb128 0xe
 2264 014b 3A       		.uleb128 0x3a
 2265 014c 0B       		.uleb128 0xb
 2266 014d 3B       		.uleb128 0x3b
 2267 014e 0B       		.uleb128 0xb
 2268 014f 27       		.uleb128 0x27
 2269 0150 19       		.uleb128 0x19
 2270 0151 49       		.uleb128 0x49
 2271 0152 13       		.uleb128 0x13
 2272 0153 11       		.uleb128 0x11
 2273 0154 01       		.uleb128 0x1
 2274 0155 12       		.uleb128 0x12
 2275 0156 06       		.uleb128 0x6
 2276 0157 40       		.uleb128 0x40
 2277 0158 18       		.uleb128 0x18
 2278 0159 9742     		.uleb128 0x2117
 2279 015b 19       		.uleb128 0x19
 2280 015c 01       		.uleb128 0x1
ARM GAS  /tmp/ccZ5CNaR.s 			page 41


 2281 015d 13       		.uleb128 0x13
 2282 015e 00       		.byte	0
 2283 015f 00       		.byte	0
 2284 0160 1B       		.uleb128 0x1b
 2285 0161 05       		.uleb128 0x5
 2286 0162 00       		.byte	0
 2287 0163 03       		.uleb128 0x3
 2288 0164 0E       		.uleb128 0xe
 2289 0165 3A       		.uleb128 0x3a
 2290 0166 0B       		.uleb128 0xb
 2291 0167 3B       		.uleb128 0x3b
 2292 0168 0B       		.uleb128 0xb
 2293 0169 49       		.uleb128 0x49
 2294 016a 13       		.uleb128 0x13
 2295 016b 02       		.uleb128 0x2
 2296 016c 17       		.uleb128 0x17
 2297 016d 00       		.byte	0
 2298 016e 00       		.byte	0
 2299 016f 1C       		.uleb128 0x1c
 2300 0170 34       		.uleb128 0x34
 2301 0171 00       		.byte	0
 2302 0172 03       		.uleb128 0x3
 2303 0173 0E       		.uleb128 0xe
 2304 0174 3A       		.uleb128 0x3a
 2305 0175 0B       		.uleb128 0xb
 2306 0176 3B       		.uleb128 0x3b
 2307 0177 0B       		.uleb128 0xb
 2308 0178 49       		.uleb128 0x49
 2309 0179 13       		.uleb128 0x13
 2310 017a 02       		.uleb128 0x2
 2311 017b 17       		.uleb128 0x17
 2312 017c 00       		.byte	0
 2313 017d 00       		.byte	0
 2314 017e 1D       		.uleb128 0x1d
 2315 017f 34       		.uleb128 0x34
 2316 0180 00       		.byte	0
 2317 0181 03       		.uleb128 0x3
 2318 0182 0E       		.uleb128 0xe
 2319 0183 3A       		.uleb128 0x3a
 2320 0184 0B       		.uleb128 0xb
 2321 0185 3B       		.uleb128 0x3b
 2322 0186 0B       		.uleb128 0xb
 2323 0187 49       		.uleb128 0x49
 2324 0188 13       		.uleb128 0x13
 2325 0189 02       		.uleb128 0x2
 2326 018a 18       		.uleb128 0x18
 2327 018b 00       		.byte	0
 2328 018c 00       		.byte	0
 2329 018d 1E       		.uleb128 0x1e
 2330 018e 898201   		.uleb128 0x4109
 2331 0191 01       		.byte	0x1
 2332 0192 11       		.uleb128 0x11
 2333 0193 01       		.uleb128 0x1
 2334 0194 31       		.uleb128 0x31
 2335 0195 13       		.uleb128 0x13
 2336 0196 00       		.byte	0
 2337 0197 00       		.byte	0
ARM GAS  /tmp/ccZ5CNaR.s 			page 42


 2338 0198 1F       		.uleb128 0x1f
 2339 0199 2E       		.uleb128 0x2e
 2340 019a 01       		.byte	0x1
 2341 019b 3F       		.uleb128 0x3f
 2342 019c 19       		.uleb128 0x19
 2343 019d 03       		.uleb128 0x3
 2344 019e 0E       		.uleb128 0xe
 2345 019f 3A       		.uleb128 0x3a
 2346 01a0 0B       		.uleb128 0xb
 2347 01a1 3B       		.uleb128 0x3b
 2348 01a2 05       		.uleb128 0x5
 2349 01a3 27       		.uleb128 0x27
 2350 01a4 19       		.uleb128 0x19
 2351 01a5 49       		.uleb128 0x49
 2352 01a6 13       		.uleb128 0x13
 2353 01a7 11       		.uleb128 0x11
 2354 01a8 01       		.uleb128 0x1
 2355 01a9 12       		.uleb128 0x12
 2356 01aa 06       		.uleb128 0x6
 2357 01ab 40       		.uleb128 0x40
 2358 01ac 18       		.uleb128 0x18
 2359 01ad 9742     		.uleb128 0x2117
 2360 01af 19       		.uleb128 0x19
 2361 01b0 01       		.uleb128 0x1
 2362 01b1 13       		.uleb128 0x13
 2363 01b2 00       		.byte	0
 2364 01b3 00       		.byte	0
 2365 01b4 20       		.uleb128 0x20
 2366 01b5 05       		.uleb128 0x5
 2367 01b6 00       		.byte	0
 2368 01b7 03       		.uleb128 0x3
 2369 01b8 08       		.uleb128 0x8
 2370 01b9 3A       		.uleb128 0x3a
 2371 01ba 0B       		.uleb128 0xb
 2372 01bb 3B       		.uleb128 0x3b
 2373 01bc 05       		.uleb128 0x5
 2374 01bd 49       		.uleb128 0x49
 2375 01be 13       		.uleb128 0x13
 2376 01bf 02       		.uleb128 0x2
 2377 01c0 17       		.uleb128 0x17
 2378 01c1 00       		.byte	0
 2379 01c2 00       		.byte	0
 2380 01c3 21       		.uleb128 0x21
 2381 01c4 05       		.uleb128 0x5
 2382 01c5 00       		.byte	0
 2383 01c6 03       		.uleb128 0x3
 2384 01c7 0E       		.uleb128 0xe
 2385 01c8 3A       		.uleb128 0x3a
 2386 01c9 0B       		.uleb128 0xb
 2387 01ca 3B       		.uleb128 0x3b
 2388 01cb 05       		.uleb128 0x5
 2389 01cc 49       		.uleb128 0x49
 2390 01cd 13       		.uleb128 0x13
 2391 01ce 02       		.uleb128 0x2
 2392 01cf 17       		.uleb128 0x17
 2393 01d0 00       		.byte	0
 2394 01d1 00       		.byte	0
ARM GAS  /tmp/ccZ5CNaR.s 			page 43


 2395 01d2 22       		.uleb128 0x22
 2396 01d3 34       		.uleb128 0x34
 2397 01d4 00       		.byte	0
 2398 01d5 03       		.uleb128 0x3
 2399 01d6 0E       		.uleb128 0xe
 2400 01d7 3A       		.uleb128 0x3a
 2401 01d8 0B       		.uleb128 0xb
 2402 01d9 3B       		.uleb128 0x3b
 2403 01da 05       		.uleb128 0x5
 2404 01db 49       		.uleb128 0x49
 2405 01dc 13       		.uleb128 0x13
 2406 01dd 02       		.uleb128 0x2
 2407 01de 17       		.uleb128 0x17
 2408 01df 00       		.byte	0
 2409 01e0 00       		.byte	0
 2410 01e1 23       		.uleb128 0x23
 2411 01e2 34       		.uleb128 0x34
 2412 01e3 00       		.byte	0
 2413 01e4 03       		.uleb128 0x3
 2414 01e5 0E       		.uleb128 0xe
 2415 01e6 3A       		.uleb128 0x3a
 2416 01e7 0B       		.uleb128 0xb
 2417 01e8 3B       		.uleb128 0x3b
 2418 01e9 05       		.uleb128 0x5
 2419 01ea 49       		.uleb128 0x49
 2420 01eb 13       		.uleb128 0x13
 2421 01ec 02       		.uleb128 0x2
 2422 01ed 18       		.uleb128 0x18
 2423 01ee 00       		.byte	0
 2424 01ef 00       		.byte	0
 2425 01f0 24       		.uleb128 0x24
 2426 01f1 34       		.uleb128 0x34
 2427 01f2 00       		.byte	0
 2428 01f3 03       		.uleb128 0x3
 2429 01f4 08       		.uleb128 0x8
 2430 01f5 3A       		.uleb128 0x3a
 2431 01f6 0B       		.uleb128 0xb
 2432 01f7 3B       		.uleb128 0x3b
 2433 01f8 05       		.uleb128 0x5
 2434 01f9 49       		.uleb128 0x49
 2435 01fa 13       		.uleb128 0x13
 2436 01fb 02       		.uleb128 0x2
 2437 01fc 18       		.uleb128 0x18
 2438 01fd 00       		.byte	0
 2439 01fe 00       		.byte	0
 2440 01ff 25       		.uleb128 0x25
 2441 0200 2E       		.uleb128 0x2e
 2442 0201 01       		.byte	0x1
 2443 0202 3F       		.uleb128 0x3f
 2444 0203 19       		.uleb128 0x19
 2445 0204 03       		.uleb128 0x3
 2446 0205 0E       		.uleb128 0xe
 2447 0206 3A       		.uleb128 0x3a
 2448 0207 0B       		.uleb128 0xb
 2449 0208 3B       		.uleb128 0x3b
 2450 0209 0B       		.uleb128 0xb
 2451 020a 27       		.uleb128 0x27
ARM GAS  /tmp/ccZ5CNaR.s 			page 44


 2452 020b 19       		.uleb128 0x19
 2453 020c 3C       		.uleb128 0x3c
 2454 020d 19       		.uleb128 0x19
 2455 020e 01       		.uleb128 0x1
 2456 020f 13       		.uleb128 0x13
 2457 0210 00       		.byte	0
 2458 0211 00       		.byte	0
 2459 0212 26       		.uleb128 0x26
 2460 0213 05       		.uleb128 0x5
 2461 0214 00       		.byte	0
 2462 0215 49       		.uleb128 0x49
 2463 0216 13       		.uleb128 0x13
 2464 0217 00       		.byte	0
 2465 0218 00       		.byte	0
 2466 0219 27       		.uleb128 0x27
 2467 021a 2E       		.uleb128 0x2e
 2468 021b 00       		.byte	0
 2469 021c 3F       		.uleb128 0x3f
 2470 021d 19       		.uleb128 0x19
 2471 021e 03       		.uleb128 0x3
 2472 021f 0E       		.uleb128 0xe
 2473 0220 3A       		.uleb128 0x3a
 2474 0221 0B       		.uleb128 0xb
 2475 0222 3B       		.uleb128 0x3b
 2476 0223 0B       		.uleb128 0xb
 2477 0224 27       		.uleb128 0x27
 2478 0225 19       		.uleb128 0x19
 2479 0226 3C       		.uleb128 0x3c
 2480 0227 19       		.uleb128 0x19
 2481 0228 00       		.byte	0
 2482 0229 00       		.byte	0
 2483 022a 28       		.uleb128 0x28
 2484 022b 2E       		.uleb128 0x2e
 2485 022c 01       		.byte	0x1
 2486 022d 3F       		.uleb128 0x3f
 2487 022e 19       		.uleb128 0x19
 2488 022f 03       		.uleb128 0x3
 2489 0230 0E       		.uleb128 0xe
 2490 0231 3A       		.uleb128 0x3a
 2491 0232 0B       		.uleb128 0xb
 2492 0233 3B       		.uleb128 0x3b
 2493 0234 0B       		.uleb128 0xb
 2494 0235 27       		.uleb128 0x27
 2495 0236 19       		.uleb128 0x19
 2496 0237 49       		.uleb128 0x49
 2497 0238 13       		.uleb128 0x13
 2498 0239 3C       		.uleb128 0x3c
 2499 023a 19       		.uleb128 0x19
 2500 023b 01       		.uleb128 0x1
 2501 023c 13       		.uleb128 0x13
 2502 023d 00       		.byte	0
 2503 023e 00       		.byte	0
 2504 023f 29       		.uleb128 0x29
 2505 0240 2E       		.uleb128 0x2e
 2506 0241 01       		.byte	0x1
 2507 0242 3F       		.uleb128 0x3f
 2508 0243 19       		.uleb128 0x19
ARM GAS  /tmp/ccZ5CNaR.s 			page 45


 2509 0244 03       		.uleb128 0x3
 2510 0245 0E       		.uleb128 0xe
 2511 0246 3A       		.uleb128 0x3a
 2512 0247 0B       		.uleb128 0xb
 2513 0248 3B       		.uleb128 0x3b
 2514 0249 0B       		.uleb128 0xb
 2515 024a 27       		.uleb128 0x27
 2516 024b 19       		.uleb128 0x19
 2517 024c 3C       		.uleb128 0x3c
 2518 024d 19       		.uleb128 0x19
 2519 024e 00       		.byte	0
 2520 024f 00       		.byte	0
 2521 0250 00       		.byte	0
 2522              		.section	.debug_loc,"",%progbits
 2523              	.Ldebug_loc0:
 2524              	.LLST0:
 2525 0000 00000000 		.4byte	.LVL0
 2526 0004 16000000 		.4byte	.LVL2
 2527 0008 0100     		.2byte	0x1
 2528 000a 50       		.byte	0x50
 2529 000b 16000000 		.4byte	.LVL2
 2530 000f 24000000 		.4byte	.LVL4
 2531 0013 0100     		.2byte	0x1
 2532 0015 54       		.byte	0x54
 2533 0016 24000000 		.4byte	.LVL4
 2534 001a 27000000 		.4byte	.LVL5-1
 2535 001e 0300     		.2byte	0x3
 2536 0020 70       		.byte	0x70
 2537 0021 70       		.sleb128 -16
 2538 0022 9F       		.byte	0x9f
 2539 0023 27000000 		.4byte	.LVL5-1
 2540 0027 28000000 		.4byte	.LFE7
 2541 002b 0400     		.2byte	0x4
 2542 002d F3       		.byte	0xf3
 2543 002e 01       		.uleb128 0x1
 2544 002f 50       		.byte	0x50
 2545 0030 9F       		.byte	0x9f
 2546 0031 00000000 		.4byte	0
 2547 0035 00000000 		.4byte	0
 2548              	.LLST1:
 2549 0039 00000000 		.4byte	.LVL0
 2550 003d 08000000 		.4byte	.LVL1
 2551 0041 0100     		.2byte	0x1
 2552 0043 51       		.byte	0x51
 2553 0044 08000000 		.4byte	.LVL1
 2554 0048 19000000 		.4byte	.LVL3-1
 2555 004c 0100     		.2byte	0x1
 2556 004e 53       		.byte	0x53
 2557 004f 19000000 		.4byte	.LVL3-1
 2558 0053 28000000 		.4byte	.LFE7
 2559 0057 0400     		.2byte	0x4
 2560 0059 F3       		.byte	0xf3
 2561 005a 01       		.uleb128 0x1
 2562 005b 51       		.byte	0x51
 2563 005c 9F       		.byte	0x9f
 2564 005d 00000000 		.4byte	0
 2565 0061 00000000 		.4byte	0
ARM GAS  /tmp/ccZ5CNaR.s 			page 46


 2566              	.LLST2:
 2567 0065 00000000 		.4byte	.LVL0
 2568 0069 19000000 		.4byte	.LVL3-1
 2569 006d 0100     		.2byte	0x1
 2570 006f 52       		.byte	0x52
 2571 0070 19000000 		.4byte	.LVL3-1
 2572 0074 28000000 		.4byte	.LFE7
 2573 0078 0400     		.2byte	0x4
 2574 007a F3       		.byte	0xf3
 2575 007b 01       		.uleb128 0x1
 2576 007c 52       		.byte	0x52
 2577 007d 9F       		.byte	0x9f
 2578 007e 00000000 		.4byte	0
 2579 0082 00000000 		.4byte	0
 2580              	.LLST3:
 2581 0086 00000000 		.4byte	.LVL6
 2582 008a 18000000 		.4byte	.LVL7
 2583 008e 0100     		.2byte	0x1
 2584 0090 50       		.byte	0x50
 2585 0091 18000000 		.4byte	.LVL7
 2586 0095 32000000 		.4byte	.LFE8
 2587 0099 0100     		.2byte	0x1
 2588 009b 54       		.byte	0x54
 2589 009c 00000000 		.4byte	0
 2590 00a0 00000000 		.4byte	0
 2591              	.LLST4:
 2592 00a4 00000000 		.4byte	.LVL11
 2593 00a8 08000000 		.4byte	.LVL12
 2594 00ac 0100     		.2byte	0x1
 2595 00ae 50       		.byte	0x50
 2596 00af 08000000 		.4byte	.LVL12
 2597 00b3 36000000 		.4byte	.LFE10
 2598 00b7 0100     		.2byte	0x1
 2599 00b9 54       		.byte	0x54
 2600 00ba 00000000 		.4byte	0
 2601 00be 00000000 		.4byte	0
 2602              	.LLST5:
 2603 00c2 00000000 		.4byte	.LVL11
 2604 00c6 0A000000 		.4byte	.LVL13
 2605 00ca 0100     		.2byte	0x1
 2606 00cc 51       		.byte	0x51
 2607 00cd 0A000000 		.4byte	.LVL13
 2608 00d1 36000000 		.4byte	.LFE10
 2609 00d5 0100     		.2byte	0x1
 2610 00d7 56       		.byte	0x56
 2611 00d8 00000000 		.4byte	0
 2612 00dc 00000000 		.4byte	0
 2613              	.LLST6:
 2614 00e0 00000000 		.4byte	.LVL11
 2615 00e4 0D000000 		.4byte	.LVL14-1
 2616 00e8 0100     		.2byte	0x1
 2617 00ea 52       		.byte	0x52
 2618 00eb 0D000000 		.4byte	.LVL14-1
 2619 00ef 36000000 		.4byte	.LFE10
 2620 00f3 0400     		.2byte	0x4
 2621 00f5 F3       		.byte	0xf3
 2622 00f6 01       		.uleb128 0x1
ARM GAS  /tmp/ccZ5CNaR.s 			page 47


 2623 00f7 52       		.byte	0x52
 2624 00f8 9F       		.byte	0x9f
 2625 00f9 00000000 		.4byte	0
 2626 00fd 00000000 		.4byte	0
 2627              	.LLST7:
 2628 0101 0E000000 		.4byte	.LVL14
 2629 0105 26000000 		.4byte	.LVL15
 2630 0109 0100     		.2byte	0x1
 2631 010b 50       		.byte	0x50
 2632 010c 26000000 		.4byte	.LVL15
 2633 0110 36000000 		.4byte	.LFE10
 2634 0114 0100     		.2byte	0x1
 2635 0116 55       		.byte	0x55
 2636 0117 00000000 		.4byte	0
 2637 011b 00000000 		.4byte	0
 2638              	.LLST8:
 2639 011f 00000000 		.4byte	.LVL18
 2640 0123 0B000000 		.4byte	.LVL19-1
 2641 0127 0100     		.2byte	0x1
 2642 0129 50       		.byte	0x50
 2643 012a 0B000000 		.4byte	.LVL19-1
 2644 012e 14000000 		.4byte	.LFE9
 2645 0132 0400     		.2byte	0x4
 2646 0134 F3       		.byte	0xf3
 2647 0135 01       		.uleb128 0x1
 2648 0136 50       		.byte	0x50
 2649 0137 9F       		.byte	0x9f
 2650 0138 00000000 		.4byte	0
 2651 013c 00000000 		.4byte	0
 2652              	.LLST9:
 2653 0140 00000000 		.4byte	.LVL18
 2654 0144 0B000000 		.4byte	.LVL19-1
 2655 0148 0100     		.2byte	0x1
 2656 014a 51       		.byte	0x51
 2657 014b 0B000000 		.4byte	.LVL19-1
 2658 014f 14000000 		.4byte	.LFE9
 2659 0153 0400     		.2byte	0x4
 2660 0155 F3       		.byte	0xf3
 2661 0156 01       		.uleb128 0x1
 2662 0157 51       		.byte	0x51
 2663 0158 9F       		.byte	0x9f
 2664 0159 00000000 		.4byte	0
 2665 015d 00000000 		.4byte	0
 2666              	.LLST10:
 2667 0161 00000000 		.4byte	.LVL18
 2668 0165 0B000000 		.4byte	.LVL19-1
 2669 0169 0100     		.2byte	0x1
 2670 016b 52       		.byte	0x52
 2671 016c 0B000000 		.4byte	.LVL19-1
 2672 0170 14000000 		.4byte	.LFE9
 2673 0174 0400     		.2byte	0x4
 2674 0176 F3       		.byte	0xf3
 2675 0177 01       		.uleb128 0x1
 2676 0178 52       		.byte	0x52
 2677 0179 9F       		.byte	0x9f
 2678 017a 00000000 		.4byte	0
 2679 017e 00000000 		.4byte	0
ARM GAS  /tmp/ccZ5CNaR.s 			page 48


 2680              	.LLST11:
 2681 0182 00000000 		.4byte	.LVL20
 2682 0186 20000000 		.4byte	.LVL21
 2683 018a 0100     		.2byte	0x1
 2684 018c 50       		.byte	0x50
 2685 018d 20000000 		.4byte	.LVL21
 2686 0191 29000000 		.4byte	.LVL22-1
 2687 0195 0300     		.2byte	0x3
 2688 0197 70       		.byte	0x70
 2689 0198 70       		.sleb128 -16
 2690 0199 9F       		.byte	0x9f
 2691 019a 29000000 		.4byte	.LVL22-1
 2692 019e 2E000000 		.4byte	.LVL23
 2693 01a2 0400     		.2byte	0x4
 2694 01a4 F3       		.byte	0xf3
 2695 01a5 01       		.uleb128 0x1
 2696 01a6 50       		.byte	0x50
 2697 01a7 9F       		.byte	0x9f
 2698 01a8 2E000000 		.4byte	.LVL23
 2699 01ac 32000000 		.4byte	.LVL24
 2700 01b0 0100     		.2byte	0x1
 2701 01b2 50       		.byte	0x50
 2702 01b3 32000000 		.4byte	.LVL24
 2703 01b7 34000000 		.4byte	.LFE11
 2704 01bb 0400     		.2byte	0x4
 2705 01bd F3       		.byte	0xf3
 2706 01be 01       		.uleb128 0x1
 2707 01bf 50       		.byte	0x50
 2708 01c0 9F       		.byte	0x9f
 2709 01c1 00000000 		.4byte	0
 2710 01c5 00000000 		.4byte	0
 2711              	.LLST12:
 2712 01c9 00000000 		.4byte	.LVL20
 2713 01cd 29000000 		.4byte	.LVL22-1
 2714 01d1 0100     		.2byte	0x1
 2715 01d3 51       		.byte	0x51
 2716 01d4 29000000 		.4byte	.LVL22-1
 2717 01d8 2E000000 		.4byte	.LVL23
 2718 01dc 0400     		.2byte	0x4
 2719 01de F3       		.byte	0xf3
 2720 01df 01       		.uleb128 0x1
 2721 01e0 51       		.byte	0x51
 2722 01e1 9F       		.byte	0x9f
 2723 01e2 2E000000 		.4byte	.LVL23
 2724 01e6 34000000 		.4byte	.LFE11
 2725 01ea 0100     		.2byte	0x1
 2726 01ec 51       		.byte	0x51
 2727 01ed 00000000 		.4byte	0
 2728 01f1 00000000 		.4byte	0
 2729              	.LLST13:
 2730 01f5 00000000 		.4byte	.LVL25
 2731 01f9 08000000 		.4byte	.LVL26
 2732 01fd 0100     		.2byte	0x1
 2733 01ff 50       		.byte	0x50
 2734 0200 08000000 		.4byte	.LVL26
 2735 0204 38000000 		.4byte	.LFE13
 2736 0208 0100     		.2byte	0x1
ARM GAS  /tmp/ccZ5CNaR.s 			page 49


 2737 020a 54       		.byte	0x54
 2738 020b 00000000 		.4byte	0
 2739 020f 00000000 		.4byte	0
 2740              	.LLST14:
 2741 0213 00000000 		.4byte	.LVL25
 2742 0217 0A000000 		.4byte	.LVL27
 2743 021b 0100     		.2byte	0x1
 2744 021d 51       		.byte	0x51
 2745 021e 0A000000 		.4byte	.LVL27
 2746 0222 38000000 		.4byte	.LFE13
 2747 0226 0100     		.2byte	0x1
 2748 0228 56       		.byte	0x56
 2749 0229 00000000 		.4byte	0
 2750 022d 00000000 		.4byte	0
 2751              	.LLST15:
 2752 0231 00000000 		.4byte	.LVL25
 2753 0235 0D000000 		.4byte	.LVL28-1
 2754 0239 0100     		.2byte	0x1
 2755 023b 52       		.byte	0x52
 2756 023c 0D000000 		.4byte	.LVL28-1
 2757 0240 38000000 		.4byte	.LFE13
 2758 0244 0400     		.2byte	0x4
 2759 0246 F3       		.byte	0xf3
 2760 0247 01       		.uleb128 0x1
 2761 0248 52       		.byte	0x52
 2762 0249 9F       		.byte	0x9f
 2763 024a 00000000 		.4byte	0
 2764 024e 00000000 		.4byte	0
 2765              	.LLST16:
 2766 0252 0E000000 		.4byte	.LVL28
 2767 0256 24000000 		.4byte	.LVL29
 2768 025a 0100     		.2byte	0x1
 2769 025c 50       		.byte	0x50
 2770 025d 24000000 		.4byte	.LVL29
 2771 0261 30000000 		.4byte	.LVL32
 2772 0265 0100     		.2byte	0x1
 2773 0267 55       		.byte	0x55
 2774 0268 30000000 		.4byte	.LVL32
 2775 026c 38000000 		.4byte	.LFE13
 2776 0270 0100     		.2byte	0x1
 2777 0272 50       		.byte	0x50
 2778 0273 00000000 		.4byte	0
 2779 0277 00000000 		.4byte	0
 2780              	.LLST17:
 2781 027b 00000000 		.4byte	.LVL33
 2782 027f 0B000000 		.4byte	.LVL34-1
 2783 0283 0100     		.2byte	0x1
 2784 0285 50       		.byte	0x50
 2785 0286 0B000000 		.4byte	.LVL34-1
 2786 028a 14000000 		.4byte	.LFE12
 2787 028e 0400     		.2byte	0x4
 2788 0290 F3       		.byte	0xf3
 2789 0291 01       		.uleb128 0x1
 2790 0292 50       		.byte	0x50
 2791 0293 9F       		.byte	0x9f
 2792 0294 00000000 		.4byte	0
 2793 0298 00000000 		.4byte	0
ARM GAS  /tmp/ccZ5CNaR.s 			page 50


 2794              	.LLST18:
 2795 029c 00000000 		.4byte	.LVL33
 2796 02a0 0B000000 		.4byte	.LVL34-1
 2797 02a4 0100     		.2byte	0x1
 2798 02a6 51       		.byte	0x51
 2799 02a7 0B000000 		.4byte	.LVL34-1
 2800 02ab 14000000 		.4byte	.LFE12
 2801 02af 0400     		.2byte	0x4
 2802 02b1 F3       		.byte	0xf3
 2803 02b2 01       		.uleb128 0x1
 2804 02b3 51       		.byte	0x51
 2805 02b4 9F       		.byte	0x9f
 2806 02b5 00000000 		.4byte	0
 2807 02b9 00000000 		.4byte	0
 2808              	.LLST19:
 2809 02bd 00000000 		.4byte	.LVL33
 2810 02c1 0B000000 		.4byte	.LVL34-1
 2811 02c5 0100     		.2byte	0x1
 2812 02c7 52       		.byte	0x52
 2813 02c8 0B000000 		.4byte	.LVL34-1
 2814 02cc 14000000 		.4byte	.LFE12
 2815 02d0 0400     		.2byte	0x4
 2816 02d2 F3       		.byte	0xf3
 2817 02d3 01       		.uleb128 0x1
 2818 02d4 52       		.byte	0x52
 2819 02d5 9F       		.byte	0x9f
 2820 02d6 00000000 		.4byte	0
 2821 02da 00000000 		.4byte	0
 2822              	.LLST20:
 2823 02de 00000000 		.4byte	.LVL35
 2824 02e2 22000000 		.4byte	.LVL36
 2825 02e6 0100     		.2byte	0x1
 2826 02e8 50       		.byte	0x50
 2827 02e9 22000000 		.4byte	.LVL36
 2828 02ed 25000000 		.4byte	.LVL37-1
 2829 02f1 0300     		.2byte	0x3
 2830 02f3 70       		.byte	0x70
 2831 02f4 70       		.sleb128 -16
 2832 02f5 9F       		.byte	0x9f
 2833 02f6 25000000 		.4byte	.LVL37-1
 2834 02fa 2A000000 		.4byte	.LVL38
 2835 02fe 0400     		.2byte	0x4
 2836 0300 F3       		.byte	0xf3
 2837 0301 01       		.uleb128 0x1
 2838 0302 50       		.byte	0x50
 2839 0303 9F       		.byte	0x9f
 2840 0304 2A000000 		.4byte	.LVL38
 2841 0308 2E000000 		.4byte	.LVL39
 2842 030c 0100     		.2byte	0x1
 2843 030e 50       		.byte	0x50
 2844 030f 2E000000 		.4byte	.LVL39
 2845 0313 30000000 		.4byte	.LFE14
 2846 0317 0400     		.2byte	0x4
 2847 0319 F3       		.byte	0xf3
 2848 031a 01       		.uleb128 0x1
 2849 031b 50       		.byte	0x50
 2850 031c 9F       		.byte	0x9f
ARM GAS  /tmp/ccZ5CNaR.s 			page 51


 2851 031d 00000000 		.4byte	0
 2852 0321 00000000 		.4byte	0
 2853              	.LLST21:
 2854 0325 00000000 		.4byte	.LVL35
 2855 0329 25000000 		.4byte	.LVL37-1
 2856 032d 0100     		.2byte	0x1
 2857 032f 51       		.byte	0x51
 2858 0330 25000000 		.4byte	.LVL37-1
 2859 0334 2A000000 		.4byte	.LVL38
 2860 0338 0400     		.2byte	0x4
 2861 033a F3       		.byte	0xf3
 2862 033b 01       		.uleb128 0x1
 2863 033c 51       		.byte	0x51
 2864 033d 9F       		.byte	0x9f
 2865 033e 2A000000 		.4byte	.LVL38
 2866 0342 30000000 		.4byte	.LFE14
 2867 0346 0100     		.2byte	0x1
 2868 0348 51       		.byte	0x51
 2869 0349 00000000 		.4byte	0
 2870 034d 00000000 		.4byte	0
 2871              	.LLST22:
 2872 0351 00000000 		.4byte	.LVL40
 2873 0355 08000000 		.4byte	.LVL41
 2874 0359 0100     		.2byte	0x1
 2875 035b 50       		.byte	0x50
 2876 035c 08000000 		.4byte	.LVL41
 2877 0360 38000000 		.4byte	.LFE16
 2878 0364 0100     		.2byte	0x1
 2879 0366 54       		.byte	0x54
 2880 0367 00000000 		.4byte	0
 2881 036b 00000000 		.4byte	0
 2882              	.LLST23:
 2883 036f 00000000 		.4byte	.LVL40
 2884 0373 0A000000 		.4byte	.LVL42
 2885 0377 0100     		.2byte	0x1
 2886 0379 51       		.byte	0x51
 2887 037a 0A000000 		.4byte	.LVL42
 2888 037e 38000000 		.4byte	.LFE16
 2889 0382 0100     		.2byte	0x1
 2890 0384 56       		.byte	0x56
 2891 0385 00000000 		.4byte	0
 2892 0389 00000000 		.4byte	0
 2893              	.LLST24:
 2894 038d 00000000 		.4byte	.LVL40
 2895 0391 0D000000 		.4byte	.LVL43-1
 2896 0395 0100     		.2byte	0x1
 2897 0397 52       		.byte	0x52
 2898 0398 0D000000 		.4byte	.LVL43-1
 2899 039c 38000000 		.4byte	.LFE16
 2900 03a0 0400     		.2byte	0x4
 2901 03a2 F3       		.byte	0xf3
 2902 03a3 01       		.uleb128 0x1
 2903 03a4 52       		.byte	0x52
 2904 03a5 9F       		.byte	0x9f
 2905 03a6 00000000 		.4byte	0
 2906 03aa 00000000 		.4byte	0
 2907              	.LLST25:
ARM GAS  /tmp/ccZ5CNaR.s 			page 52


 2908 03ae 0E000000 		.4byte	.LVL43
 2909 03b2 28000000 		.4byte	.LVL44
 2910 03b6 0100     		.2byte	0x1
 2911 03b8 50       		.byte	0x50
 2912 03b9 28000000 		.4byte	.LVL44
 2913 03bd 38000000 		.4byte	.LFE16
 2914 03c1 0100     		.2byte	0x1
 2915 03c3 55       		.byte	0x55
 2916 03c4 00000000 		.4byte	0
 2917 03c8 00000000 		.4byte	0
 2918              	.LLST26:
 2919 03cc 00000000 		.4byte	.LVL47
 2920 03d0 0B000000 		.4byte	.LVL48-1
 2921 03d4 0100     		.2byte	0x1
 2922 03d6 50       		.byte	0x50
 2923 03d7 0B000000 		.4byte	.LVL48-1
 2924 03db 14000000 		.4byte	.LFE15
 2925 03df 0400     		.2byte	0x4
 2926 03e1 F3       		.byte	0xf3
 2927 03e2 01       		.uleb128 0x1
 2928 03e3 50       		.byte	0x50
 2929 03e4 9F       		.byte	0x9f
 2930 03e5 00000000 		.4byte	0
 2931 03e9 00000000 		.4byte	0
 2932              	.LLST27:
 2933 03ed 00000000 		.4byte	.LVL47
 2934 03f1 0B000000 		.4byte	.LVL48-1
 2935 03f5 0100     		.2byte	0x1
 2936 03f7 51       		.byte	0x51
 2937 03f8 0B000000 		.4byte	.LVL48-1
 2938 03fc 14000000 		.4byte	.LFE15
 2939 0400 0400     		.2byte	0x4
 2940 0402 F3       		.byte	0xf3
 2941 0403 01       		.uleb128 0x1
 2942 0404 51       		.byte	0x51
 2943 0405 9F       		.byte	0x9f
 2944 0406 00000000 		.4byte	0
 2945 040a 00000000 		.4byte	0
 2946              	.LLST28:
 2947 040e 00000000 		.4byte	.LVL47
 2948 0412 0B000000 		.4byte	.LVL48-1
 2949 0416 0100     		.2byte	0x1
 2950 0418 52       		.byte	0x52
 2951 0419 0B000000 		.4byte	.LVL48-1
 2952 041d 14000000 		.4byte	.LFE15
 2953 0421 0400     		.2byte	0x4
 2954 0423 F3       		.byte	0xf3
 2955 0424 01       		.uleb128 0x1
 2956 0425 52       		.byte	0x52
 2957 0426 9F       		.byte	0x9f
 2958 0427 00000000 		.4byte	0
 2959 042b 00000000 		.4byte	0
 2960              	.LLST29:
 2961 042f 00000000 		.4byte	.LVL49
 2962 0433 22000000 		.4byte	.LVL50
 2963 0437 0100     		.2byte	0x1
 2964 0439 50       		.byte	0x50
ARM GAS  /tmp/ccZ5CNaR.s 			page 53


 2965 043a 22000000 		.4byte	.LVL50
 2966 043e 2B000000 		.4byte	.LVL51-1
 2967 0442 0300     		.2byte	0x3
 2968 0444 70       		.byte	0x70
 2969 0445 64       		.sleb128 -28
 2970 0446 9F       		.byte	0x9f
 2971 0447 2B000000 		.4byte	.LVL51-1
 2972 044b 30000000 		.4byte	.LVL52
 2973 044f 0400     		.2byte	0x4
 2974 0451 F3       		.byte	0xf3
 2975 0452 01       		.uleb128 0x1
 2976 0453 50       		.byte	0x50
 2977 0454 9F       		.byte	0x9f
 2978 0455 30000000 		.4byte	.LVL52
 2979 0459 34000000 		.4byte	.LVL53
 2980 045d 0100     		.2byte	0x1
 2981 045f 50       		.byte	0x50
 2982 0460 34000000 		.4byte	.LVL53
 2983 0464 36000000 		.4byte	.LFE17
 2984 0468 0400     		.2byte	0x4
 2985 046a F3       		.byte	0xf3
 2986 046b 01       		.uleb128 0x1
 2987 046c 50       		.byte	0x50
 2988 046d 9F       		.byte	0x9f
 2989 046e 00000000 		.4byte	0
 2990 0472 00000000 		.4byte	0
 2991              	.LLST30:
 2992 0476 00000000 		.4byte	.LVL49
 2993 047a 2B000000 		.4byte	.LVL51-1
 2994 047e 0100     		.2byte	0x1
 2995 0480 51       		.byte	0x51
 2996 0481 2B000000 		.4byte	.LVL51-1
 2997 0485 30000000 		.4byte	.LVL52
 2998 0489 0400     		.2byte	0x4
 2999 048b F3       		.byte	0xf3
 3000 048c 01       		.uleb128 0x1
 3001 048d 51       		.byte	0x51
 3002 048e 9F       		.byte	0x9f
 3003 048f 30000000 		.4byte	.LVL52
 3004 0493 36000000 		.4byte	.LFE17
 3005 0497 0100     		.2byte	0x1
 3006 0499 51       		.byte	0x51
 3007 049a 00000000 		.4byte	0
 3008 049e 00000000 		.4byte	0
 3009              		.section	.debug_aranges,"",%progbits
 3010 0000 6C000000 		.4byte	0x6c
 3011 0004 0200     		.2byte	0x2
 3012 0006 00000000 		.4byte	.Ldebug_info0
 3013 000a 04       		.byte	0x4
 3014 000b 00       		.byte	0
 3015 000c 0000     		.2byte	0
 3016 000e 0000     		.2byte	0
 3017 0010 00000000 		.4byte	.LFB7
 3018 0014 28000000 		.4byte	.LFE7-.LFB7
 3019 0018 00000000 		.4byte	.LFB8
 3020 001c 32000000 		.4byte	.LFE8-.LFB8
 3021 0020 00000000 		.4byte	.LFB10
ARM GAS  /tmp/ccZ5CNaR.s 			page 54


 3022 0024 36000000 		.4byte	.LFE10-.LFB10
 3023 0028 00000000 		.4byte	.LFB9
 3024 002c 14000000 		.4byte	.LFE9-.LFB9
 3025 0030 00000000 		.4byte	.LFB11
 3026 0034 34000000 		.4byte	.LFE11-.LFB11
 3027 0038 00000000 		.4byte	.LFB13
 3028 003c 38000000 		.4byte	.LFE13-.LFB13
 3029 0040 00000000 		.4byte	.LFB12
 3030 0044 14000000 		.4byte	.LFE12-.LFB12
 3031 0048 00000000 		.4byte	.LFB14
 3032 004c 30000000 		.4byte	.LFE14-.LFB14
 3033 0050 00000000 		.4byte	.LFB16
 3034 0054 38000000 		.4byte	.LFE16-.LFB16
 3035 0058 00000000 		.4byte	.LFB15
 3036 005c 14000000 		.4byte	.LFE15-.LFB15
 3037 0060 00000000 		.4byte	.LFB17
 3038 0064 36000000 		.4byte	.LFE17-.LFB17
 3039 0068 00000000 		.4byte	0
 3040 006c 00000000 		.4byte	0
 3041              		.section	.debug_ranges,"",%progbits
 3042              	.Ldebug_ranges0:
 3043 0000 02000000 		.4byte	.LBB2
 3044 0004 04000000 		.4byte	.LBE2
 3045 0008 06000000 		.4byte	.LBB3
 3046 000c 0A000000 		.4byte	.LBE3
 3047 0010 00000000 		.4byte	0
 3048 0014 00000000 		.4byte	0
 3049 0018 00000000 		.4byte	.LFB7
 3050 001c 28000000 		.4byte	.LFE7
 3051 0020 00000000 		.4byte	.LFB8
 3052 0024 32000000 		.4byte	.LFE8
 3053 0028 00000000 		.4byte	.LFB10
 3054 002c 36000000 		.4byte	.LFE10
 3055 0030 00000000 		.4byte	.LFB9
 3056 0034 14000000 		.4byte	.LFE9
 3057 0038 00000000 		.4byte	.LFB11
 3058 003c 34000000 		.4byte	.LFE11
 3059 0040 00000000 		.4byte	.LFB13
 3060 0044 38000000 		.4byte	.LFE13
 3061 0048 00000000 		.4byte	.LFB12
 3062 004c 14000000 		.4byte	.LFE12
 3063 0050 00000000 		.4byte	.LFB14
 3064 0054 30000000 		.4byte	.LFE14
 3065 0058 00000000 		.4byte	.LFB16
 3066 005c 38000000 		.4byte	.LFE16
 3067 0060 00000000 		.4byte	.LFB15
 3068 0064 14000000 		.4byte	.LFE15
 3069 0068 00000000 		.4byte	.LFB17
 3070 006c 36000000 		.4byte	.LFE17
 3071 0070 00000000 		.4byte	0
 3072 0074 00000000 		.4byte	0
 3073              		.section	.debug_line,"",%progbits
 3074              	.Ldebug_line0:
 3075 0000 54020000 		.section	.debug_str,"MS",%progbits,1
 3075      02002001 
 3075      00000201 
 3075      FB0E0D00 
ARM GAS  /tmp/ccZ5CNaR.s 			page 55


 3075      01010101 
 3076              	.LASF48:
 3077 0000 696E7463 		.ascii	"intctx\000"
 3077      747800
 3078              	.LASF40:
 3079 0007 705F6D73 		.ascii	"p_msg\000"
 3079      6700
 3080              	.LASF90:
 3081 000d 63685365 		.ascii	"chSemSignalI\000"
 3081      6D536967 
 3081      6E616C49 
 3081      00
 3082              	.LASF65:
 3083 001a 7264796D 		.ascii	"rdymsg\000"
 3083      736700
 3084              	.LASF5:
 3085 0021 5F5F7569 		.ascii	"__uint8_t\000"
 3085      6E74385F 
 3085      7400
 3086              	.LASF75:
 3087 002b 63684D42 		.ascii	"chMBPostI\000"
 3087      506F7374 
 3087      4900
 3088              	.LASF73:
 3089 0035 63684D42 		.ascii	"chMBPostS\000"
 3089      506F7374 
 3089      5300
 3090              	.LASF64:
 3091 003f 4D61696C 		.ascii	"Mailbox\000"
 3091      626F7800 
 3092              	.LASF78:
 3093 0047 63684D42 		.ascii	"chMBPostAheadI\000"
 3093      506F7374 
 3093      41686561 
 3093      644900
 3094              	.LASF11:
 3095 0056 6C6F6E67 		.ascii	"long long unsigned int\000"
 3095      206C6F6E 
 3095      6720756E 
 3095      7369676E 
 3095      65642069 
 3096              	.LASF66:
 3097 006d 65786974 		.ascii	"exitcode\000"
 3097      636F6465 
 3097      00
 3098              	.LASF76:
 3099 0076 63684D42 		.ascii	"chMBPostAheadS\000"
 3099      506F7374 
 3099      41686561 
 3099      645300
 3100              	.LASF60:
 3101 0085 6D625F77 		.ascii	"mb_wrptr\000"
 3101      72707472 
 3101      00
 3102              	.LASF28:
 3103 008e 705F7072 		.ascii	"p_prio\000"
 3103      696F00
ARM GAS  /tmp/ccZ5CNaR.s 			page 56


 3104              	.LASF10:
 3105 0095 6C6F6E67 		.ascii	"long long int\000"
 3105      206C6F6E 
 3105      6720696E 
 3105      7400
 3106              	.LASF1:
 3107 00a3 7369676E 		.ascii	"signed char\000"
 3107      65642063 
 3107      68617200 
 3108              	.LASF44:
 3109 00af 705F6D70 		.ascii	"p_mpool\000"
 3109      6F6F6C00 
 3110              	.LASF55:
 3111 00b7 6D5F7175 		.ascii	"m_queue\000"
 3111      65756500 
 3112              	.LASF19:
 3113 00bf 74736C69 		.ascii	"tslices_t\000"
 3113      6365735F 
 3113      7400
 3114              	.LASF7:
 3115 00c9 6C6F6E67 		.ascii	"long int\000"
 3115      20696E74 
 3115      00
 3116              	.LASF17:
 3117 00d2 74737461 		.ascii	"tstate_t\000"
 3117      74655F74 
 3117      00
 3118              	.LASF30:
 3119 00db 705F6E65 		.ascii	"p_newer\000"
 3119      77657200 
 3120              	.LASF52:
 3121 00e3 735F7175 		.ascii	"s_queue\000"
 3121      65756500 
 3122              	.LASF86:
 3123 00eb 2E2E2F2E 		.ascii	"../../os/kernel/src/chmboxes.c\000"
 3123      2E2F6F73 
 3123      2F6B6572 
 3123      6E656C2F 
 3123      7372632F 
 3124              	.LASF88:
 3125 010a 63685363 		.ascii	"chSchRescheduleS\000"
 3125      68526573 
 3125      63686564 
 3125      756C6553 
 3125      00
 3126              	.LASF8:
 3127 011b 5F5F7569 		.ascii	"__uint32_t\000"
 3127      6E743332 
 3127      5F7400
 3128              	.LASF47:
 3129 0126 72656761 		.ascii	"regarm_t\000"
 3129      726D5F74 
 3129      00
 3130              	.LASF24:
 3131 012f 636E745F 		.ascii	"cnt_t\000"
 3131      7400
 3132              	.LASF0:
ARM GAS  /tmp/ccZ5CNaR.s 			page 57


 3133 0135 756E7369 		.ascii	"unsigned int\000"
 3133      676E6564 
 3133      20696E74 
 3133      00
 3134              	.LASF70:
 3135 0142 63684D42 		.ascii	"chMBInit\000"
 3135      496E6974 
 3135      00
 3136              	.LASF9:
 3137 014b 6C6F6E67 		.ascii	"long unsigned int\000"
 3137      20756E73 
 3137      69676E65 
 3137      6420696E 
 3137      7400
 3138              	.LASF63:
 3139 015d 6D625F65 		.ascii	"mb_emptysem\000"
 3139      6D707479 
 3139      73656D00 
 3140              	.LASF53:
 3141 0169 735F636E 		.ascii	"s_cnt\000"
 3141      7400
 3142              	.LASF49:
 3143 016f 636F6E74 		.ascii	"context\000"
 3143      65787400 
 3144              	.LASF4:
 3145 0177 73686F72 		.ascii	"short unsigned int\000"
 3145      7420756E 
 3145      7369676E 
 3145      65642069 
 3145      6E7400
 3146              	.LASF82:
 3147 018a 63684D42 		.ascii	"chMBFetchI\000"
 3147      46657463 
 3147      684900
 3148              	.LASF21:
 3149 0195 6D73675F 		.ascii	"msg_t\000"
 3149      7400
 3150              	.LASF79:
 3151 019b 63684D42 		.ascii	"chMBFetchS\000"
 3151      46657463 
 3151      685300
 3152              	.LASF16:
 3153 01a6 746D6F64 		.ascii	"tmode_t\000"
 3153      655F7400 
 3154              	.LASF46:
 3155 01ae 54687265 		.ascii	"ThreadsList\000"
 3155      6164734C 
 3155      69737400 
 3156              	.LASF22:
 3157 01ba 6576656E 		.ascii	"eventmask_t\000"
 3157      746D6173 
 3157      6B5F7400 
 3158              	.LASF54:
 3159 01c6 4D757465 		.ascii	"Mutex\000"
 3159      7800
 3160              	.LASF80:
 3161 01cc 6D736770 		.ascii	"msgp\000"
ARM GAS  /tmp/ccZ5CNaR.s 			page 58


 3161      00
 3162              	.LASF50:
 3163 01d1 73697A65 		.ascii	"sizetype\000"
 3163      74797065 
 3163      00
 3164              	.LASF61:
 3165 01da 6D625F72 		.ascii	"mb_rdptr\000"
 3165      64707472 
 3165      00
 3166              	.LASF71:
 3167 01e3 63684D42 		.ascii	"chMBReset\000"
 3167      52657365 
 3167      7400
 3168              	.LASF31:
 3169 01ed 705F6F6C 		.ascii	"p_older\000"
 3169      64657200 
 3170              	.LASF45:
 3171 01f5 54687265 		.ascii	"ThreadsQueue\000"
 3171      61647351 
 3171      75657565 
 3171      00
 3172              	.LASF58:
 3173 0202 6D625F62 		.ascii	"mb_buffer\000"
 3173      75666665 
 3173      7200
 3174              	.LASF72:
 3175 020c 74696D65 		.ascii	"time\000"
 3175      00
 3176              	.LASF18:
 3177 0211 74726566 		.ascii	"trefs_t\000"
 3177      735F7400 
 3178              	.LASF27:
 3179 0219 705F7072 		.ascii	"p_prev\000"
 3179      657600
 3180              	.LASF20:
 3181 0220 74707269 		.ascii	"tprio_t\000"
 3181      6F5F7400 
 3182              	.LASF85:
 3183 0228 474E5520 		.ascii	"GNU C 4.8.3 -mcpu=cortex-m3 -mno-thumb-interwork -m"
 3183      4320342E 
 3183      382E3320 
 3183      2D6D6370 
 3183      753D636F 
 3184 025b 7468756D 		.ascii	"thumb -ggdb -O2 -fomit-frame-pointer -ffunction-sec"
 3184      62202D67 
 3184      67646220 
 3184      2D4F3220 
 3184      2D666F6D 
 3185 028e 74696F6E 		.ascii	"tions -fdata-sections -fno-common\000"
 3185      73202D66 
 3185      64617461 
 3185      2D736563 
 3185      74696F6E 
 3186              	.LASF15:
 3187 02b0 5F426F6F 		.ascii	"_Bool\000"
 3187      6C00
 3188              	.LASF13:
ARM GAS  /tmp/ccZ5CNaR.s 			page 59


 3189 02b6 696E7433 		.ascii	"int32_t\000"
 3189      325F7400 
 3190              	.LASF2:
 3191 02be 756E7369 		.ascii	"unsigned char\000"
 3191      676E6564 
 3191      20636861 
 3191      7200
 3192              	.LASF59:
 3193 02cc 6D625F74 		.ascii	"mb_top\000"
 3193      6F7000
 3194              	.LASF42:
 3195 02d3 705F6D74 		.ascii	"p_mtxlist\000"
 3195      786C6973 
 3195      7400
 3196              	.LASF3:
 3197 02dd 73686F72 		.ascii	"short int\000"
 3197      7420696E 
 3197      7400
 3198              	.LASF33:
 3199 02e7 705F7374 		.ascii	"p_state\000"
 3199      61746500 
 3200              	.LASF36:
 3201 02ef 705F7072 		.ascii	"p_preempt\000"
 3201      65656D70 
 3201      7400
 3202              	.LASF68:
 3203 02f9 65776D61 		.ascii	"ewmask\000"
 3203      736B00
 3204              	.LASF26:
 3205 0300 705F6E65 		.ascii	"p_next\000"
 3205      787400
 3206              	.LASF34:
 3207 0307 705F666C 		.ascii	"p_flags\000"
 3207      61677300 
 3208              	.LASF74:
 3209 030f 63684D42 		.ascii	"chMBPost\000"
 3209      506F7374 
 3209      00
 3210              	.LASF25:
 3211 0318 54687265 		.ascii	"Thread\000"
 3211      616400
 3212              	.LASF41:
 3213 031f 705F6570 		.ascii	"p_epending\000"
 3213      656E6469 
 3213      6E6700
 3214              	.LASF14:
 3215 032a 75696E74 		.ascii	"uint32_t\000"
 3215      33325F74 
 3215      00
 3216              	.LASF69:
 3217 0333 63686172 		.ascii	"char\000"
 3217      00
 3218              	.LASF89:
 3219 0338 63685365 		.ascii	"chSemWaitTimeoutS\000"
 3219      6D576169 
 3219      7454696D 
 3219      656F7574 
ARM GAS  /tmp/ccZ5CNaR.s 			page 60


 3219      5300
 3220              	.LASF57:
 3221 034a 6D5F6E65 		.ascii	"m_next\000"
 3221      787400
 3222              	.LASF23:
 3223 0351 73797374 		.ascii	"systime_t\000"
 3223      696D655F 
 3223      7400
 3224              	.LASF43:
 3225 035b 705F7265 		.ascii	"p_realprio\000"
 3225      616C7072 
 3225      696F00
 3226              	.LASF6:
 3227 0366 5F5F696E 		.ascii	"__int32_t\000"
 3227      7433325F 
 3227      7400
 3228              	.LASF37:
 3229 0370 705F7469 		.ascii	"p_time\000"
 3229      6D6500
 3230              	.LASF77:
 3231 0377 63684D42 		.ascii	"chMBPostAhead\000"
 3231      506F7374 
 3231      41686561 
 3231      6400
 3232              	.LASF87:
 3233 0385 2F686F6D 		.ascii	"/home/development/Projects/openpv/TF_OSC_ChibiOS/jo"
 3233      652F6465 
 3233      76656C6F 
 3233      706D656E 
 3233      742F5072 
 3234 03b8 6D626C6F 		.ascii	"mblo/BASIC\000"
 3234      2F424153 
 3234      494300
 3235              	.LASF39:
 3236 03c3 705F6D73 		.ascii	"p_msgqueue\000"
 3236      67717565 
 3236      756500
 3237              	.LASF81:
 3238 03ce 63684D42 		.ascii	"chMBFetch\000"
 3238      46657463 
 3238      6800
 3239              	.LASF51:
 3240 03d8 53656D61 		.ascii	"Semaphore\000"
 3240      70686F72 
 3240      6500
 3241              	.LASF62:
 3242 03e2 6D625F66 		.ascii	"mb_fullsem\000"
 3242      756C6C73 
 3242      656D00
 3243              	.LASF35:
 3244 03ed 705F7265 		.ascii	"p_refs\000"
 3244      667300
 3245              	.LASF84:
 3246 03f4 63685365 		.ascii	"chSemResetI\000"
 3246      6D526573 
 3246      65744900 
 3247              	.LASF12:
ARM GAS  /tmp/ccZ5CNaR.s 			page 61


 3248 0400 75696E74 		.ascii	"uint8_t\000"
 3248      385F7400 
 3249              	.LASF67:
 3250 0408 77746F62 		.ascii	"wtobjp\000"
 3250      6A7000
 3251              	.LASF32:
 3252 040f 705F6E61 		.ascii	"p_name\000"
 3252      6D6500
 3253              	.LASF56:
 3254 0416 6D5F6F77 		.ascii	"m_owner\000"
 3254      6E657200 
 3255              	.LASF29:
 3256 041e 705F6374 		.ascii	"p_ctx\000"
 3256      7800
 3257              	.LASF38:
 3258 0424 705F7761 		.ascii	"p_waiting\000"
 3258      6974696E 
 3258      6700
 3259              	.LASF83:
 3260 042e 63685365 		.ascii	"chSemInit\000"
 3260      6D496E69 
 3260      7400
 3261              		.ident	"GCC: (4.8.3-18ubuntu2+12) 4.8.3"
ARM GAS  /tmp/ccZ5CNaR.s 			page 62


DEFINED SYMBOLS
                            *ABS*:00000000 chmboxes.c
     /tmp/ccZ5CNaR.s:19     .text.chMBInit:00000000 $t
     /tmp/ccZ5CNaR.s:24     .text.chMBInit:00000000 chMBInit
     /tmp/ccZ5CNaR.s:67     .text.chMBReset:00000000 $t
     /tmp/ccZ5CNaR.s:72     .text.chMBReset:00000000 chMBReset
     /tmp/ccZ5CNaR.s:133    .text.chMBPostS:00000000 $t
     /tmp/ccZ5CNaR.s:138    .text.chMBPostS:00000000 chMBPostS
     /tmp/ccZ5CNaR.s:199    .text.chMBPost:00000000 $t
     /tmp/ccZ5CNaR.s:204    .text.chMBPost:00000000 chMBPost
     /tmp/ccZ5CNaR.s:240    .text.chMBPostI:00000000 $t
     /tmp/ccZ5CNaR.s:245    .text.chMBPostI:00000000 chMBPostI
     /tmp/ccZ5CNaR.s:303    .text.chMBPostAheadS:00000000 $t
     /tmp/ccZ5CNaR.s:308    .text.chMBPostAheadS:00000000 chMBPostAheadS
     /tmp/ccZ5CNaR.s:367    .text.chMBPostAhead:00000000 $t
     /tmp/ccZ5CNaR.s:372    .text.chMBPostAhead:00000000 chMBPostAhead
     /tmp/ccZ5CNaR.s:408    .text.chMBPostAheadI:00000000 $t
     /tmp/ccZ5CNaR.s:413    .text.chMBPostAheadI:00000000 chMBPostAheadI
     /tmp/ccZ5CNaR.s:469    .text.chMBFetchS:00000000 $t
     /tmp/ccZ5CNaR.s:474    .text.chMBFetchS:00000000 chMBFetchS
     /tmp/ccZ5CNaR.s:536    .text.chMBFetch:00000000 $t
     /tmp/ccZ5CNaR.s:541    .text.chMBFetch:00000000 chMBFetch
     /tmp/ccZ5CNaR.s:577    .text.chMBFetchI:00000000 $t
     /tmp/ccZ5CNaR.s:582    .text.chMBFetchI:00000000 chMBFetchI
                     .debug_frame:00000010 $d

UNDEFINED SYMBOLS
chSemInit
chSemResetI
chSchRescheduleS
chSemWaitTimeoutS
chSemSignalI
