ARM GAS  /tmp/cc0YdJHd.s 			page 1


   1              		.syntax unified
   2              		.cpu cortex-m3
   3              		.fpu softvfp
   4              		.eabi_attribute 20, 1
   5              		.eabi_attribute 21, 1
   6              		.eabi_attribute 23, 3
   7              		.eabi_attribute 24, 1
   8              		.eabi_attribute 25, 1
   9              		.eabi_attribute 26, 1
  10              		.eabi_attribute 30, 2
  11              		.eabi_attribute 34, 1
  12              		.eabi_attribute 18, 4
  13              		.thumb
  14              		.file	"chmemcore.c"
  15              		.text
  16              	.Ltext0:
  17              		.cfi_sections	.debug_frame
  18              		.section	.text._core_init,"ax",%progbits
  19              		.align	2
  20              		.global	_core_init
  21              		.thumb
  22              		.thumb_func
  23              		.type	_core_init, %function
  24              	_core_init:
  25              	.LFB7:
  26              		.file 1 "../../os/kernel/src/chmemcore.c"
  27              		.loc 1 66 0
  28              		.cfi_startproc
  29              		@ args = 0, pretend = 0, frame = 0
  30              		@ frame_needed = 0, uses_anonymous_args = 0
  31              		@ link register save eliminated.
  32              		.loc 1 70 0
  33 0000 0548     		ldr	r0, .L2
  34              		.loc 1 71 0
  35 0002 064A     		ldr	r2, .L2+4
  36              		.loc 1 70 0
  37 0004 0649     		ldr	r1, .L2+8
  38              		.loc 1 71 0
  39 0006 074B     		ldr	r3, .L2+12
  40              		.loc 1 70 0
  41 0008 20F00700 		bic	r0, r0, #7
  42              		.loc 1 71 0
  43 000c 22F00702 		bic	r2, r2, #7
  44              		.loc 1 70 0
  45 0010 0860     		str	r0, [r1]
  46              		.loc 1 71 0
  47 0012 1A60     		str	r2, [r3]
  48 0014 7047     		bx	lr
  49              	.L3:
  50 0016 00BF     		.align	2
  51              	.L2:
  52 0018 07000000 		.word	__heap_base__+7
  53 001c 00000000 		.word	__heap_end__
  54 0020 00000000 		.word	.LANCHOR0
  55 0024 00000000 		.word	.LANCHOR1
  56              		.cfi_endproc
  57              	.LFE7:
ARM GAS  /tmp/cc0YdJHd.s 			page 2


  58              		.size	_core_init, .-_core_init
  59              		.section	.text.chCoreAlloc,"ax",%progbits
  60              		.align	2
  61              		.global	chCoreAlloc
  62              		.thumb
  63              		.thumb_func
  64              		.type	chCoreAlloc, %function
  65              	chCoreAlloc:
  66              	.LFB8:
  67              		.loc 1 91 0
  68              		.cfi_startproc
  69              		@ args = 0, pretend = 0, frame = 0
  70              		@ frame_needed = 0, uses_anonymous_args = 0
  71              		@ link register save eliminated.
  72              	.LVL0:
  73              	.LBB6:
  74              		.loc 1 94 0
  75 0000 2023     		movs	r3, #32
  76              	@ 94 "../../os/kernel/src/chmemcore.c" 1
  77 0002 83F31188 		msr     BASEPRI, r3
  78              	@ 0 "" 2
  79              	.LVL1:
  80              		.thumb
  81              	.LBE6:
  82              	.LBB7:
  83              	.LBB8:
  84              		.loc 1 118 0
  85 0006 094A     		ldr	r2, .L7
  86 0008 0949     		ldr	r1, .L7+4
  87 000a 1368     		ldr	r3, [r2]
  88 000c 0968     		ldr	r1, [r1]
  89              		.loc 1 117 0
  90 000e 0730     		adds	r0, r0, #7
  91              	.LVL2:
  92 0010 20F00700 		bic	r0, r0, #7
  93              	.LVL3:
  94              		.loc 1 118 0
  95 0014 C91A     		subs	r1, r1, r3
  96 0016 8842     		cmp	r0, r1
  97              	.LVL4:
  98              		.loc 1 121 0
  99 0018 9BBF     		ittet	ls
 100 001a C018     		addls	r0, r0, r3
 101              	.LVL5:
 102 001c 1060     		strls	r0, [r2]
 103              		.loc 1 119 0
 104 001e 0020     		movhi	r0, #0
 105              		.loc 1 122 0
 106 0020 1846     		movls	r0, r3
 107              	.LBE8:
 108              	.LBE7:
 109              	.LBB9:
 110              		.loc 1 96 0
 111 0022 0023     		movs	r3, #0
 112              	.LVL6:
 113              	@ 96 "../../os/kernel/src/chmemcore.c" 1
 114 0024 83F31188 		msr     BASEPRI, r3
ARM GAS  /tmp/cc0YdJHd.s 			page 3


 115              	@ 0 "" 2
 116              		.thumb
 117              	.LBE9:
 118              		.loc 1 98 0
 119 0028 7047     		bx	lr
 120              	.L8:
 121 002a 00BF     		.align	2
 122              	.L7:
 123 002c 00000000 		.word	.LANCHOR0
 124 0030 00000000 		.word	.LANCHOR1
 125              		.cfi_endproc
 126              	.LFE8:
 127              		.size	chCoreAlloc, .-chCoreAlloc
 128              		.section	.text.chCoreAllocI,"ax",%progbits
 129              		.align	2
 130              		.global	chCoreAllocI
 131              		.thumb
 132              		.thumb_func
 133              		.type	chCoreAllocI, %function
 134              	chCoreAllocI:
 135              	.LFB9:
 136              		.loc 1 112 0
 137              		.cfi_startproc
 138              		@ args = 0, pretend = 0, frame = 0
 139              		@ frame_needed = 0, uses_anonymous_args = 0
 140              		@ link register save eliminated.
 141              	.LVL7:
 142              		.loc 1 118 0
 143 0000 074A     		ldr	r2, .L12
 144 0002 0849     		ldr	r1, .L12+4
 145 0004 1368     		ldr	r3, [r2]
 146 0006 0968     		ldr	r1, [r1]
 147              		.loc 1 117 0
 148 0008 0730     		adds	r0, r0, #7
 149              	.LVL8:
 150 000a 20F00700 		bic	r0, r0, #7
 151              	.LVL9:
 152              		.loc 1 118 0
 153 000e C91A     		subs	r1, r1, r3
 154 0010 8842     		cmp	r0, r1
 155              	.LVL10:
 156              		.loc 1 121 0
 157 0012 9DBF     		ittte	ls
 158 0014 C018     		addls	r0, r0, r3
 159              	.LVL11:
 160 0016 1060     		strls	r0, [r2]
 161              		.loc 1 122 0
 162 0018 1846     		movls	r0, r3
 163              		.loc 1 119 0
 164 001a 0020     		movhi	r0, #0
 165              		.loc 1 123 0
 166 001c 7047     		bx	lr
 167              	.L13:
 168 001e 00BF     		.align	2
 169              	.L12:
 170 0020 00000000 		.word	.LANCHOR0
 171 0024 00000000 		.word	.LANCHOR1
ARM GAS  /tmp/cc0YdJHd.s 			page 4


 172              		.cfi_endproc
 173              	.LFE9:
 174              		.size	chCoreAllocI, .-chCoreAllocI
 175              		.section	.text.chCoreStatus,"ax",%progbits
 176              		.align	2
 177              		.global	chCoreStatus
 178              		.thumb
 179              		.thumb_func
 180              		.type	chCoreStatus, %function
 181              	chCoreStatus:
 182              	.LFB10:
 183              		.loc 1 132 0
 184              		.cfi_startproc
 185              		@ args = 0, pretend = 0, frame = 0
 186              		@ frame_needed = 0, uses_anonymous_args = 0
 187              		@ link register save eliminated.
 188              		.loc 1 134 0
 189 0000 024A     		ldr	r2, .L15
 190 0002 034B     		ldr	r3, .L15+4
 191 0004 1068     		ldr	r0, [r2]
 192 0006 1B68     		ldr	r3, [r3]
 193              		.loc 1 135 0
 194 0008 C01A     		subs	r0, r0, r3
 195 000a 7047     		bx	lr
 196              	.L16:
 197              		.align	2
 198              	.L15:
 199 000c 00000000 		.word	.LANCHOR1
 200 0010 00000000 		.word	.LANCHOR0
 201              		.cfi_endproc
 202              	.LFE10:
 203              		.size	chCoreStatus, .-chCoreStatus
 204              		.section	.bss.endmem,"aw",%nobits
 205              		.align	2
 206              		.set	.LANCHOR1,. + 0
 207              		.type	endmem, %object
 208              		.size	endmem, 4
 209              	endmem:
 210 0000 00000000 		.space	4
 211              		.section	.bss.nextmem,"aw",%nobits
 212              		.align	2
 213              		.set	.LANCHOR0,. + 0
 214              		.type	nextmem, %object
 215              		.size	nextmem, 4
 216              	nextmem:
 217 0000 00000000 		.space	4
 218              		.text
 219              	.Letext0:
 220              		.file 2 "/usr/lib/gcc/arm-none-eabi/4.8/include/stddef.h"
 221              		.file 3 "/usr/include/newlib/machine/_default_types.h"
 222              		.file 4 "/usr/include/newlib/stdint.h"