ARM GAS  /tmp/cc23GPDp.s 			page 1


   1              		.syntax unified
   2              		.cpu cortex-m3
   3              		.fpu softvfp
   4              		.eabi_attribute 20, 1
   5              		.eabi_attribute 21, 1
   6              		.eabi_attribute 23, 3
   7              		.eabi_attribute 24, 1
   8              		.eabi_attribute 25, 1
   9              		.eabi_attribute 26, 1
  10              		.eabi_attribute 30, 2
  11              		.eabi_attribute 34, 1
  12              		.eabi_attribute 18, 4
  13              		.thumb
  14              		.file	"chmtx.c"
  15              		.text
  16              	.Ltext0:
  17              		.cfi_sections	.debug_frame
  18              		.section	.text.chMtxInit,"ax",%progbits
  19              		.align	2
  20              		.global	chMtxInit
  21              		.thumb
  22              		.thumb_func
  23              		.type	chMtxInit, %function
  24              	chMtxInit:
  25              	.LFB7:
  26              		.file 1 "../../os/kernel/src/chmtx.c"
  27              		.loc 1 86 0
  28              		.cfi_startproc
  29              		@ args = 0, pretend = 0, frame = 0
  30              		@ frame_needed = 0, uses_anonymous_args = 0
  31              		@ link register save eliminated.
  32              	.LVL0:
  33              		.loc 1 91 0
  34 0000 0023     		movs	r3, #0
  35              		.loc 1 90 0
  36 0002 4060     		str	r0, [r0, #4]
  37 0004 0060     		str	r0, [r0]
  38              		.loc 1 91 0
  39 0006 8360     		str	r3, [r0, #8]
  40 0008 7047     		bx	lr
  41              		.cfi_endproc
  42              	.LFE7:
  43              		.size	chMtxInit, .-chMtxInit
  44 000a 00BF     		.section	.text.chMtxLockS,"ax",%progbits
  45              		.align	2
  46              		.global	chMtxLockS
  47              		.thumb
  48              		.thumb_func
  49              		.type	chMtxLockS, %function
  50              	chMtxLockS:
  51              	.LFB9:
  52              		.loc 1 121 0
  53              		.cfi_startproc
  54              		@ args = 0, pretend = 0, frame = 0
  55              		@ frame_needed = 0, uses_anonymous_args = 0
  56              	.LVL1:
  57 0000 F8B5     		push	{r3, r4, r5, r6, r7, lr}
ARM GAS  /tmp/cc23GPDp.s 			page 2


  58              		.cfi_def_cfa_offset 24
  59              		.cfi_offset 3, -24
  60              		.cfi_offset 4, -20
  61              		.cfi_offset 5, -16
  62              		.cfi_offset 6, -12
  63              		.cfi_offset 7, -8
  64              		.cfi_offset 14, -4
  65              		.loc 1 128 0
  66 0002 8268     		ldr	r2, [r0, #8]
  67              		.loc 1 122 0
  68 0004 2F4B     		ldr	r3, .L23
  69              		.loc 1 121 0
  70 0006 0546     		mov	r5, r0
  71              		.loc 1 122 0
  72 0008 9C69     		ldr	r4, [r3, #24]
  73              	.LVL2:
  74              		.loc 1 128 0
  75 000a 002A     		cmp	r2, #0
  76 000c 54D0     		beq	.L3
  77              	.LVL3:
  78              	.LBB33:
  79              		.loc 1 135 0 discriminator 1
  80 000e A168     		ldr	r1, [r4, #8]
  81 0010 9368     		ldr	r3, [r2, #8]
  82 0012 9942     		cmp	r1, r3
  83 0014 06D9     		bls	.L5
  84              	.LVL4:
  85              	.L14:
  86              		.loc 1 139 0
  87 0016 137F     		ldrb	r3, [r2, #28]	@ zero_extendqisi2
  88              		.loc 1 137 0
  89 0018 9160     		str	r1, [r2, #8]
  90              		.loc 1 139 0
  91 001a 042B     		cmp	r3, #4
  92 001c 33D0     		beq	.L6
  93 001e 052B     		cmp	r3, #5
  94 0020 1DD0     		beq	.L7
  95 0022 9BB1     		cbz	r3, .L22
  96              	.LVL5:
  97              	.L5:
  98              	.LBB34:
  99              	.LBB35:
 100              		.file 2 "../../os/kernel/include/chinline.h"
 101              		.loc 2 43 0
 102 0024 2B46     		mov	r3, r5
 103 0026 03E0     		b	.L20
 104              	.LVL6:
 105              	.L18:
 106              		.loc 2 46 0
 107 0028 9968     		ldr	r1, [r3, #8]
 108 002a A268     		ldr	r2, [r4, #8]
 109 002c 9142     		cmp	r1, r2
 110 002e 02D3     		bcc	.L19
 111              	.L20:
 112              		.loc 2 45 0
 113 0030 1B68     		ldr	r3, [r3]
 114              	.LVL7:
ARM GAS  /tmp/cc23GPDp.s 			page 3


 115              		.loc 2 46 0
 116 0032 9D42     		cmp	r5, r3
 117 0034 F8D1     		bne	.L18
 118              	.L19:
 119              		.loc 2 48 0
 120 0036 5A68     		ldr	r2, [r3, #4]
 121              		.loc 2 47 0
 122 0038 2360     		str	r3, [r4]
 123              		.loc 2 48 0
 124 003a 6260     		str	r2, [r4, #4]
 125              		.loc 2 49 0
 126 003c 5C60     		str	r4, [r3, #4]
 127 003e 1460     		str	r4, [r2]
 128              	.LBE35:
 129              	.LBE34:
 130              		.loc 1 174 0
 131 0040 6562     		str	r5, [r4, #36]
 132              		.loc 1 175 0
 133 0042 0420     		movs	r0, #4
 134              	.LBE33:
 135              		.loc 1 187 0
 136 0044 BDE8F840 		pop	{r3, r4, r5, r6, r7, lr}
 137              	.LVL8:
 138              	.LBB58:
 139              		.loc 1 175 0
 140 0048 FFF7FEBF 		b	chSchGoSleepS
 141              	.LVL9:
 142              	.L22:
 143              	.LBB36:
 144              	.LBB37:
 145              		.loc 2 75 0
 146 004c 92E80A00 		ldmia	r2, {r1, r3}
 147 0050 1960     		str	r1, [r3]
 148              	.LBE37:
 149              	.LBE36:
 150              		.loc 1 167 0
 151 0052 1046     		mov	r0, r2
 152              	.LBB39:
 153              	.LBB38:
 154              		.loc 2 76 0
 155 0054 1268     		ldr	r2, [r2]
 156              	.LVL10:
 157 0056 5360     		str	r3, [r2, #4]
 158              	.LBE38:
 159              	.LBE39:
 160              		.loc 1 167 0
 161 0058 FFF7FEFF 		bl	chSchReadyI
 162              	.LVL11:
 163              		.loc 1 168 0
 164 005c E2E7     		b	.L5
 165              	.LVL12:
 166              	.L7:
 167              	.LBB40:
 168              	.LBB41:
 169              		.loc 2 75 0
 170 005e 1368     		ldr	r3, [r2]
 171 0060 5068     		ldr	r0, [r2, #4]
ARM GAS  /tmp/cc23GPDp.s 			page 4


 172              	.LBE41:
 173              	.LBE40:
 174              		.loc 1 158 0
 175 0062 566A     		ldr	r6, [r2, #36]
 176              	.LVL13:
 177              	.LBB44:
 178              	.LBB42:
 179              		.loc 2 75 0
 180 0064 0360     		str	r3, [r0]
 181              		.loc 2 76 0
 182 0066 1768     		ldr	r7, [r2]
 183              	.LBE42:
 184              	.LBE44:
 185              	.LBB45:
 186              	.LBB46:
 187              		.loc 2 43 0
 188 0068 3346     		mov	r3, r6
 189              	.LBE46:
 190              	.LBE45:
 191              	.LBB48:
 192              	.LBB43:
 193              		.loc 2 76 0
 194 006a 7860     		str	r0, [r7, #4]
 195 006c 02E0     		b	.L17
 196              	.LVL14:
 197              	.L15:
 198              	.LBE43:
 199              	.LBE48:
 200              	.LBB49:
 201              	.LBB47:
 202              		.loc 2 46 0
 203 006e 9868     		ldr	r0, [r3, #8]
 204 0070 8142     		cmp	r1, r0
 205 0072 02D8     		bhi	.L16
 206              	.L17:
 207              		.loc 2 45 0
 208 0074 1B68     		ldr	r3, [r3]
 209              	.LVL15:
 210              		.loc 2 46 0
 211 0076 9E42     		cmp	r6, r3
 212 0078 F9D1     		bne	.L15
 213              	.L16:
 214              		.loc 2 48 0
 215 007a 5968     		ldr	r1, [r3, #4]
 216              		.loc 2 47 0
 217 007c 1360     		str	r3, [r2]
 218              		.loc 2 48 0
 219 007e 5160     		str	r1, [r2, #4]
 220              		.loc 2 49 0
 221 0080 5A60     		str	r2, [r3, #4]
 222 0082 0A60     		str	r2, [r1]
 223 0084 CEE7     		b	.L5
 224              	.LVL16:
 225              	.L6:
 226              	.LBE47:
 227              	.LBE49:
 228              	.LBB50:
ARM GAS  /tmp/cc23GPDp.s 			page 5


 229              	.LBB51:
 230              		.loc 2 75 0
 231 0086 1368     		ldr	r3, [r2]
 232 0088 5068     		ldr	r0, [r2, #4]
 233              	.LBE51:
 234              	.LBE50:
 235              		.loc 1 142 0
 236 008a 566A     		ldr	r6, [r2, #36]
 237              	.LVL17:
 238              	.LBB54:
 239              	.LBB52:
 240              		.loc 2 75 0
 241 008c 0360     		str	r3, [r0]
 242              		.loc 2 76 0
 243 008e 1768     		ldr	r7, [r2]
 244              	.LBE52:
 245              	.LBE54:
 246              		.loc 1 142 0
 247 0090 3346     		mov	r3, r6
 248              	.LBB55:
 249              	.LBB53:
 250              		.loc 2 76 0
 251 0092 7860     		str	r0, [r7, #4]
 252 0094 02E0     		b	.L13
 253              	.LVL18:
 254              	.L9:
 255              	.LBE53:
 256              	.LBE55:
 257              	.LBB56:
 258              	.LBB57:
 259              		.loc 2 46 0
 260 0096 9868     		ldr	r0, [r3, #8]
 261 0098 8842     		cmp	r0, r1
 262 009a 02D3     		bcc	.L12
 263              	.L13:
 264              		.loc 2 45 0
 265 009c 1B68     		ldr	r3, [r3]
 266              	.LVL19:
 267              		.loc 2 46 0
 268 009e 9E42     		cmp	r6, r3
 269 00a0 F9D1     		bne	.L9
 270              	.L12:
 271              		.loc 2 48 0
 272 00a2 5968     		ldr	r1, [r3, #4]
 273              		.loc 2 47 0
 274 00a4 1360     		str	r3, [r2]
 275              		.loc 2 48 0
 276 00a6 5160     		str	r1, [r2, #4]
 277              		.loc 2 49 0
 278 00a8 5A60     		str	r2, [r3, #4]
 279 00aa 0A60     		str	r2, [r1]
 280              	.LBE57:
 281              	.LBE56:
 282              		.loc 1 143 0
 283 00ac B268     		ldr	r2, [r6, #8]
 284              	.LVL20:
 285              		.loc 1 135 0
ARM GAS  /tmp/cc23GPDp.s 			page 6


 286 00ae A168     		ldr	r1, [r4, #8]
 287 00b0 9368     		ldr	r3, [r2, #8]
 288              	.LVL21:
 289 00b2 8B42     		cmp	r3, r1
 290 00b4 AFD3     		bcc	.L14
 291 00b6 B5E7     		b	.L5
 292              	.LVL22:
 293              	.L3:
 294              	.LBE58:
 295              		.loc 1 184 0
 296 00b8 E36B     		ldr	r3, [r4, #60]
 297              		.loc 1 183 0
 298 00ba 8460     		str	r4, [r0, #8]
 299              		.loc 1 184 0
 300 00bc C360     		str	r3, [r0, #12]
 301              		.loc 1 185 0
 302 00be E063     		str	r0, [r4, #60]
 303 00c0 F8BD     		pop	{r3, r4, r5, r6, r7, pc}
 304              	.LVL23:
 305              	.L24:
 306 00c2 00BF     		.align	2
 307              	.L23:
 308 00c4 00000000 		.word	rlist
 309              		.cfi_endproc
 310              	.LFE9:
 311              		.size	chMtxLockS, .-chMtxLockS
 312              		.section	.text.chMtxLock,"ax",%progbits
 313              		.align	2
 314              		.global	chMtxLock
 315              		.thumb
 316              		.thumb_func
 317              		.type	chMtxLock, %function
 318              	chMtxLock:
 319              	.LFB8:
 320              		.loc 1 103 0
 321              		.cfi_startproc
 322              		@ args = 0, pretend = 0, frame = 0
 323              		@ frame_needed = 0, uses_anonymous_args = 0
 324              	.LVL24:
 325 0000 08B5     		push	{r3, lr}
 326              		.cfi_def_cfa_offset 8
 327              		.cfi_offset 3, -8
 328              		.cfi_offset 14, -4
 329              	.LBB59:
 330              		.loc 1 105 0
 331 0002 2023     		movs	r3, #32
 332              	@ 105 "../../os/kernel/src/chmtx.c" 1
 333 0004 83F31188 		msr     BASEPRI, r3
 334              	@ 0 "" 2
 335              		.thumb
 336              	.LBE59:
 337              		.loc 1 107 0
 338 0008 FFF7FEFF 		bl	chMtxLockS
 339              	.LVL25:
 340              	.LBB60:
 341              		.loc 1 109 0
 342 000c 0023     		movs	r3, #0
ARM GAS  /tmp/cc23GPDp.s 			page 7


 343              	@ 109 "../../os/kernel/src/chmtx.c" 1
 344 000e 83F31188 		msr     BASEPRI, r3
 345              	@ 0 "" 2
 346              		.thumb
 347 0012 08BD     		pop	{r3, pc}
 348              	.LBE60:
 349              		.cfi_endproc
 350              	.LFE8:
 351              		.size	chMtxLock, .-chMtxLock
 352              		.section	.text.chMtxTryLock,"ax",%progbits
 353              		.align	2
 354              		.global	chMtxTryLock
 355              		.thumb
 356              		.thumb_func
 357              		.type	chMtxTryLock, %function
 358              	chMtxTryLock:
 359              	.LFB10:
 360              		.loc 1 206 0
 361              		.cfi_startproc
 362              		@ args = 0, pretend = 0, frame = 0
 363              		@ frame_needed = 0, uses_anonymous_args = 0
 364              		@ link register save eliminated.
 365              	.LVL26:
 366              		.loc 1 206 0
 367 0000 0246     		mov	r2, r0
 368              	.LBB61:
 369              		.loc 1 209 0
 370 0002 2023     		movs	r3, #32
 371              	@ 209 "../../os/kernel/src/chmtx.c" 1
 372 0004 83F31188 		msr     BASEPRI, r3
 373              	@ 0 "" 2
 374              	.LVL27:
 375              		.thumb
 376              	.LBE61:
 377              	.LBB62:
 378              	.LBB63:
 379              		.loc 1 239 0
 380 0008 8368     		ldr	r3, [r0, #8]
 381 000a 23B1     		cbz	r3, .L29
 382              		.loc 1 240 0
 383 000c 0020     		movs	r0, #0
 384              	.LVL28:
 385              	.LBE63:
 386              	.LBE62:
 387              	.LBB65:
 388              		.loc 1 213 0
 389 000e 0023     		movs	r3, #0
 390              	@ 213 "../../os/kernel/src/chmtx.c" 1
 391 0010 83F31188 		msr     BASEPRI, r3
 392              	@ 0 "" 2
 393              		.thumb
 394              	.LBE65:
 395              		.loc 1 215 0
 396 0014 7047     		bx	lr
 397              	.LVL29:
 398              	.L29:
 399              	.LBB66:
ARM GAS  /tmp/cc23GPDp.s 			page 8


 400              	.LBB64:
 401              		.loc 1 241 0
 402 0016 054B     		ldr	r3, .L30
 403              		.loc 1 244 0
 404 0018 0120     		movs	r0, #1
 405              	.LVL30:
 406              		.loc 1 241 0
 407 001a 9B69     		ldr	r3, [r3, #24]
 408              		.loc 1 242 0
 409 001c D96B     		ldr	r1, [r3, #60]
 410              		.loc 1 241 0
 411 001e 9360     		str	r3, [r2, #8]
 412              		.loc 1 242 0
 413 0020 D160     		str	r1, [r2, #12]
 414              		.loc 1 243 0
 415 0022 DA63     		str	r2, [r3, #60]
 416              	.LBE64:
 417              	.LBE66:
 418              	.LBB67:
 419              		.loc 1 213 0
 420 0024 0023     		movs	r3, #0
 421              	@ 213 "../../os/kernel/src/chmtx.c" 1
 422 0026 83F31188 		msr     BASEPRI, r3
 423              	@ 0 "" 2
 424              		.thumb
 425              	.LBE67:
 426              		.loc 1 215 0
 427 002a 7047     		bx	lr
 428              	.L31:
 429              		.align	2
 430              	.L30:
 431 002c 00000000 		.word	rlist
 432              		.cfi_endproc
 433              	.LFE10:
 434              		.size	chMtxTryLock, .-chMtxTryLock
 435              		.section	.text.chMtxTryLockS,"ax",%progbits
 436              		.align	2
 437              		.global	chMtxTryLockS
 438              		.thumb
 439              		.thumb_func
 440              		.type	chMtxTryLockS, %function
 441              	chMtxTryLockS:
 442              	.LFB11:
 443              		.loc 1 234 0
 444              		.cfi_startproc
 445              		@ args = 0, pretend = 0, frame = 0
 446              		@ frame_needed = 0, uses_anonymous_args = 0
 447              		@ link register save eliminated.
 448              	.LVL31:
 449              		.loc 1 239 0
 450 0000 8268     		ldr	r2, [r0, #8]
 451              		.loc 1 234 0
 452 0002 0346     		mov	r3, r0
 453              		.loc 1 239 0
 454 0004 0AB1     		cbz	r2, .L35
 455              		.loc 1 240 0
 456 0006 0020     		movs	r0, #0
ARM GAS  /tmp/cc23GPDp.s 			page 9


 457              	.LVL32:
 458              		.loc 1 245 0
 459 0008 7047     		bx	lr
 460              	.LVL33:
 461              	.L35:
 462              		.loc 1 241 0
 463 000a 044A     		ldr	r2, .L36
 464              		.loc 1 244 0
 465 000c 0120     		movs	r0, #1
 466              	.LVL34:
 467              		.loc 1 241 0
 468 000e 9269     		ldr	r2, [r2, #24]
 469              		.loc 1 242 0
 470 0010 D16B     		ldr	r1, [r2, #60]
 471              		.loc 1 241 0
 472 0012 9A60     		str	r2, [r3, #8]
 473              		.loc 1 242 0
 474 0014 D960     		str	r1, [r3, #12]
 475              		.loc 1 243 0
 476 0016 D363     		str	r3, [r2, #60]
 477              		.loc 1 244 0
 478 0018 7047     		bx	lr
 479              	.L37:
 480 001a 00BF     		.align	2
 481              	.L36:
 482 001c 00000000 		.word	rlist
 483              		.cfi_endproc
 484              	.LFE11:
 485              		.size	chMtxTryLockS, .-chMtxTryLockS
 486              		.section	.text.chMtxUnlock,"ax",%progbits
 487              		.align	2
 488              		.global	chMtxUnlock
 489              		.thumb
 490              		.thumb_func
 491              		.type	chMtxUnlock, %function
 492              	chMtxUnlock:
 493              	.LFB12:
 494              		.loc 1 257 0
 495              		.cfi_startproc
 496              		@ args = 0, pretend = 0, frame = 0
 497              		@ frame_needed = 0, uses_anonymous_args = 0
 498              		.loc 1 258 0
 499 0000 174A     		ldr	r2, .L50
 500              		.loc 1 257 0
 501 0002 38B5     		push	{r3, r4, r5, lr}
 502              		.cfi_def_cfa_offset 16
 503              		.cfi_offset 3, -16
 504              		.cfi_offset 4, -12
 505              		.cfi_offset 5, -8
 506              		.cfi_offset 14, -4
 507              		.loc 1 258 0
 508 0004 9069     		ldr	r0, [r2, #24]
 509              	.LVL35:
 510              	.LBB68:
 511              		.loc 1 261 0
 512 0006 2023     		movs	r3, #32
 513              	@ 261 "../../os/kernel/src/chmtx.c" 1
ARM GAS  /tmp/cc23GPDp.s 			page 10


 514 0008 83F31188 		msr     BASEPRI, r3
 515              	@ 0 "" 2
 516              		.thumb
 517              	.LBE68:
 518              		.loc 1 270 0
 519 000c C46B     		ldr	r4, [r0, #60]
 520              	.LVL36:
 521              		.loc 1 273 0
 522 000e 2568     		ldr	r5, [r4]
 523              		.loc 1 271 0
 524 0010 E368     		ldr	r3, [r4, #12]
 525              		.loc 1 273 0
 526 0012 A542     		cmp	r5, r4
 527              		.loc 1 271 0
 528 0014 C363     		str	r3, [r0, #60]
 529              		.loc 1 273 0
 530 0016 1CD0     		beq	.L39
 531              	.LBB69:
 532              		.loc 1 278 0
 533 0018 016C     		ldr	r1, [r0, #64]
 534              	.LVL37:
 535              		.loc 1 280 0
 536 001a 4BB1     		cbz	r3, .L40
 537              	.L42:
 538              		.loc 1 284 0
 539 001c 1A68     		ldr	r2, [r3]
 540 001e 9A42     		cmp	r2, r3
 541 0020 03D0     		beq	.L41
 542              		.loc 1 284 0 is_stmt 0 discriminator 1
 543 0022 9268     		ldr	r2, [r2, #8]
 544 0024 9142     		cmp	r1, r2
 545 0026 38BF     		it	cc
 546 0028 1146     		movcc	r1, r2
 547              	.LVL38:
 548              	.L41:
 549              		.loc 1 286 0 is_stmt 1
 550 002a DB68     		ldr	r3, [r3, #12]
 551              	.LVL39:
 552              		.loc 1 280 0
 553 002c 002B     		cmp	r3, #0
 554 002e F5D1     		bne	.L42
 555              	.L40:
 556              	.LBB70:
 557              	.LBB71:
 558              		.loc 2 62 0
 559 0030 2B68     		ldr	r3, [r5]
 560              	.LVL40:
 561              	.LBE71:
 562              	.LBE70:
 563              		.loc 1 295 0
 564 0032 EA6B     		ldr	r2, [r5, #60]
 565              		.loc 1 290 0
 566 0034 8160     		str	r1, [r0, #8]
 567              	.LVL41:
 568              	.LBB74:
 569              	.LBB72:
 570              		.loc 2 62 0
ARM GAS  /tmp/cc23GPDp.s 			page 11


 571 0036 2360     		str	r3, [r4]
 572              	.LBE72:
 573              	.LBE74:
 574              		.loc 1 297 0
 575 0038 2846     		mov	r0, r5
 576              	.LVL42:
 577              	.LBB75:
 578              	.LBB73:
 579              		.loc 2 62 0
 580 003a 5C60     		str	r4, [r3, #4]
 581              	.LBE73:
 582              	.LBE75:
 583              		.loc 1 297 0
 584 003c 0021     		movs	r1, #0
 585              	.LVL43:
 586              		.loc 1 294 0
 587 003e A560     		str	r5, [r4, #8]
 588              		.loc 1 295 0
 589 0040 E260     		str	r2, [r4, #12]
 590              		.loc 1 296 0
 591 0042 EC63     		str	r4, [r5, #60]
 592              		.loc 1 297 0
 593 0044 FFF7FEFF 		bl	chSchWakeupS
 594              	.LVL44:
 595              	.LBE69:
 596              	.LBB76:
 597              		.loc 1 301 0
 598 0048 0023     		movs	r3, #0
 599              	@ 301 "../../os/kernel/src/chmtx.c" 1
 600 004a 83F31188 		msr     BASEPRI, r3
 601              	@ 0 "" 2
 602              		.thumb
 603              	.LBE76:
 604              		.loc 1 303 0
 605 004e 2046     		mov	r0, r4
 606 0050 38BD     		pop	{r3, r4, r5, pc}
 607              	.LVL45:
 608              	.L39:
 609              		.loc 1 300 0
 610 0052 0023     		movs	r3, #0
 611 0054 A360     		str	r3, [r4, #8]
 612              	.LBB77:
 613              		.loc 1 301 0
 614 0056 0023     		movs	r3, #0
 615              	@ 301 "../../os/kernel/src/chmtx.c" 1
 616 0058 83F31188 		msr     BASEPRI, r3
 617              	@ 0 "" 2
 618              		.thumb
 619              	.LBE77:
 620              		.loc 1 303 0
 621 005c 2046     		mov	r0, r4
 622              	.LVL46:
 623 005e 38BD     		pop	{r3, r4, r5, pc}
 624              	.LVL47:
 625              	.L51:
 626              		.align	2
 627              	.L50:
ARM GAS  /tmp/cc23GPDp.s 			page 12


 628 0060 00000000 		.word	rlist
 629              		.cfi_endproc
 630              	.LFE12:
 631              		.size	chMtxUnlock, .-chMtxUnlock
 632              		.section	.text.chMtxUnlockS,"ax",%progbits
 633              		.align	2
 634              		.global	chMtxUnlockS
 635              		.thumb
 636              		.thumb_func
 637              		.type	chMtxUnlockS, %function
 638              	chMtxUnlockS:
 639              	.LFB13:
 640              		.loc 1 317 0
 641              		.cfi_startproc
 642              		@ args = 0, pretend = 0, frame = 0
 643              		@ frame_needed = 0, uses_anonymous_args = 0
 644 0000 38B5     		push	{r3, r4, r5, lr}
 645              		.cfi_def_cfa_offset 16
 646              		.cfi_offset 3, -16
 647              		.cfi_offset 4, -12
 648              		.cfi_offset 5, -8
 649              		.cfi_offset 14, -4
 650              		.loc 1 318 0
 651 0002 124B     		ldr	r3, .L64
 652 0004 9869     		ldr	r0, [r3, #24]
 653              	.LVL48:
 654              		.loc 1 331 0
 655 0006 C46B     		ldr	r4, [r0, #60]
 656              	.LVL49:
 657              		.loc 1 334 0
 658 0008 2568     		ldr	r5, [r4]
 659              		.loc 1 332 0
 660 000a E368     		ldr	r3, [r4, #12]
 661              		.loc 1 334 0
 662 000c A542     		cmp	r5, r4
 663              		.loc 1 332 0
 664 000e C363     		str	r3, [r0, #60]
 665              		.loc 1 334 0
 666 0010 18D0     		beq	.L53
 667              	.LBB78:
 668              		.loc 1 339 0
 669 0012 016C     		ldr	r1, [r0, #64]
 670              	.LVL50:
 671              		.loc 1 341 0
 672 0014 4BB1     		cbz	r3, .L54
 673              	.L56:
 674              		.loc 1 345 0
 675 0016 1A68     		ldr	r2, [r3]
 676 0018 9A42     		cmp	r2, r3
 677 001a 03D0     		beq	.L55
 678              		.loc 1 345 0 is_stmt 0 discriminator 1
 679 001c 9268     		ldr	r2, [r2, #8]
 680 001e 9142     		cmp	r1, r2
 681 0020 38BF     		it	cc
 682 0022 1146     		movcc	r1, r2
 683              	.LVL51:
 684              	.L55:
ARM GAS  /tmp/cc23GPDp.s 			page 13


 685              		.loc 1 347 0 is_stmt 1
 686 0024 DB68     		ldr	r3, [r3, #12]
 687              	.LVL52:
 688              		.loc 1 341 0
 689 0026 002B     		cmp	r3, #0
 690 0028 F5D1     		bne	.L56
 691              	.L54:
 692              		.loc 1 354 0
 693 002a EA6B     		ldr	r2, [r5, #60]
 694              	.LBB79:
 695              	.LBB80:
 696              		.loc 2 62 0
 697 002c 2B68     		ldr	r3, [r5]
 698              	.LVL53:
 699              	.LBE80:
 700              	.LBE79:
 701              		.loc 1 349 0
 702 002e 8160     		str	r1, [r0, #8]
 703              	.LVL54:
 704              	.LBB83:
 705              	.LBB81:
 706              		.loc 2 62 0
 707 0030 2360     		str	r3, [r4]
 708              	.LBE81:
 709              	.LBE83:
 710              		.loc 1 356 0
 711 0032 2846     		mov	r0, r5
 712              	.LVL55:
 713              	.LBB84:
 714              	.LBB82:
 715              		.loc 2 62 0
 716 0034 5C60     		str	r4, [r3, #4]
 717              	.LBE82:
 718              	.LBE84:
 719              		.loc 1 353 0
 720 0036 A560     		str	r5, [r4, #8]
 721              		.loc 1 354 0
 722 0038 E260     		str	r2, [r4, #12]
 723              		.loc 1 355 0
 724 003a EC63     		str	r4, [r5, #60]
 725              		.loc 1 356 0
 726 003c FFF7FEFF 		bl	chSchReadyI
 727              	.LVL56:
 728              	.LBE78:
 729              		.loc 1 361 0
 730 0040 2046     		mov	r0, r4
 731 0042 38BD     		pop	{r3, r4, r5, pc}
 732              	.LVL57:
 733              	.L53:
 734              		.loc 1 359 0
 735 0044 0023     		movs	r3, #0
 736 0046 A360     		str	r3, [r4, #8]
 737              		.loc 1 361 0
 738 0048 2046     		mov	r0, r4
 739              	.LVL58:
 740 004a 38BD     		pop	{r3, r4, r5, pc}
 741              	.LVL59:
ARM GAS  /tmp/cc23GPDp.s 			page 14


 742              	.L65:
 743              		.align	2
 744              	.L64:
 745 004c 00000000 		.word	rlist
 746              		.cfi_endproc
 747              	.LFE13:
 748              		.size	chMtxUnlockS, .-chMtxUnlockS
 749              		.section	.text.chMtxUnlockAll,"ax",%progbits
 750              		.align	2
 751              		.global	chMtxUnlockAll
 752              		.thumb
 753              		.thumb_func
 754              		.type	chMtxUnlockAll, %function
 755              	chMtxUnlockAll:
 756              	.LFB14:
 757              		.loc 1 374 0
 758              		.cfi_startproc
 759              		@ args = 0, pretend = 0, frame = 0
 760              		@ frame_needed = 0, uses_anonymous_args = 0
 761              		.loc 1 375 0
 762 0000 134A     		ldr	r2, .L77
 763              		.loc 1 374 0
 764 0002 70B5     		push	{r4, r5, r6, lr}
 765              		.cfi_def_cfa_offset 16
 766              		.cfi_offset 4, -16
 767              		.cfi_offset 5, -12
 768              		.cfi_offset 6, -8
 769              		.cfi_offset 14, -4
 770              	.LBB85:
 771              		.loc 1 377 0
 772 0004 2023     		movs	r3, #32
 773              	.LBE85:
 774              		.loc 1 375 0
 775 0006 9469     		ldr	r4, [r2, #24]
 776              	.LVL60:
 777              	.LBB86:
 778              		.loc 1 377 0
 779              	@ 377 "../../os/kernel/src/chmtx.c" 1
 780 0008 83F31188 		msr     BASEPRI, r3
 781              	@ 0 "" 2
 782              		.thumb
 783              	.LBE86:
 784              		.loc 1 378 0
 785 000c E36B     		ldr	r3, [r4, #60]
 786 000e D3B1     		cbz	r3, .L67
 787              	.LBB87:
 788              		.loc 1 390 0
 789 0010 0026     		movs	r6, #0
 790 0012 0BE0     		b	.L71
 791              	.LVL61:
 792              	.L76:
 793              	.LBB88:
 794              		.loc 1 385 0
 795 0014 D56B     		ldr	r5, [r2, #60]
 796              	.LBB89:
 797              	.LBB90:
 798              		.loc 2 62 0
ARM GAS  /tmp/cc23GPDp.s 			page 15


 799 0016 1168     		ldr	r1, [r2]
 800              	.LBE90:
 801              	.LBE89:
 802              		.loc 1 387 0
 803 0018 1046     		mov	r0, r2
 804              	.LBB92:
 805              	.LBB91:
 806              		.loc 2 62 0
 807 001a 1960     		str	r1, [r3]
 808 001c 4B60     		str	r3, [r1, #4]
 809              	.LBE91:
 810              	.LBE92:
 811              		.loc 1 384 0
 812 001e 9A60     		str	r2, [r3, #8]
 813              		.loc 1 385 0
 814 0020 DD60     		str	r5, [r3, #12]
 815              		.loc 1 386 0
 816 0022 D363     		str	r3, [r2, #60]
 817              		.loc 1 387 0
 818 0024 FFF7FEFF 		bl	chSchReadyI
 819              	.LVL62:
 820              	.LBE88:
 821              	.LBE87:
 822              		.loc 1 391 0
 823 0028 E36B     		ldr	r3, [r4, #60]
 824 002a 43B1     		cbz	r3, .L75
 825              	.L71:
 826              	.LVL63:
 827              	.LBB93:
 828              		.loc 1 382 0
 829 002c 1A68     		ldr	r2, [r3]
 830              	.LVL64:
 831              		.loc 1 381 0
 832 002e D968     		ldr	r1, [r3, #12]
 833              		.loc 1 382 0
 834 0030 9A42     		cmp	r2, r3
 835              		.loc 1 381 0
 836 0032 E163     		str	r1, [r4, #60]
 837              		.loc 1 382 0
 838 0034 EED1     		bne	.L76
 839              		.loc 1 390 0
 840 0036 9E60     		str	r6, [r3, #8]
 841              	.LBE93:
 842              		.loc 1 391 0
 843 0038 E36B     		ldr	r3, [r4, #60]
 844              	.LVL65:
 845 003a 002B     		cmp	r3, #0
 846 003c F6D1     		bne	.L71
 847              	.LVL66:
 848              	.L75:
 849              		.loc 1 392 0
 850 003e 236C     		ldr	r3, [r4, #64]
 851 0040 A360     		str	r3, [r4, #8]
 852              		.loc 1 393 0
 853 0042 FFF7FEFF 		bl	chSchRescheduleS
 854              	.LVL67:
 855              	.L67:
ARM GAS  /tmp/cc23GPDp.s 			page 16


 856              	.LBB94:
 857              		.loc 1 395 0
 858 0046 0023     		movs	r3, #0
 859              	@ 395 "../../os/kernel/src/chmtx.c" 1
 860 0048 83F31188 		msr     BASEPRI, r3
 861              	@ 0 "" 2
 862              		.thumb
 863 004c 70BD     		pop	{r4, r5, r6, pc}
 864              	.LVL68:
 865              	.L78:
 866 004e 00BF     		.align	2
 867              	.L77:
 868 0050 00000000 		.word	rlist
 869              	.LBE94:
 870              		.cfi_endproc
 871              	.LFE14:
 872              		.size	chMtxUnlockAll, .-chMtxUnlockAll
 873              		.text
 874              	.Letext0:
 875              		.file 3 "/usr/include/newlib/machine/_default_types.h"
 876              		.file 4 "/usr/include/newlib/stdint.h"
 877              		.file 5 "../../os/ports/GCC/ARMCMx/chtypes.h"
 878              		.file 6 "../../os/kernel/include/chlists.h"
 879              		.file 7 "../../os/kernel/include/chthreads.h"
 880              		.file 8 "../../os/ports/GCC/ARMCMx/chcore_v7m.h"
 881              		.file 9 "../../os/kernel/include/chschd.h"
 882              		.file 10 "../../os/kernel/include/chmtx.h"