ARM GAS  /tmp/ccaiXF5f.s 			page 1


   1              		.syntax unified
   2              		.cpu cortex-m3
   3              		.fpu softvfp
   4              		.eabi_attribute 20, 1
   5              		.eabi_attribute 21, 1
   6              		.eabi_attribute 23, 3
   7              		.eabi_attribute 24, 1
   8              		.eabi_attribute 25, 1
   9              		.eabi_attribute 26, 1
  10              		.eabi_attribute 30, 2
  11              		.eabi_attribute 34, 1
  12              		.eabi_attribute 18, 4
  13              		.thumb
  14              		.file	"chsem.c"
  15              		.text
  16              	.Ltext0:
  17              		.cfi_sections	.debug_frame
  18              		.section	.text.chSemInit,"ax",%progbits
  19              		.align	2
  20              		.global	chSemInit
  21              		.thumb
  22              		.thumb_func
  23              		.type	chSemInit, %function
  24              	chSemInit:
  25              	.LFB7:
  26              		.file 1 "../../os/kernel/src/chsem.c"
  27              		.loc 1 86 0
  28              		.cfi_startproc
  29              		@ args = 0, pretend = 0, frame = 0
  30              		@ frame_needed = 0, uses_anonymous_args = 0
  31              		@ link register save eliminated.
  32              	.LVL0:
  33              		.loc 1 90 0
  34 0000 4060     		str	r0, [r0, #4]
  35 0002 0060     		str	r0, [r0]
  36              		.loc 1 91 0
  37 0004 8160     		str	r1, [r0, #8]
  38 0006 7047     		bx	lr
  39              		.cfi_endproc
  40              	.LFE7:
  41              		.size	chSemInit, .-chSemInit
  42              		.section	.text.chSemResetI,"ax",%progbits
  43              		.align	2
  44              		.global	chSemResetI
  45              		.thumb
  46              		.thumb_func
  47              		.type	chSemResetI, %function
  48              	chSemResetI:
  49              	.LFB9:
  50              		.loc 1 136 0
  51              		.cfi_startproc
  52              		@ args = 0, pretend = 0, frame = 0
  53              		@ frame_needed = 0, uses_anonymous_args = 0
  54              	.LVL1:
  55 0000 70B5     		push	{r4, r5, r6, lr}
  56              		.cfi_def_cfa_offset 16
  57              		.cfi_offset 4, -16
ARM GAS  /tmp/ccaiXF5f.s 			page 2


  58              		.cfi_offset 5, -12
  59              		.cfi_offset 6, -8
  60              		.cfi_offset 14, -4
  61              		.loc 1 141 0
  62 0002 8568     		ldr	r5, [r0, #8]
  63              	.LVL2:
  64              		.loc 1 136 0
  65 0004 0446     		mov	r4, r0
  66              		.loc 1 148 0
  67 0006 0135     		adds	r5, r5, #1
  68              	.LVL3:
  69 0008 002D     		cmp	r5, #0
  70              		.loc 1 147 0
  71 000a 8160     		str	r1, [r0, #8]
  72              	.LVL4:
  73              		.loc 1 148 0
  74 000c 0BDC     		bgt	.L2
  75              		.loc 1 149 0
  76 000e 6FF00106 		mvn	r6, #1
  77              	.LVL5:
  78              	.L5:
  79              	.LBB24:
  80              	.LBB25:
  81              		.file 2 "../../os/kernel/include/chinline.h"
  82              		.loc 2 67 0
  83 0012 6068     		ldr	r0, [r4, #4]
  84              	.LVL6:
  85              	.LBE25:
  86              	.LBE24:
  87              		.loc 1 148 0
  88 0014 0135     		adds	r5, r5, #1
  89              	.LVL7:
  90              	.LBB27:
  91              	.LBB26:
  92              		.loc 2 69 0
  93 0016 4368     		ldr	r3, [r0, #4]
  94 0018 6360     		str	r3, [r4, #4]
  95 001a 1C60     		str	r4, [r3]
  96              	.LBE26:
  97              	.LBE27:
  98              		.loc 1 149 0
  99 001c FFF7FEFF 		bl	chSchReadyI
 100              	.LVL8:
 101              		.loc 1 148 0
 102 0020 012D     		cmp	r5, #1
 103              		.loc 1 149 0
 104 0022 4662     		str	r6, [r0, #36]
 105              	.LVL9:
 106              		.loc 1 148 0
 107 0024 F5D1     		bne	.L5
 108              	.LVL10:
 109              	.L2:
 110 0026 70BD     		pop	{r4, r5, r6, pc}
 111              		.cfi_endproc
 112              	.LFE9:
 113              		.size	chSemResetI, .-chSemResetI
 114              		.section	.text.chSemReset,"ax",%progbits
ARM GAS  /tmp/ccaiXF5f.s 			page 3


 115              		.align	2
 116              		.global	chSemReset
 117              		.thumb
 118              		.thumb_func
 119              		.type	chSemReset, %function
 120              	chSemReset:
 121              	.LFB8:
 122              		.loc 1 109 0
 123              		.cfi_startproc
 124              		@ args = 0, pretend = 0, frame = 0
 125              		@ frame_needed = 0, uses_anonymous_args = 0
 126              	.LVL11:
 127 0000 08B5     		push	{r3, lr}
 128              		.cfi_def_cfa_offset 8
 129              		.cfi_offset 3, -8
 130              		.cfi_offset 14, -4
 131              	.LBB28:
 132              		.loc 1 111 0
 133 0002 2023     		movs	r3, #32
 134              	@ 111 "../../os/kernel/src/chsem.c" 1
 135 0004 83F31188 		msr     BASEPRI, r3
 136              	@ 0 "" 2
 137              		.thumb
 138              	.LBE28:
 139              		.loc 1 112 0
 140 0008 FFF7FEFF 		bl	chSemResetI
 141              	.LVL12:
 142              		.loc 1 113 0
 143 000c FFF7FEFF 		bl	chSchRescheduleS
 144              	.LVL13:
 145              	.LBB29:
 146              		.loc 1 114 0
 147 0010 0023     		movs	r3, #0
 148              	@ 114 "../../os/kernel/src/chsem.c" 1
 149 0012 83F31188 		msr     BASEPRI, r3
 150              	@ 0 "" 2
 151              		.thumb
 152 0016 08BD     		pop	{r3, pc}
 153              	.LBE29:
 154              		.cfi_endproc
 155              	.LFE8:
 156              		.size	chSemReset, .-chSemReset
 157              		.section	.text.chSemWaitS,"ax",%progbits
 158              		.align	2
 159              		.global	chSemWaitS
 160              		.thumb
 161              		.thumb_func
 162              		.type	chSemWaitS, %function
 163              	chSemWaitS:
 164              	.LFB11:
 165              		.loc 1 185 0
 166              		.cfi_startproc
 167              		@ args = 0, pretend = 0, frame = 0
 168              		@ frame_needed = 0, uses_anonymous_args = 0
 169              	.LVL14:
 170              		.loc 1 194 0
 171 0000 8268     		ldr	r2, [r0, #8]
ARM GAS  /tmp/ccaiXF5f.s 			page 4


 172              		.loc 1 185 0
 173 0002 10B5     		push	{r4, lr}
 174              		.cfi_def_cfa_offset 8
 175              		.cfi_offset 4, -8
 176              		.cfi_offset 14, -4
 177              		.loc 1 194 0
 178 0004 013A     		subs	r2, r2, #1
 179 0006 002A     		cmp	r2, #0
 180              		.loc 1 185 0
 181 0008 0346     		mov	r3, r0
 182              		.loc 1 194 0
 183 000a 8260     		str	r2, [r0, #8]
 184 000c 01DB     		blt	.L14
 185              		.loc 1 200 0
 186 000e 0020     		movs	r0, #0
 187              	.LVL15:
 188              		.loc 1 201 0
 189 0010 10BD     		pop	{r4, pc}
 190              	.LVL16:
 191              	.L14:
 192              		.loc 1 195 0
 193 0012 074C     		ldr	r4, .L15
 194              		.loc 1 197 0
 195 0014 0320     		movs	r0, #3
 196              	.LVL17:
 197              		.loc 1 195 0
 198 0016 A269     		ldr	r2, [r4, #24]
 199 0018 5362     		str	r3, [r2, #36]
 200              	.LVL18:
 201              	.LBB30:
 202              	.LBB31:
 203              		.loc 2 55 0
 204 001a 5968     		ldr	r1, [r3, #4]
 205              		.loc 2 54 0
 206 001c 1360     		str	r3, [r2]
 207              		.loc 2 55 0
 208 001e 5160     		str	r1, [r2, #4]
 209              		.loc 2 56 0
 210 0020 5A60     		str	r2, [r3, #4]
 211              	.LVL19:
 212 0022 0A60     		str	r2, [r1]
 213              	.LVL20:
 214              	.LBE31:
 215              	.LBE30:
 216              		.loc 1 197 0
 217 0024 FFF7FEFF 		bl	chSchGoSleepS
 218              	.LVL21:
 219              		.loc 1 198 0
 220 0028 A369     		ldr	r3, [r4, #24]
 221 002a 586A     		ldr	r0, [r3, #36]
 222 002c 10BD     		pop	{r4, pc}
 223              	.L16:
 224 002e 00BF     		.align	2
 225              	.L15:
 226 0030 00000000 		.word	rlist
 227              		.cfi_endproc
 228              	.LFE11:
ARM GAS  /tmp/ccaiXF5f.s 			page 5


 229              		.size	chSemWaitS, .-chSemWaitS
 230              		.section	.text.chSemWait,"ax",%progbits
 231              		.align	2
 232              		.global	chSemWait
 233              		.thumb
 234              		.thumb_func
 235              		.type	chSemWait, %function
 236              	chSemWait:
 237              	.LFB10:
 238              		.loc 1 164 0
 239              		.cfi_startproc
 240              		@ args = 0, pretend = 0, frame = 0
 241              		@ frame_needed = 0, uses_anonymous_args = 0
 242              	.LVL22:
 243 0000 08B5     		push	{r3, lr}
 244              		.cfi_def_cfa_offset 8
 245              		.cfi_offset 3, -8
 246              		.cfi_offset 14, -4
 247              	.LBB32:
 248              		.loc 1 167 0
 249 0002 2023     		movs	r3, #32
 250              	@ 167 "../../os/kernel/src/chsem.c" 1
 251 0004 83F31188 		msr     BASEPRI, r3
 252              	@ 0 "" 2
 253              		.thumb
 254              	.LBE32:
 255              		.loc 1 168 0
 256 0008 FFF7FEFF 		bl	chSemWaitS
 257              	.LVL23:
 258              	.LBB33:
 259              		.loc 1 169 0
 260 000c 0023     		movs	r3, #0
 261              	@ 169 "../../os/kernel/src/chsem.c" 1
 262 000e 83F31188 		msr     BASEPRI, r3
 263              	@ 0 "" 2
 264              		.thumb
 265              	.LBE33:
 266              		.loc 1 171 0
 267 0012 08BD     		pop	{r3, pc}
 268              		.cfi_endproc
 269              	.LFE10:
 270              		.size	chSemWait, .-chSemWait
 271              		.section	.text.chSemWaitTimeoutS,"ax",%progbits
 272              		.align	2
 273              		.global	chSemWaitTimeoutS
 274              		.thumb
 275              		.thumb_func
 276              		.type	chSemWaitTimeoutS, %function
 277              	chSemWaitTimeoutS:
 278              	.LFB13:
 279              		.loc 1 250 0
 280              		.cfi_startproc
 281              		@ args = 0, pretend = 0, frame = 0
 282              		@ frame_needed = 0, uses_anonymous_args = 0
 283              		@ link register save eliminated.
 284              	.LVL24:
 285 0000 0346     		mov	r3, r0
ARM GAS  /tmp/ccaiXF5f.s 			page 6


 286              		.loc 1 254 0
 287 0002 8068     		ldr	r0, [r0, #8]
 288              	.LVL25:
 289              		.loc 1 250 0
 290 0004 10B4     		push	{r4}
 291              		.cfi_def_cfa_offset 4
 292              		.cfi_offset 4, -4
 293              		.loc 1 259 0
 294 0006 421E     		subs	r2, r0, #1
 295 0008 002A     		cmp	r2, #0
 296 000a 9A60     		str	r2, [r3, #8]
 297 000c 03DB     		blt	.L22
 298              		.loc 1 268 0
 299 000e 0020     		movs	r0, #0
 300              	.L19:
 301              		.loc 1 269 0
 302 0010 5DF8044B 		ldr	r4, [sp], #4
 303 0014 7047     		bx	lr
 304              	.L22:
 305              		.loc 1 260 0
 306 0016 61B1     		cbz	r1, .L23
 307              		.loc 1 264 0
 308 0018 084A     		ldr	r2, .L24
 309              		.loc 1 266 0
 310 001a 0320     		movs	r0, #3
 311              		.loc 1 264 0
 312 001c 9269     		ldr	r2, [r2, #24]
 313 001e 5362     		str	r3, [r2, #36]
 314              	.LVL26:
 315              	.LBB34:
 316              	.LBB35:
 317              		.loc 2 55 0
 318 0020 5C68     		ldr	r4, [r3, #4]
 319 0022 82E81800 		stmia	r2, {r3, r4}
 320              		.loc 2 56 0
 321 0026 5A60     		str	r2, [r3, #4]
 322              	.LVL27:
 323 0028 2260     		str	r2, [r4]
 324              	.LVL28:
 325              	.LBE35:
 326              	.LBE34:
 327              		.loc 1 269 0
 328 002a 5DF8044B 		ldr	r4, [sp], #4
 329              		.loc 1 266 0
 330 002e FFF7FEBF 		b	chSchGoSleepTimeoutS
 331              	.LVL29:
 332              	.L23:
 333              		.loc 1 261 0
 334 0032 9860     		str	r0, [r3, #8]
 335              		.loc 1 262 0
 336 0034 4FF0FF30 		mov	r0, #-1
 337 0038 EAE7     		b	.L19
 338              	.L25:
 339 003a 00BF     		.align	2
 340              	.L24:
 341 003c 00000000 		.word	rlist
 342              		.cfi_endproc
ARM GAS  /tmp/ccaiXF5f.s 			page 7


 343              	.LFE13:
 344              		.size	chSemWaitTimeoutS, .-chSemWaitTimeoutS
 345              		.section	.text.chSemWaitTimeout,"ax",%progbits
 346              		.align	2
 347              		.global	chSemWaitTimeout
 348              		.thumb
 349              		.thumb_func
 350              		.type	chSemWaitTimeout, %function
 351              	chSemWaitTimeout:
 352              	.LFB12:
 353              		.loc 1 222 0
 354              		.cfi_startproc
 355              		@ args = 0, pretend = 0, frame = 0
 356              		@ frame_needed = 0, uses_anonymous_args = 0
 357              	.LVL30:
 358 0000 08B5     		push	{r3, lr}
 359              		.cfi_def_cfa_offset 8
 360              		.cfi_offset 3, -8
 361              		.cfi_offset 14, -4
 362              	.LBB36:
 363              		.loc 1 225 0
 364 0002 2023     		movs	r3, #32
 365              	@ 225 "../../os/kernel/src/chsem.c" 1
 366 0004 83F31188 		msr     BASEPRI, r3
 367              	@ 0 "" 2
 368              		.thumb
 369              	.LBE36:
 370              		.loc 1 226 0
 371 0008 FFF7FEFF 		bl	chSemWaitTimeoutS
 372              	.LVL31:
 373              	.LBB37:
 374              		.loc 1 227 0
 375 000c 0023     		movs	r3, #0
 376              	@ 227 "../../os/kernel/src/chsem.c" 1
 377 000e 83F31188 		msr     BASEPRI, r3
 378              	@ 0 "" 2
 379              		.thumb
 380              	.LBE37:
 381              		.loc 1 229 0
 382 0012 08BD     		pop	{r3, pc}
 383              		.cfi_endproc
 384              	.LFE12:
 385              		.size	chSemWaitTimeout, .-chSemWaitTimeout
 386              		.section	.text.chSemSignal,"ax",%progbits
 387              		.align	2
 388              		.global	chSemSignal
 389              		.thumb
 390              		.thumb_func
 391              		.type	chSemSignal, %function
 392              	chSemSignal:
 393              	.LFB14:
 394              		.loc 1 278 0
 395              		.cfi_startproc
 396              		@ args = 0, pretend = 0, frame = 0
 397              		@ frame_needed = 0, uses_anonymous_args = 0
 398              	.LVL32:
 399 0000 08B5     		push	{r3, lr}
ARM GAS  /tmp/ccaiXF5f.s 			page 8


 400              		.cfi_def_cfa_offset 8
 401              		.cfi_offset 3, -8
 402              		.cfi_offset 14, -4
 403              		.loc 1 278 0
 404 0002 0246     		mov	r2, r0
 405              	.LBB38:
 406              		.loc 1 286 0
 407 0004 2023     		movs	r3, #32
 408              	@ 286 "../../os/kernel/src/chsem.c" 1
 409 0006 83F31188 		msr     BASEPRI, r3
 410              	@ 0 "" 2
 411              		.thumb
 412              	.LBE38:
 413              		.loc 1 287 0
 414 000a 8368     		ldr	r3, [r0, #8]
 415 000c 0133     		adds	r3, r3, #1
 416 000e 002B     		cmp	r3, #0
 417 0010 8360     		str	r3, [r0, #8]
 418 0012 03DD     		ble	.L29
 419              	.LBB39:
 420              		.loc 1 289 0
 421 0014 0023     		movs	r3, #0
 422              	@ 289 "../../os/kernel/src/chsem.c" 1
 423 0016 83F31188 		msr     BASEPRI, r3
 424              	@ 0 "" 2
 425              		.thumb
 426 001a 08BD     		pop	{r3, pc}
 427              	.L29:
 428              	.LVL33:
 429              	.LBE39:
 430              	.LBB40:
 431              	.LBB41:
 432              		.loc 2 60 0
 433 001c 0068     		ldr	r0, [r0]
 434              	.LVL34:
 435              	.LBE41:
 436              	.LBE40:
 437              		.loc 1 288 0
 438 001e 0021     		movs	r1, #0
 439              	.LBB43:
 440              	.LBB42:
 441              		.loc 2 62 0
 442 0020 0368     		ldr	r3, [r0]
 443 0022 1360     		str	r3, [r2]
 444 0024 5A60     		str	r2, [r3, #4]
 445              	.LBE42:
 446              	.LBE43:
 447              		.loc 1 288 0
 448 0026 FFF7FEFF 		bl	chSchWakeupS
 449              	.LVL35:
 450              	.LBB44:
 451              		.loc 1 289 0
 452 002a 0023     		movs	r3, #0
 453              	@ 289 "../../os/kernel/src/chsem.c" 1
 454 002c 83F31188 		msr     BASEPRI, r3
 455              	@ 0 "" 2
 456              		.thumb
ARM GAS  /tmp/ccaiXF5f.s 			page 9


 457 0030 08BD     		pop	{r3, pc}
 458              	.LBE44:
 459              		.cfi_endproc
 460              	.LFE14:
 461              		.size	chSemSignal, .-chSemSignal
 462 0032 00BF     		.section	.text.chSemSignalI,"ax",%progbits
 463              		.align	2
 464              		.global	chSemSignalI
 465              		.thumb
 466              		.thumb_func
 467              		.type	chSemSignalI, %function
 468              	chSemSignalI:
 469              	.LFB15:
 470              		.loc 1 303 0
 471              		.cfi_startproc
 472              		@ args = 0, pretend = 0, frame = 0
 473              		@ frame_needed = 0, uses_anonymous_args = 0
 474              		@ link register save eliminated.
 475              	.LVL36:
 476              		.loc 1 312 0
 477 0000 8268     		ldr	r2, [r0, #8]
 478              		.loc 1 303 0
 479 0002 10B4     		push	{r4}
 480              		.cfi_def_cfa_offset 4
 481              		.cfi_offset 4, -4
 482              		.loc 1 312 0
 483 0004 0132     		adds	r2, r2, #1
 484 0006 002A     		cmp	r2, #0
 485              		.loc 1 303 0
 486 0008 0346     		mov	r3, r0
 487              		.loc 1 312 0
 488 000a 8260     		str	r2, [r0, #8]
 489 000c 02DD     		ble	.L32
 490              		.loc 1 319 0
 491 000e 5DF8044B 		ldr	r4, [sp], #4
 492 0012 7047     		bx	lr
 493              	.L32:
 494              	.LVL37:
 495              	.LBB45:
 496              	.LBB46:
 497              	.LBB47:
 498              		.loc 2 60 0
 499 0014 0268     		ldr	r2, [r0]
 500              	.LVL38:
 501              	.LBE47:
 502              	.LBE46:
 503              		.loc 1 316 0
 504 0016 0024     		movs	r4, #0
 505              	.LBB50:
 506              	.LBB48:
 507              		.loc 2 62 0
 508 0018 1168     		ldr	r1, [r2]
 509              	.LBE48:
 510              	.LBE50:
 511              		.loc 1 317 0
 512 001a 1046     		mov	r0, r2
 513              	.LVL39:
ARM GAS  /tmp/ccaiXF5f.s 			page 10


 514              	.LBB51:
 515              	.LBB49:
 516              		.loc 2 62 0
 517 001c 1960     		str	r1, [r3]
 518 001e 4B60     		str	r3, [r1, #4]
 519              	.LBE49:
 520              	.LBE51:
 521              		.loc 1 316 0
 522 0020 5462     		str	r4, [r2, #36]
 523              	.LBE45:
 524              		.loc 1 319 0
 525 0022 5DF8044B 		ldr	r4, [sp], #4
 526              	.LBB52:
 527              		.loc 1 317 0
 528 0026 FFF7FEBF 		b	chSchReadyI
 529              	.LVL40:
 530              	.LBE52:
 531              		.cfi_endproc
 532              	.LFE15:
 533              		.size	chSemSignalI, .-chSemSignalI
 534 002a 00BF     		.section	.text.chSemAddCounterI,"ax",%progbits
 535              		.align	2
 536              		.global	chSemAddCounterI
 537              		.thumb
 538              		.thumb_func
 539              		.type	chSemAddCounterI, %function
 540              	chSemAddCounterI:
 541              	.LFB16:
 542              		.loc 1 334 0
 543              		.cfi_startproc
 544              		@ args = 0, pretend = 0, frame = 0
 545              		@ frame_needed = 0, uses_anonymous_args = 0
 546              	.LVL41:
 547 0000 70B5     		push	{r4, r5, r6, lr}
 548              		.cfi_def_cfa_offset 16
 549              		.cfi_offset 4, -16
 550              		.cfi_offset 5, -12
 551              		.cfi_offset 6, -8
 552              		.cfi_offset 14, -4
 553              		.loc 1 343 0
 554 0002 0C1E     		subs	r4, r1, #0
 555              		.loc 1 334 0
 556 0004 0546     		mov	r5, r0
 557              		.loc 1 343 0
 558 0006 11DD     		ble	.L33
 559              		.loc 1 345 0
 560 0008 0026     		movs	r6, #0
 561 000a 01E0     		b	.L37
 562              	.LVL42:
 563              	.L35:
 564              		.loc 1 343 0
 565 000c 013C     		subs	r4, r4, #1
 566              	.LVL43:
 567 000e 0DD0     		beq	.L33
 568              	.LVL44:
 569              	.L37:
 570              		.loc 1 344 0
ARM GAS  /tmp/ccaiXF5f.s 			page 11


 571 0010 AB68     		ldr	r3, [r5, #8]
 572 0012 0133     		adds	r3, r3, #1
 573 0014 002B     		cmp	r3, #0
 574 0016 AB60     		str	r3, [r5, #8]
 575 0018 F8DC     		bgt	.L35
 576              	.LVL45:
 577              	.LBB53:
 578              	.LBB54:
 579              		.loc 2 60 0
 580 001a 2868     		ldr	r0, [r5]
 581              	.LVL46:
 582              		.loc 2 62 0
 583 001c 0368     		ldr	r3, [r0]
 584 001e 2B60     		str	r3, [r5]
 585 0020 5D60     		str	r5, [r3, #4]
 586              	.LBE54:
 587              	.LBE53:
 588              		.loc 1 345 0
 589 0022 FFF7FEFF 		bl	chSchReadyI
 590              	.LVL47:
 591              		.loc 1 343 0
 592 0026 013C     		subs	r4, r4, #1
 593              	.LVL48:
 594              		.loc 1 345 0
 595 0028 4662     		str	r6, [r0, #36]
 596              	.LVL49:
 597              		.loc 1 343 0
 598 002a F1D1     		bne	.L37
 599              	.LVL50:
 600              	.L33:
 601 002c 70BD     		pop	{r4, r5, r6, pc}
 602              		.cfi_endproc
 603              	.LFE16:
 604              		.size	chSemAddCounterI, .-chSemAddCounterI
 605 002e 00BF     		.section	.text.chSemSignalWait,"ax",%progbits
 606              		.align	2
 607              		.global	chSemSignalWait
 608              		.thumb
 609              		.thumb_func
 610              		.type	chSemSignalWait, %function
 611              	chSemSignalWait:
 612              	.LFB17:
 613              		.loc 1 366 0
 614              		.cfi_startproc
 615              		@ args = 0, pretend = 0, frame = 8
 616              		@ frame_needed = 0, uses_anonymous_args = 0
 617              	.LVL51:
 618 0000 10B5     		push	{r4, lr}
 619              		.cfi_def_cfa_offset 8
 620              		.cfi_offset 4, -8
 621              		.cfi_offset 14, -4
 622 0002 0246     		mov	r2, r0
 623 0004 82B0     		sub	sp, sp, #8
 624              		.cfi_def_cfa_offset 16
 625              	.LBB55:
 626              		.loc 1 379 0
 627 0006 2023     		movs	r3, #32
ARM GAS  /tmp/ccaiXF5f.s 			page 12


 628              	@ 379 "../../os/kernel/src/chsem.c" 1
 629 0008 83F31188 		msr     BASEPRI, r3
 630              	@ 0 "" 2
 631              		.thumb
 632              	.LBE55:
 633              		.loc 1 380 0
 634 000c 8368     		ldr	r3, [r0, #8]
 635 000e 0133     		adds	r3, r3, #1
 636 0010 002B     		cmp	r3, #0
 637 0012 8360     		str	r3, [r0, #8]
 638 0014 1DDD     		ble	.L45
 639              	.LVL52:
 640              	.L42:
 641              		.loc 1 382 0
 642 0016 8B68     		ldr	r3, [r1, #8]
 643 0018 013B     		subs	r3, r3, #1
 644 001a 002B     		cmp	r3, #0
 645 001c 8B60     		str	r3, [r1, #8]
 646 001e 07DB     		blt	.L46
 647              		.loc 1 390 0
 648 0020 FFF7FEFF 		bl	chSchRescheduleS
 649              	.LVL53:
 650              		.loc 1 391 0
 651 0024 0020     		movs	r0, #0
 652              	.LVL54:
 653              	.LBB56:
 654              		.loc 1 393 0
 655 0026 0023     		movs	r3, #0
 656              	@ 393 "../../os/kernel/src/chsem.c" 1
 657 0028 83F31188 		msr     BASEPRI, r3
 658              	@ 0 "" 2
 659              		.thumb
 660              	.LBE56:
 661              		.loc 1 395 0
 662 002c 02B0     		add	sp, sp, #8
 663              		@ sp needed
 664 002e 10BD     		pop	{r4, pc}
 665              	.LVL55:
 666              	.L46:
 667              	.LBB57:
 668              		.loc 1 383 0
 669 0030 0D4A     		ldr	r2, .L47
 670              	.LBB58:
 671              	.LBB59:
 672              		.loc 2 55 0
 673 0032 4B68     		ldr	r3, [r1, #4]
 674              	.LBE59:
 675              	.LBE58:
 676              		.loc 1 383 0
 677 0034 9469     		ldr	r4, [r2, #24]
 678              	.LVL56:
 679              		.loc 1 386 0
 680 0036 0320     		movs	r0, #3
 681              	.LBB61:
 682              	.LBB60:
 683              		.loc 2 55 0
 684 0038 84E80A00 		stmia	r4, {r1, r3}
ARM GAS  /tmp/ccaiXF5f.s 			page 13


 685              		.loc 2 56 0
 686 003c 4C60     		str	r4, [r1, #4]
 687 003e 1C60     		str	r4, [r3]
 688              	.LBE60:
 689              	.LBE61:
 690              		.loc 1 385 0
 691 0040 6162     		str	r1, [r4, #36]
 692              		.loc 1 386 0
 693 0042 FFF7FEFF 		bl	chSchGoSleepS
 694              	.LVL57:
 695              		.loc 1 387 0
 696 0046 606A     		ldr	r0, [r4, #36]
 697              	.LVL58:
 698              	.LBE57:
 699              	.LBB62:
 700              		.loc 1 393 0
 701 0048 0023     		movs	r3, #0
 702              	@ 393 "../../os/kernel/src/chsem.c" 1
 703 004a 83F31188 		msr     BASEPRI, r3
 704              	@ 0 "" 2
 705              		.thumb
 706              	.LBE62:
 707              		.loc 1 395 0
 708 004e 02B0     		add	sp, sp, #8
 709              		@ sp needed
 710 0050 10BD     		pop	{r4, pc}
 711              	.LVL59:
 712              	.L45:
 713              	.LBB63:
 714              	.LBB64:
 715              		.loc 2 60 0
 716 0052 0068     		ldr	r0, [r0]
 717              	.LVL60:
 718              		.loc 2 62 0
 719 0054 0368     		ldr	r3, [r0]
 720 0056 1360     		str	r3, [r2]
 721 0058 5A60     		str	r2, [r3, #4]
 722              	.LBE64:
 723              	.LBE63:
 724              		.loc 1 381 0
 725 005a 0191     		str	r1, [sp, #4]
 726 005c FFF7FEFF 		bl	chSchReadyI
 727              	.LVL61:
 728 0060 0023     		movs	r3, #0
 729 0062 4362     		str	r3, [r0, #36]
 730 0064 0199     		ldr	r1, [sp, #4]
 731 0066 D6E7     		b	.L42
 732              	.L48:
 733              		.align	2
 734              	.L47:
 735 0068 00000000 		.word	rlist
 736              		.cfi_endproc
 737              	.LFE17:
 738              		.size	chSemSignalWait, .-chSemSignalWait
 739              		.text
 740              	.Letext0:
 741              		.file 3 "/usr/include/newlib/machine/_default_types.h"
ARM GAS  /tmp/ccaiXF5f.s 			page 14


 742              		.file 4 "/usr/include/newlib/stdint.h"
 743              		.file 5 "../../os/ports/GCC/ARMCMx/chtypes.h"
 744              		.file 6 "../../os/kernel/include/chlists.h"
 745              		.file 7 "../../os/kernel/include/chthreads.h"
 746              		.file 8 "../../os/ports/GCC/ARMCMx/chcore_v7m.h"
 747              		.file 9 "../../os/kernel/include/chschd.h"
 748              		.file 10 "../../os/kernel/include/chsem.h"
 749              		.file 11 "../../os/kernel/include/chmtx.h"