ARM GAS  /tmp/ccR0CH5F.s 			page 1


   1              		.syntax unified
   2              		.cpu cortex-m3
   3              		.fpu softvfp
   4              		.eabi_attribute 20, 1
   5              		.eabi_attribute 21, 1
   6              		.eabi_attribute 23, 3
   7              		.eabi_attribute 24, 1
   8              		.eabi_attribute 25, 1
   9              		.eabi_attribute 26, 1
  10              		.eabi_attribute 30, 2
  11              		.eabi_attribute 34, 1
  12              		.eabi_attribute 18, 4
  13              		.thumb
  14              		.file	"chsys.c"
  15              		.text
  16              	.Ltext0:
  17              		.cfi_sections	.debug_frame
  18              		.section	.text._idle_thread,"ax",%progbits
  19              		.align	2
  20              		.global	_idle_thread
  21              		.thumb
  22              		.thumb_func
  23              		.type	_idle_thread, %function
  24              	_idle_thread:
  25              	.LFB7:
  26              		.file 1 "../../os/kernel/src/chsys.c"
  27              		.loc 1 61 0
  28              		.cfi_startproc
  29              		@ Volatile: function does not return.
  30              		@ args = 0, pretend = 0, frame = 0
  31              		@ frame_needed = 0, uses_anonymous_args = 0
  32              		@ link register save eliminated.
  33              	.LVL0:
  34              		.loc 1 64 0
  35 0000 024B     		ldr	r3, .L4
  36 0002 034A     		ldr	r2, .L4+4
  37 0004 9B69     		ldr	r3, [r3, #24]
  38 0006 9A61     		str	r2, [r3, #24]
  39              	.L2:
  40 0008 FEE7     		b	.L2
  41              	.L5:
  42 000a 00BF     		.align	2
  43              	.L4:
  44 000c 00000000 		.word	rlist
  45 0010 00000000 		.word	.LC0
  46              		.cfi_endproc
  47              	.LFE7:
  48              		.size	_idle_thread, .-_idle_thread
  49              		.section	.text.chSysInit,"ax",%progbits
  50              		.align	2
  51              		.global	chSysInit
  52              		.thumb
  53              		.thumb_func
  54              		.type	chSysInit, %function
  55              	chSysInit:
  56              	.LFB8:
  57              		.loc 1 84 0
ARM GAS  /tmp/ccR0CH5F.s 			page 2


  58              		.cfi_startproc
  59              		@ args = 0, pretend = 0, frame = 0
  60              		@ frame_needed = 0, uses_anonymous_args = 0
  61 0000 00B5     		push	{lr}
  62              		.cfi_def_cfa_offset 4
  63              		.cfi_offset 14, -4
  64 0002 83B0     		sub	sp, sp, #12
  65              		.cfi_def_cfa_offset 16
  66              		.loc 1 90 0
  67 0004 FFF7FEFF 		bl	_port_init
  68              	.LVL1:
  69              		.loc 1 91 0
  70 0008 FFF7FEFF 		bl	_scheduler_init
  71              	.LVL2:
  72              		.loc 1 92 0
  73 000c FFF7FEFF 		bl	_vt_init
  74              	.LVL3:
  75              		.loc 1 94 0
  76 0010 FFF7FEFF 		bl	_core_init
  77              	.LVL4:
  78              		.loc 1 97 0
  79 0014 FFF7FEFF 		bl	_heap_init
  80              	.LVL5:
  81              		.loc 1 104 0
  82 0018 4021     		movs	r1, #64
  83 001a 0B48     		ldr	r0, .L7
  84 001c FFF7FEFF 		bl	_thread_init
  85              	.LVL6:
  86 0020 0A49     		ldr	r1, .L7+4
  87              		.loc 1 105 0
  88 0022 0122     		movs	r2, #1
  89              		.loc 1 104 0
  90 0024 8861     		str	r0, [r1, #24]
  91              		.loc 1 105 0
  92 0026 0277     		strb	r2, [r0, #28]
  93              	.LBB2:
  94              		.loc 1 111 0
  95 0028 0023     		movs	r3, #0
  96              	@ 111 "../../os/kernel/src/chsys.c" 1
  97 002a 83F31188 		msr     BASEPRI, r3                    
  98 002e 62B6     		cpsie   i
  99              	@ 0 "" 2
 100              		.thumb
 101              	.LBE2:
 102              		.loc 1 115 0
 103 0030 0748     		ldr	r0, .L7+8
 104 0032 8969     		ldr	r1, [r1, #24]
 105 0034 8861     		str	r0, [r1, #24]
 106              		.loc 1 121 0
 107 0036 0093     		str	r3, [sp]
 108 0038 C021     		movs	r1, #192
 109 003a 064B     		ldr	r3, .L7+12
 110 003c 0648     		ldr	r0, .L7+16
 111 003e FFF7FEFF 		bl	chThdCreateStatic
 112              	.LVL7:
 113              		.loc 1 124 0
 114 0042 03B0     		add	sp, sp, #12
ARM GAS  /tmp/ccR0CH5F.s 			page 3


 115              		@ sp needed
 116 0044 5DF804FB 		ldr	pc, [sp], #4
 117              	.L8:
 118              		.align	2
 119              	.L7:
 120 0048 00000000 		.word	.LANCHOR0
 121 004c 00000000 		.word	rlist
 122 0050 00000000 		.word	ch_debug
 123 0054 00000000 		.word	_idle_thread
 124 0058 00000000 		.word	.LANCHOR1
 125              		.cfi_endproc
 126              	.LFE8:
 127              		.size	chSysInit, .-chSysInit
 128              		.section	.text.chSysTimerHandlerI,"ax",%progbits
 129              		.align	2
 130              		.global	chSysTimerHandlerI
 131              		.thumb
 132              		.thumb_func
 133              		.type	chSysTimerHandlerI, %function
 134              	chSysTimerHandlerI:
 135              	.LFB9:
 136              		.loc 1 137 0
 137              		.cfi_startproc
 138              		@ args = 0, pretend = 0, frame = 0
 139              		@ frame_needed = 0, uses_anonymous_args = 0
 140 0000 70B5     		push	{r4, r5, r6, lr}
 141              		.cfi_def_cfa_offset 16
 142              		.cfi_offset 4, -16
 143              		.cfi_offset 5, -12
 144              		.cfi_offset 6, -8
 145              		.cfi_offset 14, -4
 146              		.loc 1 143 0
 147 0002 134B     		ldr	r3, .L17
 148 0004 9B69     		ldr	r3, [r3, #24]
 149 0006 DA7F     		ldrb	r2, [r3, #31]	@ zero_extendqisi2
 150 0008 0AB1     		cbz	r2, .L10
 151              		.loc 1 145 0
 152 000a 013A     		subs	r2, r2, #1
 153 000c DA77     		strb	r2, [r3, #31]
 154              	.L10:
 155              		.loc 1 148 0
 156 000e 1A6A     		ldr	r2, [r3, #32]
 157              		.loc 1 150 0
 158 0010 104C     		ldr	r4, .L17+4
 159              		.loc 1 148 0
 160 0012 0132     		adds	r2, r2, #1
 161 0014 1A62     		str	r2, [r3, #32]
 162              		.loc 1 150 0
 163 0016 E368     		ldr	r3, [r4, #12]
 164 0018 2268     		ldr	r2, [r4]
 165 001a 0133     		adds	r3, r3, #1
 166 001c A242     		cmp	r2, r4
 167 001e E360     		str	r3, [r4, #12]
 168 0020 14D0     		beq	.L9
 169              	.LBB3:
 170              		.loc 1 150 0 is_stmt 0 discriminator 1
 171 0022 9668     		ldr	r6, [r2, #8]
ARM GAS  /tmp/ccR0CH5F.s 			page 4


 172 0024 013E     		subs	r6, r6, #1
 173 0026 9660     		str	r6, [r2, #8]
 174              	.LVL8:
 175 0028 86B9     		cbnz	r6, .L9
 176              	.L13:
 177              	.LBB4:
 178              		.loc 1 150 0 discriminator 2
 179 002a 1168     		ldr	r1, [r2]
 180 002c D568     		ldr	r5, [r2, #12]
 181              	.LVL9:
 182 002e 2160     		str	r1, [r4]
 183 0030 D660     		str	r6, [r2, #12]
 184              	.LBB5:
 185 0032 0023     		movs	r3, #0
 186              	.LBE5:
 187 0034 4C60     		str	r4, [r1, #4]
 188              	.LBB6:
 189              	@ 150 "../../os/kernel/src/chsys.c" 1
 190 0036 83F31188 		msr     BASEPRI, r3
 191              	@ 0 "" 2
 192              		.thumb
 193              	.LBE6:
 194 003a 1069     		ldr	r0, [r2, #16]
 195 003c A847     		blx	r5
 196              	.LVL10:
 197              	.LBB7:
 198 003e 2023     		movs	r3, #32
 199              	@ 150 "../../os/kernel/src/chsys.c" 1
 200 0040 83F31188 		msr     BASEPRI, r3
 201              	@ 0 "" 2
 202              		.thumb
 203              	.LBE7:
 204              	.LBE4:
 205 0044 2268     		ldr	r2, [r4]
 206              	.LVL11:
 207 0046 9368     		ldr	r3, [r2, #8]
 208 0048 002B     		cmp	r3, #0
 209 004a EED0     		beq	.L13
 210              	.LVL12:
 211              	.L9:
 212 004c 70BD     		pop	{r4, r5, r6, pc}
 213              	.L18:
 214 004e 00BF     		.align	2
 215              	.L17:
 216 0050 00000000 		.word	rlist
 217 0054 00000000 		.word	vtlist
 218              	.LBE3:
 219              		.cfi_endproc
 220              	.LFE9:
 221              		.size	chSysTimerHandlerI, .-chSysTimerHandlerI
 222              		.global	_idle_thread_wa
 223              		.section	.rodata.str1.4,"aMS",%progbits,1
 224              		.align	2
 225              	.LC0:
 226 0000 69646C65 		.ascii	"idle\000"
 226      00
 227 0005 000000   		.section	.bss.mainthread.4797,"aw",%nobits
ARM GAS  /tmp/ccR0CH5F.s 			page 5


 228              		.align	2
 229              		.set	.LANCHOR0,. + 0
 230              		.type	mainthread.4797, %object
 231              		.size	mainthread.4797, 72
 232              	mainthread.4797:
 233 0000 00000000 		.space	72
 233      00000000 
 233      00000000 
 233      00000000 
 233      00000000 
 234              		.section	.bss._idle_thread_wa,"aw",%nobits
 235              		.align	3
 236              		.set	.LANCHOR1,. + 0
 237              		.type	_idle_thread_wa, %object
 238              		.size	_idle_thread_wa, 192
 239              	_idle_thread_wa:
 240 0000 00000000 		.space	192
 240      00000000 
 240      00000000 
 240      00000000 
 240      00000000 
 241              		.text
 242              	.Letext0:
 243              		.file 2 "/usr/lib/gcc/arm-none-eabi/4.8/include/stddef.h"
 244              		.file 3 "/usr/include/newlib/machine/_default_types.h"
 245              		.file 4 "/usr/include/newlib/stdint.h"
 246              		.file 5 "../../os/ports/GCC/ARMCMx/chtypes.h"
 247              		.file 6 "../../os/kernel/include/chlists.h"
 248              		.file 7 "../../os/kernel/include/chthreads.h"
 249              		.file 8 "../../os/ports/GCC/ARMCMx/chcore_v7m.h"
 250              		.file 9 "../../os/kernel/include/chvt.h"
 251              		.file 10 "../../os/kernel/include/chschd.h"
 252              		.file 11 "../../os/kernel/include/chmtx.h"
 253              		.file 12 "../../os/kernel/include/chregistry.h"
 254              		.file 13 "../../os/kernel/include/chmemcore.h"
 255              		.file 14 "../../os/kernel/include/chheap.h"