ARM GAS  /tmp/ccwhlLdW.s 			page 1


   1              		.syntax unified
   2              		.cpu cortex-m3
   3              		.fpu softvfp
   4              		.eabi_attribute 20, 1
   5              		.eabi_attribute 21, 1
   6              		.eabi_attribute 23, 3
   7              		.eabi_attribute 24, 1
   8              		.eabi_attribute 25, 1
   9              		.eabi_attribute 26, 1
  10              		.eabi_attribute 30, 2
  11              		.eabi_attribute 34, 1
  12              		.eabi_attribute 18, 4
  13              		.thumb
  14              		.file	"chthreads.c"
  15              		.text
  16              	.Ltext0:
  17              		.cfi_sections	.debug_frame
  18              		.section	.text._thread_init,"ax",%progbits
  19              		.align	2
  20              		.global	_thread_init
  21              		.thumb
  22              		.thumb_func
  23              		.type	_thread_init, %function
  24              	_thread_init:
  25              	.LFB7:
  26              		.file 1 "../../os/kernel/src/chthreads.c"
  27              		.loc 1 76 0
  28              		.cfi_startproc
  29              		@ args = 0, pretend = 0, frame = 0
  30              		@ frame_needed = 0, uses_anonymous_args = 0
  31              		@ link register save eliminated.
  32              	.LVL0:
  33 0000 2DE9F003 		push	{r4, r5, r6, r7, r8, r9}
  34              		.cfi_def_cfa_offset 24
  35              		.cfi_offset 4, -24
  36              		.cfi_offset 5, -20
  37              		.cfi_offset 6, -16
  38              		.cfi_offset 7, -12
  39              		.cfi_offset 8, -8
  40              		.cfi_offset 9, -4
  41              		.loc 1 99 0
  42 0004 114C     		ldr	r4, .L2
  43              		.loc 1 80 0
  44 0006 0022     		movs	r2, #0
  45              		.loc 1 99 0
  46 0008 6569     		ldr	r5, [r4, #20]
  47              		.loc 1 105 0
  48 000a 00F12C06 		add	r6, r0, #44
  49              		.loc 1 79 0
  50 000e 4FF00209 		mov	r9, #2
  51              		.loc 1 82 0
  52 0012 4FF01408 		mov	r8, #20
  53              		.loc 1 102 0
  54 0016 00F12807 		add	r7, r0, #40
  55              		.loc 1 95 0
  56 001a 4FF0010C 		mov	ip, #1
  57              		.loc 1 99 0
ARM GAS  /tmp/ccwhlLdW.s 			page 2


  58 001e 4561     		str	r5, [r0, #20]
  59 0020 0461     		str	r4, [r0, #16]
  60              		.loc 1 78 0
  61 0022 8160     		str	r1, [r0, #8]
  62              		.loc 1 79 0
  63 0024 80F81C90 		strb	r9, [r0, #28]
  64              		.loc 1 99 0
  65 0028 6061     		str	r0, [r4, #20]
  66              		.loc 1 82 0
  67 002a 80F81F80 		strb	r8, [r0, #31]
  68              		.loc 1 85 0
  69 002e 0164     		str	r1, [r0, #64]
  70              		.loc 1 95 0
  71 0030 80F81EC0 		strb	ip, [r0, #30]
  72              		.loc 1 80 0
  73 0034 4277     		strb	r2, [r0, #29]
  74              		.loc 1 86 0
  75 0036 C263     		str	r2, [r0, #60]
  76              		.loc 1 89 0
  77 0038 8263     		str	r2, [r0, #56]
  78              		.loc 1 92 0
  79 003a 0262     		str	r2, [r0, #32]
  80              		.loc 1 98 0
  81 003c 8261     		str	r2, [r0, #24]
  82              		.loc 1 99 0
  83 003e 2861     		str	r0, [r5, #16]
  84              		.loc 1 102 0
  85 0040 8762     		str	r7, [r0, #40]
  86              		.loc 1 105 0
  87 0042 0663     		str	r6, [r0, #48]
  88 0044 C662     		str	r6, [r0, #44]
  89              		.loc 1 114 0
  90 0046 BDE8F003 		pop	{r4, r5, r6, r7, r8, r9}
  91 004a 7047     		bx	lr
  92              	.L3:
  93              		.align	2
  94              	.L2:
  95 004c 00000000 		.word	rlist
  96              		.cfi_endproc
  97              	.LFE7:
  98              		.size	_thread_init, .-_thread_init
  99              		.section	.text.chThdCreateI,"ax",%progbits
 100              		.align	2
 101              		.global	chThdCreateI
 102              		.thumb
 103              		.thumb_func
 104              		.type	chThdCreateI, %function
 105              	chThdCreateI:
 106              	.LFB8:
 107              		.loc 1 158 0
 108              		.cfi_startproc
 109              		@ args = 4, pretend = 0, frame = 8
 110              		@ frame_needed = 0, uses_anonymous_args = 0
 111              		@ link register save eliminated.
 112              	.LVL1:
 113 0000 2DE9F00F 		push	{r4, r5, r6, r7, r8, r9, r10, fp}
 114              		.cfi_def_cfa_offset 32
ARM GAS  /tmp/ccwhlLdW.s 			page 3


 115              		.cfi_offset 4, -32
 116              		.cfi_offset 5, -28
 117              		.cfi_offset 6, -24
 118              		.cfi_offset 7, -20
 119              		.cfi_offset 8, -16
 120              		.cfi_offset 9, -12
 121              		.cfi_offset 10, -8
 122              		.cfi_offset 11, -4
 123              	.LBB16:
 124              	.LBB17:
 125              		.loc 1 99 0
 126 0004 194D     		ldr	r5, .L5
 127              	.LBE17:
 128              	.LBE16:
 129              		.loc 1 167 0
 130 0006 2439     		subs	r1, r1, #36
 131              	.LVL2:
 132 0008 4618     		adds	r6, r0, r1
 133              	.LBB22:
 134              	.LBB18:
 135              		.loc 1 99 0
 136 000a 6F69     		ldr	r7, [r5, #20]
 137              	.LBE18:
 138              	.LBE22:
 139              		.loc 1 158 0
 140 000c 82B0     		sub	sp, sp, #8
 141              		.cfi_def_cfa_offset 40
 142              		.loc 1 167 0
 143 000e C660     		str	r6, [r0, #12]
 144 0010 4350     		str	r3, [r0, r1]
 145              	.LBB23:
 146              	.LBB19:
 147              		.loc 1 102 0
 148 0012 00F12801 		add	r1, r0, #40
 149              	.LVL3:
 150 0016 0191     		str	r1, [sp, #4]
 151              	.LBE19:
 152              	.LBE23:
 153              		.loc 1 167 0
 154 0018 DFF854C0 		ldr	ip, .L5+4
 155 001c 0A99     		ldr	r1, [sp, #40]
 156              	.LBB24:
 157              	.LBB20:
 158              		.loc 1 80 0
 159 001e 0023     		movs	r3, #0
 160              	.LVL4:
 161              	.LBE20:
 162              	.LBE24:
 163              		.loc 1 167 0
 164 0020 7160     		str	r1, [r6, #4]
 165 0022 C6F820C0 		str	ip, [r6, #32]
 166              	.LVL5:
 167              	.LBB25:
 168              	.LBB21:
 169              		.loc 1 80 0
 170 0026 4377     		strb	r3, [r0, #29]
 171              	.LVL6:
ARM GAS  /tmp/ccwhlLdW.s 			page 4


 172              		.loc 1 86 0
 173 0028 C363     		str	r3, [r0, #60]
 174              		.loc 1 89 0
 175 002a 8363     		str	r3, [r0, #56]
 176              		.loc 1 92 0
 177 002c 0362     		str	r3, [r0, #32]
 178              		.loc 1 98 0
 179 002e 8361     		str	r3, [r0, #24]
 180              		.loc 1 102 0
 181 0030 019B     		ldr	r3, [sp, #4]
 182              		.loc 1 105 0
 183 0032 00F12C0B 		add	fp, r0, #44
 184              		.loc 1 79 0
 185 0036 4FF0020A 		mov	r10, #2
 186              		.loc 1 82 0
 187 003a 4FF01409 		mov	r9, #20
 188              		.loc 1 95 0
 189 003e 4FF00108 		mov	r8, #1
 190              		.loc 1 78 0
 191 0042 8260     		str	r2, [r0, #8]
 192              		.loc 1 99 0
 193 0044 0561     		str	r5, [r0, #16]
 194 0046 4761     		str	r7, [r0, #20]
 195              		.loc 1 85 0
 196 0048 0264     		str	r2, [r0, #64]
 197              		.loc 1 79 0
 198 004a 80F81CA0 		strb	r10, [r0, #28]
 199              		.loc 1 82 0
 200 004e 80F81F90 		strb	r9, [r0, #31]
 201              		.loc 1 95 0
 202 0052 80F81E80 		strb	r8, [r0, #30]
 203              		.loc 1 99 0
 204 0056 6861     		str	r0, [r5, #20]
 205 0058 3861     		str	r0, [r7, #16]
 206              		.loc 1 102 0
 207 005a 8362     		str	r3, [r0, #40]
 208              		.loc 1 105 0
 209 005c C0F830B0 		str	fp, [r0, #48]
 210 0060 C0F82CB0 		str	fp, [r0, #44]
 211              	.LBE21:
 212              	.LBE25:
 213              		.loc 1 169 0
 214 0064 02B0     		add	sp, sp, #8
 215              		@ sp needed
 216 0066 BDE8F00F 		pop	{r4, r5, r6, r7, r8, r9, r10, fp}
 217              	.LVL7:
 218 006a 7047     		bx	lr
 219              	.L6:
 220              		.align	2
 221              	.L5:
 222 006c 00000000 		.word	rlist
 223 0070 00000000 		.word	_port_thread_start
 224              		.cfi_endproc
 225              	.LFE8:
 226              		.size	chThdCreateI, .-chThdCreateI
 227              		.section	.text.chThdCreateStatic,"ax",%progbits
 228              		.align	2
ARM GAS  /tmp/ccwhlLdW.s 			page 5


 229              		.global	chThdCreateStatic
 230              		.thumb
 231              		.thumb_func
 232              		.type	chThdCreateStatic, %function
 233              	chThdCreateStatic:
 234              	.LFB9:
 235              		.loc 1 188 0
 236              		.cfi_startproc
 237              		@ args = 4, pretend = 0, frame = 0
 238              		@ frame_needed = 0, uses_anonymous_args = 0
 239              	.LVL8:
 240 0000 2DE9F84F 		push	{r3, r4, r5, r6, r7, r8, r9, r10, fp, lr}
 241              		.cfi_def_cfa_offset 40
 242              		.cfi_offset 3, -40
 243              		.cfi_offset 4, -36
 244              		.cfi_offset 5, -32
 245              		.cfi_offset 6, -28
 246              		.cfi_offset 7, -24
 247              		.cfi_offset 8, -20
 248              		.cfi_offset 9, -16
 249              		.cfi_offset 10, -12
 250              		.cfi_offset 11, -8
 251              		.cfi_offset 14, -4
 252              		.loc 1 188 0
 253 0004 1D46     		mov	r5, r3
 254 0006 0446     		mov	r4, r0
 255              	.LBB26:
 256              		.loc 1 199 0
 257 0008 2023     		movs	r3, #32
 258              	.LVL9:
 259              	@ 199 "../../os/kernel/src/chthreads.c" 1
 260 000a 83F31188 		msr     BASEPRI, r3
 261              	@ 0 "" 2
 262              	.LVL10:
 263              		.thumb
 264              	.LBE26:
 265              	.LBB27:
 266              	.LBB28:
 267              	.LBB29:
 268              	.LBB30:
 269              		.loc 1 99 0
 270 000e 1C4E     		ldr	r6, .L8
 271              	.LBE30:
 272              	.LBE29:
 273              		.loc 1 167 0
 274 0010 A1F12403 		sub	r3, r1, #36
 275              	.LBB35:
 276              	.LBB31:
 277              		.loc 1 99 0
 278 0014 D6F814E0 		ldr	lr, [r6, #20]
 279              	.LBE31:
 280              	.LBE35:
 281              		.loc 1 167 0
 282 0018 C718     		adds	r7, r0, r3
 283 001a 0A99     		ldr	r1, [sp, #40]
 284              	.LVL11:
 285 001c DFF864B0 		ldr	fp, .L8+4
ARM GAS  /tmp/ccwhlLdW.s 			page 6


 286 0020 C760     		str	r7, [r0, #12]
 287              	.LBB36:
 288              	.LBB32:
 289              		.loc 1 102 0
 290 0022 00F1280C 		add	ip, r0, #40
 291              	.LBE32:
 292              	.LBE36:
 293              		.loc 1 167 0
 294 0026 C550     		str	r5, [r0, r3]
 295              	.LBB37:
 296              	.LBB33:
 297              		.loc 1 79 0
 298 0028 4FF0020A 		mov	r10, #2
 299              		.loc 1 80 0
 300 002c 0025     		movs	r5, #0
 301              	.LVL12:
 302              		.loc 1 105 0
 303 002e 00F12C03 		add	r3, r0, #44
 304              	.LVL13:
 305              		.loc 1 82 0
 306 0032 4FF01409 		mov	r9, #20
 307              		.loc 1 95 0
 308 0036 4FF00108 		mov	r8, #1
 309              	.LBE33:
 310              	.LBE37:
 311              		.loc 1 167 0
 312 003a 7960     		str	r1, [r7, #4]
 313 003c C7F820B0 		str	fp, [r7, #32]
 314              	.LVL14:
 315              	.LBE28:
 316              	.LBE27:
 317              		.loc 1 200 0
 318 0040 2946     		mov	r1, r5
 319              	.LBB40:
 320              	.LBB39:
 321              	.LBB38:
 322              	.LBB34:
 323              		.loc 1 78 0
 324 0042 8260     		str	r2, [r0, #8]
 325              		.loc 1 99 0
 326 0044 0661     		str	r6, [r0, #16]
 327 0046 C0F814E0 		str	lr, [r0, #20]
 328              		.loc 1 85 0
 329 004a 0264     		str	r2, [r0, #64]
 330              		.loc 1 79 0
 331 004c 80F81CA0 		strb	r10, [r0, #28]
 332              	.LVL15:
 333              		.loc 1 82 0
 334 0050 80F81F90 		strb	r9, [r0, #31]
 335              		.loc 1 95 0
 336 0054 80F81E80 		strb	r8, [r0, #30]
 337              		.loc 1 80 0
 338 0058 4577     		strb	r5, [r0, #29]
 339              		.loc 1 99 0
 340 005a 7061     		str	r0, [r6, #20]
 341              		.loc 1 86 0
 342 005c C563     		str	r5, [r0, #60]
ARM GAS  /tmp/ccwhlLdW.s 			page 7


 343              		.loc 1 89 0
 344 005e 8563     		str	r5, [r0, #56]
 345              		.loc 1 92 0
 346 0060 0562     		str	r5, [r0, #32]
 347              		.loc 1 98 0
 348 0062 8561     		str	r5, [r0, #24]
 349              		.loc 1 99 0
 350 0064 CEF81000 		str	r0, [lr, #16]
 351              		.loc 1 105 0
 352 0068 0363     		str	r3, [r0, #48]
 353 006a C362     		str	r3, [r0, #44]
 354              		.loc 1 102 0
 355 006c C0F828C0 		str	ip, [r0, #40]
 356              	.LBE34:
 357              	.LBE38:
 358              	.LBE39:
 359              	.LBE40:
 360              		.loc 1 200 0
 361 0070 FFF7FEFF 		bl	chSchWakeupS
 362              	.LVL16:
 363              	.LBB41:
 364              		.loc 1 201 0
 365 0074 2B46     		mov	r3, r5
 366              	@ 201 "../../os/kernel/src/chthreads.c" 1
 367 0076 83F31188 		msr     BASEPRI, r3
 368              	@ 0 "" 2
 369              		.thumb
 370              	.LBE41:
 371              		.loc 1 203 0
 372 007a 2046     		mov	r0, r4
 373 007c BDE8F88F 		pop	{r3, r4, r5, r6, r7, r8, r9, r10, fp, pc}
 374              	.LVL17:
 375              	.L9:
 376              		.align	2
 377              	.L8:
 378 0080 00000000 		.word	rlist
 379 0084 00000000 		.word	_port_thread_start
 380              		.cfi_endproc
 381              	.LFE9:
 382              		.size	chThdCreateStatic, .-chThdCreateStatic
 383              		.section	.text.chThdSetPriority,"ax",%progbits
 384              		.align	2
 385              		.global	chThdSetPriority
 386              		.thumb
 387              		.thumb_func
 388              		.type	chThdSetPriority, %function
 389              	chThdSetPriority:
 390              	.LFB10:
 391              		.loc 1 217 0
 392              		.cfi_startproc
 393              		@ args = 0, pretend = 0, frame = 0
 394              		@ frame_needed = 0, uses_anonymous_args = 0
 395              	.LVL18:
 396 0000 10B5     		push	{r4, lr}
 397              		.cfi_def_cfa_offset 8
 398              		.cfi_offset 4, -8
 399              		.cfi_offset 14, -4
ARM GAS  /tmp/ccwhlLdW.s 			page 8


 400              	.LBB42:
 401              		.loc 1 222 0
 402 0002 2023     		movs	r3, #32
 403              	@ 222 "../../os/kernel/src/chthreads.c" 1
 404 0004 83F31188 		msr     BASEPRI, r3
 405              	@ 0 "" 2
 406              		.thumb
 407              	.LBE42:
 408              		.loc 1 224 0
 409 0008 084B     		ldr	r3, .L14
 410 000a 9B69     		ldr	r3, [r3, #24]
 411 000c 1C6C     		ldr	r4, [r3, #64]
 412              	.LVL19:
 413              		.loc 1 225 0
 414 000e 9968     		ldr	r1, [r3, #8]
 415 0010 8C42     		cmp	r4, r1
 416 0012 01D0     		beq	.L11
 417              		.loc 1 225 0 is_stmt 0 discriminator 1
 418 0014 8142     		cmp	r1, r0
 419 0016 00D2     		bcs	.L12
 420              	.L11:
 421              		.loc 1 226 0 is_stmt 1
 422 0018 9860     		str	r0, [r3, #8]
 423              	.L12:
 424              		.loc 1 227 0
 425 001a 1864     		str	r0, [r3, #64]
 426              		.loc 1 232 0
 427 001c FFF7FEFF 		bl	chSchRescheduleS
 428              	.LVL20:
 429              	.LBB43:
 430              		.loc 1 233 0
 431 0020 0023     		movs	r3, #0
 432              	@ 233 "../../os/kernel/src/chthreads.c" 1
 433 0022 83F31188 		msr     BASEPRI, r3
 434              	@ 0 "" 2
 435              		.thumb
 436              	.LBE43:
 437              		.loc 1 235 0
 438 0026 2046     		mov	r0, r4
 439 0028 10BD     		pop	{r4, pc}
 440              	.LVL21:
 441              	.L15:
 442 002a 00BF     		.align	2
 443              	.L14:
 444 002c 00000000 		.word	rlist
 445              		.cfi_endproc
 446              	.LFE10:
 447              		.size	chThdSetPriority, .-chThdSetPriority
 448              		.section	.text.chThdResume,"ax",%progbits
 449              		.align	2
 450              		.global	chThdResume
 451              		.thumb
 452              		.thumb_func
 453              		.type	chThdResume, %function
 454              	chThdResume:
 455              	.LFB11:
 456              		.loc 1 250 0
ARM GAS  /tmp/ccwhlLdW.s 			page 9


 457              		.cfi_startproc
 458              		@ args = 0, pretend = 0, frame = 0
 459              		@ frame_needed = 0, uses_anonymous_args = 0
 460              	.LVL22:
 461 0000 10B5     		push	{r4, lr}
 462              		.cfi_def_cfa_offset 8
 463              		.cfi_offset 4, -8
 464              		.cfi_offset 14, -4
 465              	.LBB44:
 466              		.loc 1 252 0
 467 0002 2023     		movs	r3, #32
 468              	.LBE44:
 469              		.loc 1 250 0
 470 0004 0446     		mov	r4, r0
 471              	.LBB45:
 472              		.loc 1 252 0
 473              	@ 252 "../../os/kernel/src/chthreads.c" 1
 474 0006 83F31188 		msr     BASEPRI, r3
 475              	@ 0 "" 2
 476              		.thumb
 477              	.LBE45:
 478              		.loc 1 256 0
 479 000a 0021     		movs	r1, #0
 480 000c FFF7FEFF 		bl	chSchWakeupS
 481              	.LVL23:
 482              	.LBB46:
 483              		.loc 1 257 0
 484 0010 0023     		movs	r3, #0
 485              	@ 257 "../../os/kernel/src/chthreads.c" 1
 486 0012 83F31188 		msr     BASEPRI, r3
 487              	@ 0 "" 2
 488              		.thumb
 489              	.LBE46:
 490              		.loc 1 259 0
 491 0016 2046     		mov	r0, r4
 492 0018 10BD     		pop	{r4, pc}
 493              		.cfi_endproc
 494              	.LFE11:
 495              		.size	chThdResume, .-chThdResume
 496 001a 00BF     		.section	.text.chThdTerminate,"ax",%progbits
 497              		.align	2
 498              		.global	chThdTerminate
 499              		.thumb
 500              		.thumb_func
 501              		.type	chThdTerminate, %function
 502              	chThdTerminate:
 503              	.LFB12:
 504              		.loc 1 273 0
 505              		.cfi_startproc
 506              		@ args = 0, pretend = 0, frame = 0
 507              		@ frame_needed = 0, uses_anonymous_args = 0
 508              		@ link register save eliminated.
 509              	.LVL24:
 510              	.LBB47:
 511              		.loc 1 275 0
 512 0000 2023     		movs	r3, #32
 513              	@ 275 "../../os/kernel/src/chthreads.c" 1
ARM GAS  /tmp/ccwhlLdW.s 			page 10


 514 0002 83F31188 		msr     BASEPRI, r3
 515              	@ 0 "" 2
 516              		.thumb
 517              	.LBE47:
 518              		.loc 1 276 0
 519 0006 427F     		ldrb	r2, [r0, #29]	@ zero_extendqisi2
 520              	.LBB48:
 521              		.loc 1 277 0
 522 0008 0023     		movs	r3, #0
 523              	.LBE48:
 524              		.loc 1 276 0
 525 000a 42F00402 		orr	r2, r2, #4
 526 000e 4277     		strb	r2, [r0, #29]
 527              	.LBB49:
 528              		.loc 1 277 0
 529              	@ 277 "../../os/kernel/src/chthreads.c" 1
 530 0010 83F31188 		msr     BASEPRI, r3
 531              	@ 0 "" 2
 532              		.thumb
 533 0014 7047     		bx	lr
 534              	.LBE49:
 535              		.cfi_endproc
 536              	.LFE12:
 537              		.size	chThdTerminate, .-chThdTerminate
 538 0016 00BF     		.section	.text.chThdSleep,"ax",%progbits
 539              		.align	2
 540              		.global	chThdSleep
 541              		.thumb
 542              		.thumb_func
 543              		.type	chThdSleep, %function
 544              	chThdSleep:
 545              	.LFB13:
 546              		.loc 1 292 0
 547              		.cfi_startproc
 548              		@ args = 0, pretend = 0, frame = 0
 549              		@ frame_needed = 0, uses_anonymous_args = 0
 550              	.LVL25:
 551 0000 08B5     		push	{r3, lr}
 552              		.cfi_def_cfa_offset 8
 553              		.cfi_offset 3, -8
 554              		.cfi_offset 14, -4
 555              		.loc 1 292 0
 556 0002 0146     		mov	r1, r0
 557              	.LBB50:
 558              		.loc 1 296 0
 559 0004 2023     		movs	r3, #32
 560              	@ 296 "../../os/kernel/src/chthreads.c" 1
 561 0006 83F31188 		msr     BASEPRI, r3
 562              	@ 0 "" 2
 563              		.thumb
 564              	.LBE50:
 565              		.loc 1 297 0
 566 000a 0620     		movs	r0, #6
 567              	.LVL26:
 568 000c FFF7FEFF 		bl	chSchGoSleepTimeoutS
 569              	.LVL27:
 570              	.LBB51:
ARM GAS  /tmp/ccwhlLdW.s 			page 11


 571              		.loc 1 298 0
 572 0010 0023     		movs	r3, #0
 573              	@ 298 "../../os/kernel/src/chthreads.c" 1
 574 0012 83F31188 		msr     BASEPRI, r3
 575              	@ 0 "" 2
 576              		.thumb
 577 0016 08BD     		pop	{r3, pc}
 578              	.LBE51:
 579              		.cfi_endproc
 580              	.LFE13:
 581              		.size	chThdSleep, .-chThdSleep
 582              		.section	.text.chThdSleepUntil,"ax",%progbits
 583              		.align	2
 584              		.global	chThdSleepUntil
 585              		.thumb
 586              		.thumb_func
 587              		.type	chThdSleepUntil, %function
 588              	chThdSleepUntil:
 589              	.LFB14:
 590              		.loc 1 309 0
 591              		.cfi_startproc
 592              		@ args = 0, pretend = 0, frame = 0
 593              		@ frame_needed = 0, uses_anonymous_args = 0
 594              	.LVL28:
 595 0000 08B5     		push	{r3, lr}
 596              		.cfi_def_cfa_offset 8
 597              		.cfi_offset 3, -8
 598              		.cfi_offset 14, -4
 599              	.LBB52:
 600              		.loc 1 311 0
 601 0002 2023     		movs	r3, #32
 602              	@ 311 "../../os/kernel/src/chthreads.c" 1
 603 0004 83F31188 		msr     BASEPRI, r3
 604              	@ 0 "" 2
 605              		.thumb
 606              	.LBE52:
 607              		.loc 1 312 0
 608 0008 054B     		ldr	r3, .L24
 609 000a D968     		ldr	r1, [r3, #12]
 610              	.LVL29:
 611 000c 411A     		subs	r1, r0, r1
 612              	.LVL30:
 613 000e 02D0     		beq	.L20
 614              		.loc 1 313 0
 615 0010 0620     		movs	r0, #6
 616 0012 FFF7FEFF 		bl	chSchGoSleepTimeoutS
 617              	.LVL31:
 618              	.L20:
 619              	.LBB53:
 620              		.loc 1 314 0
 621 0016 0023     		movs	r3, #0
 622              	@ 314 "../../os/kernel/src/chthreads.c" 1
 623 0018 83F31188 		msr     BASEPRI, r3
 624              	@ 0 "" 2
 625              		.thumb
 626 001c 08BD     		pop	{r3, pc}
 627              	.L25:
ARM GAS  /tmp/ccwhlLdW.s 			page 12


 628 001e 00BF     		.align	2
 629              	.L24:
 630 0020 00000000 		.word	vtlist
 631              	.LBE53:
 632              		.cfi_endproc
 633              	.LFE14:
 634              		.size	chThdSleepUntil, .-chThdSleepUntil
 635              		.section	.text.chThdYield,"ax",%progbits
 636              		.align	2
 637              		.global	chThdYield
 638              		.thumb
 639              		.thumb_func
 640              		.type	chThdYield, %function
 641              	chThdYield:
 642              	.LFB15:
 643              		.loc 1 324 0
 644              		.cfi_startproc
 645              		@ args = 0, pretend = 0, frame = 0
 646              		@ frame_needed = 0, uses_anonymous_args = 0
 647 0000 08B5     		push	{r3, lr}
 648              		.cfi_def_cfa_offset 8
 649              		.cfi_offset 3, -8
 650              		.cfi_offset 14, -4
 651              	.LBB54:
 652              		.loc 1 326 0
 653 0002 2023     		movs	r3, #32
 654              	@ 326 "../../os/kernel/src/chthreads.c" 1
 655 0004 83F31188 		msr     BASEPRI, r3
 656              	@ 0 "" 2
 657              		.thumb
 658              	.LBE54:
 659              		.loc 1 327 0
 660 0008 064B     		ldr	r3, .L28
 661 000a 1A68     		ldr	r2, [r3]
 662 000c 9B69     		ldr	r3, [r3, #24]
 663 000e 9268     		ldr	r2, [r2, #8]
 664 0010 9B68     		ldr	r3, [r3, #8]
 665 0012 9A42     		cmp	r2, r3
 666 0014 01D3     		bcc	.L27
 667              		.loc 1 327 0 is_stmt 0 discriminator 1
 668 0016 FFF7FEFF 		bl	chSchDoRescheduleBehind
 669              	.LVL32:
 670              	.L27:
 671              	.LBB55:
 672              		.loc 1 328 0 is_stmt 1
 673 001a 0023     		movs	r3, #0
 674              	@ 328 "../../os/kernel/src/chthreads.c" 1
 675 001c 83F31188 		msr     BASEPRI, r3
 676              	@ 0 "" 2
 677              		.thumb
 678 0020 08BD     		pop	{r3, pc}
 679              	.L29:
 680 0022 00BF     		.align	2
 681              	.L28:
 682 0024 00000000 		.word	rlist
 683              	.LBE55:
 684              		.cfi_endproc
ARM GAS  /tmp/ccwhlLdW.s 			page 13


 685              	.LFE15:
 686              		.size	chThdYield, .-chThdYield
 687              		.section	.text.chThdExitS,"ax",%progbits
 688              		.align	2
 689              		.global	chThdExitS
 690              		.thumb
 691              		.thumb_func
 692              		.type	chThdExitS, %function
 693              	chThdExitS:
 694              	.LFB17:
 695              		.loc 1 366 0
 696              		.cfi_startproc
 697              		@ args = 0, pretend = 0, frame = 0
 698              		@ frame_needed = 0, uses_anonymous_args = 0
 699              	.LVL33:
 700 0000 38B5     		push	{r3, r4, r5, lr}
 701              		.cfi_def_cfa_offset 16
 702              		.cfi_offset 3, -16
 703              		.cfi_offset 4, -12
 704              		.cfi_offset 5, -8
 705              		.cfi_offset 14, -4
 706              		.loc 1 367 0
 707 0002 0E4B     		ldr	r3, .L36
 708 0004 9C69     		ldr	r4, [r3, #24]
 709              	.LVL34:
 710              		.loc 1 374 0
 711 0006 2546     		mov	r5, r4
 712 0008 55F8283F 		ldr	r3, [r5, #40]!
 713              		.loc 1 369 0
 714 000c 6062     		str	r0, [r4, #36]
 715              		.loc 1 374 0
 716 000e AB42     		cmp	r3, r5
 717 0010 07D0     		beq	.L34
 718              	.LVL35:
 719              	.L35:
 720              	.LBB56:
 721              	.LBB57:
 722              		.file 2 "../../os/kernel/include/chinline.h"
 723              		.loc 2 89 0
 724 0012 1A68     		ldr	r2, [r3]
 725              	.LBE57:
 726              	.LBE56:
 727              		.loc 1 375 0
 728 0014 1846     		mov	r0, r3
 729              	.LBB59:
 730              	.LBB58:
 731              		.loc 2 89 0
 732 0016 A262     		str	r2, [r4, #40]
 733              	.LBE58:
 734              	.LBE59:
 735              		.loc 1 375 0
 736 0018 FFF7FEFF 		bl	chSchReadyI
 737              	.LVL36:
 738              		.loc 1 374 0
 739 001c A36A     		ldr	r3, [r4, #40]
 740 001e AB42     		cmp	r3, r5
 741 0020 F7D1     		bne	.L35
ARM GAS  /tmp/ccwhlLdW.s 			page 14


 742              	.LVL37:
 743              	.L34:
 744              		.loc 1 380 0
 745 0022 637F     		ldrb	r3, [r4, #29]	@ zero_extendqisi2
 746 0024 9B07     		lsls	r3, r3, #30
 747 0026 04D1     		bne	.L33
 748              		.loc 1 381 0
 749 0028 2269     		ldr	r2, [r4, #16]
 750 002a 6369     		ldr	r3, [r4, #20]
 751 002c 1A61     		str	r2, [r3, #16]
 752 002e 2269     		ldr	r2, [r4, #16]
 753 0030 5361     		str	r3, [r2, #20]
 754              	.L33:
 755              		.loc 1 383 0
 756 0032 0E20     		movs	r0, #14
 757              		.loc 1 386 0
 758 0034 BDE83840 		pop	{r3, r4, r5, lr}
 759              	.LVL38:
 760              		.loc 1 383 0
 761 0038 FFF7FEBF 		b	chSchGoSleepS
 762              	.LVL39:
 763              	.L37:
 764              		.align	2
 765              	.L36:
 766 003c 00000000 		.word	rlist
 767              		.cfi_endproc
 768              	.LFE17:
 769              		.size	chThdExitS, .-chThdExitS
 770              		.section	.text.chThdExit,"ax",%progbits
 771              		.align	2
 772              		.global	chThdExit
 773              		.thumb
 774              		.thumb_func
 775              		.type	chThdExit, %function
 776              	chThdExit:
 777              	.LFB16:
 778              		.loc 1 345 0
 779              		.cfi_startproc
 780              		@ args = 0, pretend = 0, frame = 0
 781              		@ frame_needed = 0, uses_anonymous_args = 0
 782              		@ link register save eliminated.
 783              	.LVL40:
 784              	.LBB60:
 785              		.loc 1 347 0
 786 0000 2023     		movs	r3, #32
 787              	@ 347 "../../os/kernel/src/chthreads.c" 1
 788 0002 83F31188 		msr     BASEPRI, r3
 789              	@ 0 "" 2
 790              		.thumb
 791              	.LBE60:
 792              		.loc 1 348 0
 793 0006 FFF7FEBF 		b	chThdExitS
 794              	.LVL41:
 795              		.cfi_endproc
 796              	.LFE16:
 797              		.size	chThdExit, .-chThdExit
 798 000a 00BF     		.section	.text.chThdWait,"ax",%progbits
ARM GAS  /tmp/ccwhlLdW.s 			page 15


 799              		.align	2
 800              		.global	chThdWait
 801              		.thumb
 802              		.thumb_func
 803              		.type	chThdWait, %function
 804              	chThdWait:
 805              	.LFB18:
 806              		.loc 1 420 0
 807              		.cfi_startproc
 808              		@ args = 0, pretend = 0, frame = 0
 809              		@ frame_needed = 0, uses_anonymous_args = 0
 810              	.LVL42:
 811 0000 38B5     		push	{r3, r4, r5, lr}
 812              		.cfi_def_cfa_offset 16
 813              		.cfi_offset 3, -16
 814              		.cfi_offset 4, -12
 815              		.cfi_offset 5, -8
 816              		.cfi_offset 14, -4
 817              		.loc 1 420 0
 818 0002 0446     		mov	r4, r0
 819              	.LBB61:
 820              		.loc 1 425 0
 821 0004 2023     		movs	r3, #32
 822              	@ 425 "../../os/kernel/src/chthreads.c" 1
 823 0006 83F31188 		msr     BASEPRI, r3
 824              	@ 0 "" 2
 825              		.thumb
 826              	.LBE61:
 827              		.loc 1 430 0
 828 000a 037F     		ldrb	r3, [r0, #28]	@ zero_extendqisi2
 829 000c 0E2B     		cmp	r3, #14
 830 000e 07D0     		beq	.L40
 831              		.loc 1 431 0
 832 0010 084B     		ldr	r3, .L44
 833              	.LBB62:
 834              	.LBB63:
 835              		.loc 2 82 0
 836 0012 826A     		ldr	r2, [r0, #40]
 837              	.LBE63:
 838              	.LBE62:
 839              		.loc 1 431 0
 840 0014 9B69     		ldr	r3, [r3, #24]
 841              	.LVL43:
 842              		.loc 1 432 0
 843 0016 0720     		movs	r0, #7
 844              	.LVL44:
 845              	.LBB65:
 846              	.LBB64:
 847              		.loc 2 82 0
 848 0018 1A60     		str	r2, [r3]
 849              		.loc 2 83 0
 850 001a A362     		str	r3, [r4, #40]
 851              	.LBE64:
 852              	.LBE65:
 853              		.loc 1 432 0
 854 001c FFF7FEFF 		bl	chSchGoSleepS
 855              	.LVL45:
ARM GAS  /tmp/ccwhlLdW.s 			page 16


 856              	.L40:
 857              		.loc 1 434 0
 858 0020 656A     		ldr	r5, [r4, #36]
 859              	.LVL46:
 860              	.LBB66:
 861              		.loc 1 435 0
 862 0022 0023     		movs	r3, #0
 863              	@ 435 "../../os/kernel/src/chthreads.c" 1
 864 0024 83F31188 		msr     BASEPRI, r3
 865              	@ 0 "" 2
 866              		.thumb
 867              	.LBE66:
 868              		.loc 1 437 0
 869 0028 2046     		mov	r0, r4
 870 002a FFF7FEFF 		bl	chThdRelease
 871              	.LVL47:
 872              		.loc 1 440 0
 873 002e 2846     		mov	r0, r5
 874 0030 38BD     		pop	{r3, r4, r5, pc}
 875              	.LVL48:
 876              	.L45:
 877 0032 00BF     		.align	2
 878              	.L44:
 879 0034 00000000 		.word	rlist
 880              		.cfi_endproc
 881              	.LFE18:
 882              		.size	chThdWait, .-chThdWait
 883              		.text
 884              	.Letext0:
 885              		.file 3 "/usr/lib/gcc/arm-none-eabi/4.8/include/stddef.h"
 886              		.file 4 "/usr/include/newlib/machine/_default_types.h"
 887              		.file 5 "/usr/include/newlib/stdint.h"
 888              		.file 6 "../../os/ports/GCC/ARMCMx/chtypes.h"
 889              		.file 7 "../../os/kernel/include/chlists.h"
 890              		.file 8 "../../os/kernel/include/chthreads.h"
 891              		.file 9 "../../os/ports/GCC/ARMCMx/chcore_v7m.h"
 892              		.file 10 "../../os/kernel/include/chvt.h"
 893              		.file 11 "../../os/kernel/include/chschd.h"
 894              		.file 12 "../../os/kernel/include/chmtx.h"
 895              		.file 13 "../../os/kernel/include/chdynamic.h"
 896              		.section	.debug_info,"",%progbits
 897              	.Ldebug_info0:
 898 0000 E60B0000 		.4byte	0xbe6
 899 0004 0400     		.2byte	0x4
 900 0006 00000000 		.4byte	.Ldebug_abbrev0
 901 000a 04       		.byte	0x4
 902 000b 01       		.uleb128 0x1
 903 000c 7E020000 		.4byte	.LASF102
 904 0010 01       		.byte	0x1
 905 0011 8A040000 		.4byte	.LASF103
 906 0015 06040000 		.4byte	.LASF104
 907 0019 D8000000 		.4byte	.Ldebug_ranges0+0xd8
 908 001d 00000000 		.4byte	0
 909 0021 00000000 		.4byte	.Ldebug_line0
 910 0025 02       		.uleb128 0x2
 911 0026 04       		.byte	0x4
 912 0027 05       		.byte	0x5
ARM GAS  /tmp/ccwhlLdW.s 			page 17


 913 0028 696E7400 		.ascii	"int\000"
 914 002c 03       		.uleb128 0x3
 915 002d 15000000 		.4byte	.LASF2
 916 0031 03       		.byte	0x3
 917 0032 D4       		.byte	0xd4
 918 0033 37000000 		.4byte	0x37
 919 0037 04       		.uleb128 0x4
 920 0038 04       		.byte	0x4
 921 0039 07       		.byte	0x7
 922 003a 1A010000 		.4byte	.LASF0
 923 003e 04       		.uleb128 0x4
 924 003f 01       		.byte	0x1
 925 0040 06       		.byte	0x6
 926 0041 79000000 		.4byte	.LASF1
 927 0045 03       		.uleb128 0x3
 928 0046 28000000 		.4byte	.LASF3
 929 004a 04       		.byte	0x4
 930 004b 1D       		.byte	0x1d
 931 004c 50000000 		.4byte	0x50
 932 0050 04       		.uleb128 0x4
 933 0051 01       		.byte	0x1
 934 0052 08       		.byte	0x8
 935 0053 14030000 		.4byte	.LASF4
 936 0057 04       		.uleb128 0x4
 937 0058 02       		.byte	0x2
 938 0059 05       		.byte	0x5
 939 005a 2C030000 		.4byte	.LASF5
 940 005e 04       		.uleb128 0x4
 941 005f 02       		.byte	0x2
 942 0060 07       		.byte	0x7
 943 0061 57010000 		.4byte	.LASF6
 944 0065 03       		.uleb128 0x3
 945 0066 EA030000 		.4byte	.LASF7
 946 006a 04       		.byte	0x4
 947 006b 3F       		.byte	0x3f
 948 006c 70000000 		.4byte	0x70
 949 0070 04       		.uleb128 0x4
 950 0071 04       		.byte	0x4
 951 0072 05       		.byte	0x5
 952 0073 B6000000 		.4byte	.LASF8
 953 0077 03       		.uleb128 0x3
 954 0078 ED000000 		.4byte	.LASF9
 955 007c 04       		.byte	0x4
 956 007d 41       		.byte	0x41
 957 007e 82000000 		.4byte	0x82
 958 0082 04       		.uleb128 0x4
 959 0083 04       		.byte	0x4
 960 0084 07       		.byte	0x7
 961 0085 2F010000 		.4byte	.LASF10
 962 0089 04       		.uleb128 0x4
 963 008a 08       		.byte	0x8
 964 008b 05       		.byte	0x5
 965 008c 6B000000 		.4byte	.LASF11
 966 0090 04       		.uleb128 0x4
 967 0091 08       		.byte	0x8
 968 0092 07       		.byte	0x7
 969 0093 44000000 		.4byte	.LASF12
ARM GAS  /tmp/ccwhlLdW.s 			page 18


 970 0097 03       		.uleb128 0x3
 971 0098 82040000 		.4byte	.LASF13
 972 009c 05       		.byte	0x5
 973 009d 2A       		.byte	0x2a
 974 009e 45000000 		.4byte	0x45
 975 00a2 03       		.uleb128 0x3
 976 00a3 0C030000 		.4byte	.LASF14
 977 00a7 05       		.byte	0x5
 978 00a8 41       		.byte	0x41
 979 00a9 65000000 		.4byte	0x65
 980 00ad 03       		.uleb128 0x3
 981 00ae 92030000 		.4byte	.LASF15
 982 00b2 05       		.byte	0x5
 983 00b3 42       		.byte	0x42
 984 00b4 77000000 		.4byte	0x77
 985 00b8 04       		.uleb128 0x4
 986 00b9 01       		.byte	0x1
 987 00ba 02       		.byte	0x2
 988 00bb 06030000 		.4byte	.LASF16
 989 00bf 03       		.uleb128 0x3
 990 00c0 8D010000 		.4byte	.LASF17
 991 00c4 06       		.byte	0x6
 992 00c5 2C       		.byte	0x2c
 993 00c6 97000000 		.4byte	0x97
 994 00ca 03       		.uleb128 0x3
 995 00cb BF000000 		.4byte	.LASF18
 996 00cf 06       		.byte	0x6
 997 00d0 2D       		.byte	0x2d
 998 00d1 97000000 		.4byte	0x97
 999 00d5 03       		.uleb128 0x3
 1000 00d6 67020000 		.4byte	.LASF19
 1001 00da 06       		.byte	0x6
 1002 00db 2E       		.byte	0x2e
 1003 00dc 97000000 		.4byte	0x97
 1004 00e0 03       		.uleb128 0x3
 1005 00e1 9F000000 		.4byte	.LASF20
 1006 00e5 06       		.byte	0x6
 1007 00e6 2F       		.byte	0x2f
 1008 00e7 97000000 		.4byte	0x97
 1009 00eb 03       		.uleb128 0x3
 1010 00ec 76020000 		.4byte	.LASF21
 1011 00f0 06       		.byte	0x6
 1012 00f1 30       		.byte	0x30
 1013 00f2 AD000000 		.4byte	0xad
 1014 00f6 03       		.uleb128 0x3
 1015 00f7 77010000 		.4byte	.LASF22
 1016 00fb 06       		.byte	0x6
 1017 00fc 31       		.byte	0x31
 1018 00fd A2000000 		.4byte	0xa2
 1019 0101 03       		.uleb128 0x3
 1020 0102 B0010000 		.4byte	.LASF23
 1021 0106 06       		.byte	0x6
 1022 0107 33       		.byte	0x33
 1023 0108 AD000000 		.4byte	0xad
 1024 010c 03       		.uleb128 0x3
 1025 010d D5030000 		.4byte	.LASF24
 1026 0111 06       		.byte	0x6
ARM GAS  /tmp/ccwhlLdW.s 			page 19


 1027 0112 35       		.byte	0x35
 1028 0113 AD000000 		.4byte	0xad
 1029 0117 03       		.uleb128 0x3
 1030 0118 72030000 		.4byte	.LASF25
 1031 011c 07       		.byte	0x7
 1032 011d 2A       		.byte	0x2a
 1033 011e 22010000 		.4byte	0x122
 1034 0122 05       		.uleb128 0x5
 1035 0123 72030000 		.4byte	.LASF25
 1036 0127 48       		.byte	0x48
 1037 0128 08       		.byte	0x8
 1038 0129 5E       		.byte	0x5e
 1039 012a 1F020000 		.4byte	0x21f
 1040 012e 06       		.uleb128 0x6
 1041 012f 56030000 		.4byte	.LASF26
 1042 0133 08       		.byte	0x8
 1043 0134 5F       		.byte	0x5f
 1044 0135 40020000 		.4byte	0x240
 1045 0139 00       		.byte	0
 1046 013a 06       		.uleb128 0x6
 1047 013b 6F020000 		.4byte	.LASF27
 1048 013f 08       		.byte	0x8
 1049 0140 61       		.byte	0x61
 1050 0141 40020000 		.4byte	0x240
 1051 0145 04       		.byte	0x4
 1052 0146 06       		.uleb128 0x6
 1053 0147 64000000 		.4byte	.LASF28
 1054 014b 08       		.byte	0x8
 1055 014c 63       		.byte	0x63
 1056 014d EB000000 		.4byte	0xeb
 1057 0151 08       		.byte	0x8
 1058 0152 06       		.uleb128 0x6
 1059 0153 E7040000 		.4byte	.LASF29
 1060 0157 08       		.byte	0x8
 1061 0158 64       		.byte	0x64
 1062 0159 FA020000 		.4byte	0x2fa
 1063 015d 0C       		.byte	0xc
 1064 015e 06       		.uleb128 0x6
 1065 015f C8000000 		.4byte	.LASF30
 1066 0163 08       		.byte	0x8
 1067 0164 66       		.byte	0x66
 1068 0165 40020000 		.4byte	0x240
 1069 0169 10       		.byte	0x10
 1070 016a 06       		.uleb128 0x6
 1071 016b 19020000 		.4byte	.LASF31
 1072 016f 08       		.byte	0x8
 1073 0170 67       		.byte	0x67
 1074 0171 40020000 		.4byte	0x240
 1075 0175 14       		.byte	0x14
 1076 0176 06       		.uleb128 0x6
 1077 0177 B1040000 		.4byte	.LASF32
 1078 017b 08       		.byte	0x8
 1079 017c 6E       		.byte	0x6e
 1080 017d B4040000 		.4byte	0x4b4
 1081 0181 18       		.byte	0x18
 1082 0182 06       		.uleb128 0x6
 1083 0183 36030000 		.4byte	.LASF33
ARM GAS  /tmp/ccwhlLdW.s 			page 20


 1084 0187 08       		.byte	0x8
 1085 0188 79       		.byte	0x79
 1086 0189 CA000000 		.4byte	0xca
 1087 018d 1C       		.byte	0x1c
 1088 018e 06       		.uleb128 0x6
 1089 018f 5D030000 		.4byte	.LASF34
 1090 0193 08       		.byte	0x8
 1091 0194 7D       		.byte	0x7d
 1092 0195 BF000000 		.4byte	0xbf
 1093 0199 1D       		.byte	0x1d
 1094 019a 06       		.uleb128 0x6
 1095 019b 6B040000 		.4byte	.LASF35
 1096 019f 08       		.byte	0x8
 1097 01a0 82       		.byte	0x82
 1098 01a1 D5000000 		.4byte	0xd5
 1099 01a5 1E       		.byte	0x1e
 1100 01a6 06       		.uleb128 0x6
 1101 01a7 3E030000 		.4byte	.LASF36
 1102 01ab 08       		.byte	0x8
 1103 01ac 88       		.byte	0x88
 1104 01ad E0000000 		.4byte	0xe0
 1105 01b1 1F       		.byte	0x1f
 1106 01b2 06       		.uleb128 0x6
 1107 01b3 FF030000 		.4byte	.LASF37
 1108 01b7 08       		.byte	0x8
 1109 01b8 8F       		.byte	0x8f
 1110 01b9 D1030000 		.4byte	0x3d1
 1111 01bd 20       		.byte	0x20
 1112 01be 07       		.uleb128 0x7
 1113 01bf 705F7500 		.ascii	"p_u\000"
 1114 01c3 08       		.byte	0x8
 1115 01c4 B4       		.byte	0xb4
 1116 01c5 7F040000 		.4byte	0x47f
 1117 01c9 24       		.byte	0x24
 1118 01ca 06       		.uleb128 0x6
 1119 01cb ED040000 		.4byte	.LASF38
 1120 01cf 08       		.byte	0x8
 1121 01d0 B9       		.byte	0xb9
 1122 01d1 66020000 		.4byte	0x266
 1123 01d5 28       		.byte	0x28
 1124 01d6 06       		.uleb128 0x6
 1125 01d7 44040000 		.4byte	.LASF39
 1126 01db 08       		.byte	0x8
 1127 01dc BF       		.byte	0xbf
 1128 01dd 46020000 		.4byte	0x246
 1129 01e1 2C       		.byte	0x2c
 1130 01e2 06       		.uleb128 0x6
 1131 01e3 0F000000 		.4byte	.LASF40
 1132 01e7 08       		.byte	0x8
 1133 01e8 C3       		.byte	0xc3
 1134 01e9 F6000000 		.4byte	0xf6
 1135 01ed 34       		.byte	0x34
 1136 01ee 06       		.uleb128 0x6
 1137 01ef 87030000 		.4byte	.LASF41
 1138 01f3 08       		.byte	0x8
 1139 01f4 C9       		.byte	0xc9
 1140 01f5 01010000 		.4byte	0x101
ARM GAS  /tmp/ccwhlLdW.s 			page 21


 1141 01f9 38       		.byte	0x38
 1142 01fa 06       		.uleb128 0x6
 1143 01fb 22030000 		.4byte	.LASF42
 1144 01ff 08       		.byte	0x8
 1145 0200 D0       		.byte	0xd0
 1146 0201 C6040000 		.4byte	0x4c6
 1147 0205 3C       		.byte	0x3c
 1148 0206 06       		.uleb128 0x6
 1149 0207 DF030000 		.4byte	.LASF43
 1150 020b 08       		.byte	0x8
 1151 020c D4       		.byte	0xd4
 1152 020d EB000000 		.4byte	0xeb
 1153 0211 40       		.byte	0x40
 1154 0212 06       		.uleb128 0x6
 1155 0213 8F000000 		.4byte	.LASF44
 1156 0217 08       		.byte	0x8
 1157 0218 DA       		.byte	0xda
 1158 0219 7C020000 		.4byte	0x27c
 1159 021d 44       		.byte	0x44
 1160 021e 00       		.byte	0
 1161 021f 08       		.uleb128 0x8
 1162 0220 08       		.byte	0x8
 1163 0221 07       		.byte	0x7
 1164 0222 61       		.byte	0x61
 1165 0223 40020000 		.4byte	0x240
 1166 0227 06       		.uleb128 0x6
 1167 0228 56030000 		.4byte	.LASF26
 1168 022c 07       		.byte	0x7
 1169 022d 62       		.byte	0x62
 1170 022e 40020000 		.4byte	0x240
 1171 0232 00       		.byte	0
 1172 0233 06       		.uleb128 0x6
 1173 0234 6F020000 		.4byte	.LASF27
 1174 0238 07       		.byte	0x7
 1175 0239 64       		.byte	0x64
 1176 023a 40020000 		.4byte	0x240
 1177 023e 04       		.byte	0x4
 1178 023f 00       		.byte	0
 1179 0240 09       		.uleb128 0x9
 1180 0241 04       		.byte	0x4
 1181 0242 17010000 		.4byte	0x117
 1182 0246 03       		.uleb128 0x3
 1183 0247 27020000 		.4byte	.LASF45
 1184 024b 07       		.byte	0x7
 1185 024c 66       		.byte	0x66
 1186 024d 1F020000 		.4byte	0x21f
 1187 0251 08       		.uleb128 0x8
 1188 0252 04       		.byte	0x4
 1189 0253 07       		.byte	0x7
 1190 0254 6B       		.byte	0x6b
 1191 0255 66020000 		.4byte	0x266
 1192 0259 06       		.uleb128 0x6
 1193 025a 56030000 		.4byte	.LASF26
 1194 025e 07       		.byte	0x7
 1195 025f 6D       		.byte	0x6d
 1196 0260 40020000 		.4byte	0x240
 1197 0264 00       		.byte	0
ARM GAS  /tmp/ccwhlLdW.s 			page 22


 1198 0265 00       		.byte	0
 1199 0266 03       		.uleb128 0x3
 1200 0267 A4010000 		.4byte	.LASF46
 1201 026b 07       		.byte	0x7
 1202 026c 70       		.byte	0x70
 1203 026d 51020000 		.4byte	0x251
 1204 0271 03       		.uleb128 0x3
 1205 0272 F8000000 		.4byte	.LASF47
 1206 0276 09       		.byte	0x9
 1207 0277 E5       		.byte	0xe5
 1208 0278 7C020000 		.4byte	0x27c
 1209 027c 0A       		.uleb128 0xa
 1210 027d 04       		.byte	0x4
 1211 027e 0B       		.uleb128 0xb
 1212 027f 00000000 		.4byte	.LASF48
 1213 0283 24       		.byte	0x24
 1214 0284 09       		.byte	0x9
 1215 0285 0C01     		.2byte	0x10c
 1216 0287 FA020000 		.4byte	0x2fa
 1217 028b 0C       		.uleb128 0xc
 1218 028c 723400   		.ascii	"r4\000"
 1219 028f 09       		.byte	0x9
 1220 0290 1F01     		.2byte	0x11f
 1221 0292 71020000 		.4byte	0x271
 1222 0296 00       		.byte	0
 1223 0297 0C       		.uleb128 0xc
 1224 0298 723500   		.ascii	"r5\000"
 1225 029b 09       		.byte	0x9
 1226 029c 2001     		.2byte	0x120
 1227 029e 71020000 		.4byte	0x271
 1228 02a2 04       		.byte	0x4
 1229 02a3 0C       		.uleb128 0xc
 1230 02a4 723600   		.ascii	"r6\000"
 1231 02a7 09       		.byte	0x9
 1232 02a8 2101     		.2byte	0x121
 1233 02aa 71020000 		.4byte	0x271
 1234 02ae 08       		.byte	0x8
 1235 02af 0C       		.uleb128 0xc
 1236 02b0 723700   		.ascii	"r7\000"
 1237 02b3 09       		.byte	0x9
 1238 02b4 2201     		.2byte	0x122
 1239 02b6 71020000 		.4byte	0x271
 1240 02ba 0C       		.byte	0xc
 1241 02bb 0C       		.uleb128 0xc
 1242 02bc 723800   		.ascii	"r8\000"
 1243 02bf 09       		.byte	0x9
 1244 02c0 2301     		.2byte	0x123
 1245 02c2 71020000 		.4byte	0x271
 1246 02c6 10       		.byte	0x10
 1247 02c7 0C       		.uleb128 0xc
 1248 02c8 723900   		.ascii	"r9\000"
 1249 02cb 09       		.byte	0x9
 1250 02cc 2401     		.2byte	0x124
 1251 02ce 71020000 		.4byte	0x271
 1252 02d2 14       		.byte	0x14
 1253 02d3 0C       		.uleb128 0xc
 1254 02d4 72313000 		.ascii	"r10\000"
ARM GAS  /tmp/ccwhlLdW.s 			page 23


 1255 02d8 09       		.byte	0x9
 1256 02d9 2501     		.2byte	0x125
 1257 02db 71020000 		.4byte	0x271
 1258 02df 18       		.byte	0x18
 1259 02e0 0C       		.uleb128 0xc
 1260 02e1 72313100 		.ascii	"r11\000"
 1261 02e5 09       		.byte	0x9
 1262 02e6 2601     		.2byte	0x126
 1263 02e8 71020000 		.4byte	0x271
 1264 02ec 1C       		.byte	0x1c
 1265 02ed 0C       		.uleb128 0xc
 1266 02ee 6C7200   		.ascii	"lr\000"
 1267 02f1 09       		.byte	0x9
 1268 02f2 2701     		.2byte	0x127
 1269 02f4 71020000 		.4byte	0x271
 1270 02f8 20       		.byte	0x20
 1271 02f9 00       		.byte	0
 1272 02fa 0B       		.uleb128 0xb
 1273 02fb 4A010000 		.4byte	.LASF49
 1274 02ff 04       		.byte	0x4
 1275 0300 09       		.byte	0x9
 1276 0301 3101     		.2byte	0x131
 1277 0303 15030000 		.4byte	0x315
 1278 0307 0C       		.uleb128 0xc
 1279 0308 72313300 		.ascii	"r13\000"
 1280 030c 09       		.byte	0x9
 1281 030d 3201     		.2byte	0x132
 1282 030f 15030000 		.4byte	0x315
 1283 0313 00       		.byte	0
 1284 0314 00       		.byte	0
 1285 0315 09       		.uleb128 0x9
 1286 0316 04       		.byte	0x4
 1287 0317 7E020000 		.4byte	0x27e
 1288 031b 04       		.uleb128 0x4
 1289 031c 04       		.byte	0x4
 1290 031d 07       		.byte	0x7
 1291 031e E4010000 		.4byte	.LASF50
 1292 0322 03       		.uleb128 0x3
 1293 0323 41010000 		.4byte	.LASF51
 1294 0327 0A       		.byte	0xa
 1295 0328 58       		.byte	0x58
 1296 0329 2D030000 		.4byte	0x32d
 1297 032d 09       		.uleb128 0x9
 1298 032e 04       		.byte	0x4
 1299 032f 33030000 		.4byte	0x333
 1300 0333 0D       		.uleb128 0xd
 1301 0334 3E030000 		.4byte	0x33e
 1302 0338 0E       		.uleb128 0xe
 1303 0339 7C020000 		.4byte	0x27c
 1304 033d 00       		.byte	0
 1305 033e 03       		.uleb128 0x3
 1306 033f B0030000 		.4byte	.LASF52
 1307 0343 0A       		.byte	0xa
 1308 0344 5D       		.byte	0x5d
 1309 0345 49030000 		.4byte	0x349
 1310 0349 05       		.uleb128 0x5
 1311 034a B0030000 		.4byte	.LASF52
ARM GAS  /tmp/ccwhlLdW.s 			page 24


 1312 034e 14       		.byte	0x14
 1313 034f 0A       		.byte	0xa
 1314 0350 64       		.byte	0x64
 1315 0351 92030000 		.4byte	0x392
 1316 0355 06       		.uleb128 0x6
 1317 0356 27010000 		.4byte	.LASF53
 1318 035a 0A       		.byte	0xa
 1319 035b 65       		.byte	0x65
 1320 035c 92030000 		.4byte	0x392
 1321 0360 00       		.byte	0
 1322 0361 06       		.uleb128 0x6
 1323 0362 01010000 		.4byte	.LASF54
 1324 0366 0A       		.byte	0xa
 1325 0367 67       		.byte	0x67
 1326 0368 92030000 		.4byte	0x392
 1327 036c 04       		.byte	0x4
 1328 036d 06       		.uleb128 0x6
 1329 036e DC010000 		.4byte	.LASF55
 1330 0372 0A       		.byte	0xa
 1331 0373 69       		.byte	0x69
 1332 0374 0C010000 		.4byte	0x10c
 1333 0378 08       		.byte	0x8
 1334 0379 06       		.uleb128 0x6
 1335 037a ED010000 		.4byte	.LASF56
 1336 037e 0A       		.byte	0xa
 1337 037f 6A       		.byte	0x6a
 1338 0380 22030000 		.4byte	0x322
 1339 0384 0C       		.byte	0xc
 1340 0385 06       		.uleb128 0x6
 1341 0386 59040000 		.4byte	.LASF57
 1342 038a 0A       		.byte	0xa
 1343 038b 6C       		.byte	0x6c
 1344 038c 7C020000 		.4byte	0x27c
 1345 0390 10       		.byte	0x10
 1346 0391 00       		.byte	0
 1347 0392 09       		.uleb128 0x9
 1348 0393 04       		.byte	0x4
 1349 0394 3E030000 		.4byte	0x33e
 1350 0398 08       		.uleb128 0x8
 1351 0399 10       		.byte	0x10
 1352 039a 0A       		.byte	0xa
 1353 039b 76       		.byte	0x76
 1354 039c D1030000 		.4byte	0x3d1
 1355 03a0 06       		.uleb128 0x6
 1356 03a1 27010000 		.4byte	.LASF53
 1357 03a5 0A       		.byte	0xa
 1358 03a6 77       		.byte	0x77
 1359 03a7 92030000 		.4byte	0x392
 1360 03ab 00       		.byte	0
 1361 03ac 06       		.uleb128 0x6
 1362 03ad 01010000 		.4byte	.LASF54
 1363 03b1 0A       		.byte	0xa
 1364 03b2 79       		.byte	0x79
 1365 03b3 92030000 		.4byte	0x392
 1366 03b7 04       		.byte	0x4
 1367 03b8 06       		.uleb128 0x6
 1368 03b9 DC010000 		.4byte	.LASF55
ARM GAS  /tmp/ccwhlLdW.s 			page 25


 1369 03bd 0A       		.byte	0xa
 1370 03be 7B       		.byte	0x7b
 1371 03bf 0C010000 		.4byte	0x10c
 1372 03c3 08       		.byte	0x8
 1373 03c4 06       		.uleb128 0x6
 1374 03c5 B8040000 		.4byte	.LASF58
 1375 03c9 0A       		.byte	0xa
 1376 03ca 7C       		.byte	0x7c
 1377 03cb D1030000 		.4byte	0x3d1
 1378 03cf 0C       		.byte	0xc
 1379 03d0 00       		.byte	0
 1380 03d1 0F       		.uleb128 0xf
 1381 03d2 0C010000 		.4byte	0x10c
 1382 03d6 03       		.uleb128 0x3
 1383 03d7 D8040000 		.4byte	.LASF59
 1384 03db 0A       		.byte	0xa
 1385 03dc 7D       		.byte	0x7d
 1386 03dd 98030000 		.4byte	0x398
 1387 03e1 08       		.uleb128 0x8
 1388 03e2 1C       		.byte	0x1c
 1389 03e3 0B       		.byte	0xb
 1390 03e4 5E       		.byte	0x5e
 1391 03e5 32040000 		.4byte	0x432
 1392 03e9 06       		.uleb128 0x6
 1393 03ea A8030000 		.4byte	.LASF60
 1394 03ee 0B       		.byte	0xb
 1395 03ef 5F       		.byte	0x5f
 1396 03f0 46020000 		.4byte	0x246
 1397 03f4 00       		.byte	0
 1398 03f5 06       		.uleb128 0x6
 1399 03f6 48030000 		.4byte	.LASF61
 1400 03fa 0B       		.byte	0xb
 1401 03fb 60       		.byte	0x60
 1402 03fc EB000000 		.4byte	0xeb
 1403 0400 08       		.byte	0x8
 1404 0401 06       		.uleb128 0x6
 1405 0402 21020000 		.4byte	.LASF62
 1406 0406 0B       		.byte	0xb
 1407 0407 62       		.byte	0x62
 1408 0408 FA020000 		.4byte	0x2fa
 1409 040c 0C       		.byte	0xc
 1410 040d 06       		.uleb128 0x6
 1411 040e 7D010000 		.4byte	.LASF63
 1412 0412 0B       		.byte	0xb
 1413 0413 65       		.byte	0x65
 1414 0414 40020000 		.4byte	0x240
 1415 0418 10       		.byte	0x10
 1416 0419 06       		.uleb128 0x6
 1417 041a 4F020000 		.4byte	.LASF64
 1418 041e 0B       		.byte	0xb
 1419 041f 66       		.byte	0x66
 1420 0420 40020000 		.4byte	0x240
 1421 0424 14       		.byte	0x14
 1422 0425 06       		.uleb128 0x6
 1423 0426 45020000 		.4byte	.LASF65
 1424 042a 0B       		.byte	0xb
 1425 042b 69       		.byte	0x69
ARM GAS  /tmp/ccwhlLdW.s 			page 26


 1426 042c 40020000 		.4byte	0x240
 1427 0430 18       		.byte	0x18
 1428 0431 00       		.byte	0
 1429 0432 03       		.uleb128 0x3
 1430 0433 72040000 		.4byte	.LASF66
 1431 0437 0B       		.byte	0xb
 1432 0438 6B       		.byte	0x6b
 1433 0439 E1030000 		.4byte	0x3e1
 1434 043d 05       		.uleb128 0x5
 1435 043e BC010000 		.4byte	.LASF67
 1436 0442 10       		.byte	0x10
 1437 0443 0C       		.byte	0xc
 1438 0444 2C       		.byte	0x2c
 1439 0445 6E040000 		.4byte	0x46e
 1440 0449 06       		.uleb128 0x6
 1441 044a 97000000 		.4byte	.LASF68
 1442 044e 0C       		.byte	0xc
 1443 044f 2D       		.byte	0x2d
 1444 0450 46020000 		.4byte	0x246
 1445 0454 00       		.byte	0
 1446 0455 06       		.uleb128 0x6
 1447 0456 DF040000 		.4byte	.LASF69
 1448 045a 0C       		.byte	0xc
 1449 045b 2F       		.byte	0x2f
 1450 045c 40020000 		.4byte	0x240
 1451 0460 08       		.byte	0x8
 1452 0461 06       		.uleb128 0x6
 1453 0462 CE030000 		.4byte	.LASF70
 1454 0466 0C       		.byte	0xc
 1455 0467 31       		.byte	0x31
 1456 0468 6E040000 		.4byte	0x46e
 1457 046c 0C       		.byte	0xc
 1458 046d 00       		.byte	0
 1459 046e 09       		.uleb128 0x9
 1460 046f 04       		.byte	0x4
 1461 0470 3D040000 		.4byte	0x43d
 1462 0474 03       		.uleb128 0x3
 1463 0475 BC010000 		.4byte	.LASF67
 1464 0479 0C       		.byte	0xc
 1465 047a 33       		.byte	0x33
 1466 047b 3D040000 		.4byte	0x43d
 1467 047f 10       		.uleb128 0x10
 1468 0480 04       		.byte	0x4
 1469 0481 08       		.byte	0x8
 1470 0482 96       		.byte	0x96
 1471 0483 B4040000 		.4byte	0x4b4
 1472 0487 11       		.uleb128 0x11
 1473 0488 21000000 		.4byte	.LASF71
 1474 048c 08       		.byte	0x8
 1475 048d 9D       		.byte	0x9d
 1476 048e F6000000 		.4byte	0xf6
 1477 0492 11       		.uleb128 0x11
 1478 0493 5B000000 		.4byte	.LASF72
 1479 0497 08       		.byte	0x8
 1480 0498 A4       		.byte	0xa4
 1481 0499 F6000000 		.4byte	0xf6
 1482 049d 11       		.uleb128 0x11
ARM GAS  /tmp/ccwhlLdW.s 			page 27


 1483 049e AA040000 		.4byte	.LASF73
 1484 04a2 08       		.byte	0x8
 1485 04a3 AB       		.byte	0xab
 1486 04a4 7C020000 		.4byte	0x27c
 1487 04a8 11       		.uleb128 0x11
 1488 04a9 4F030000 		.4byte	.LASF74
 1489 04ad 08       		.byte	0x8
 1490 04ae B2       		.byte	0xb2
 1491 04af 01010000 		.4byte	0x101
 1492 04b3 00       		.byte	0
 1493 04b4 09       		.uleb128 0x9
 1494 04b5 04       		.byte	0x4
 1495 04b6 BA040000 		.4byte	0x4ba
 1496 04ba 12       		.uleb128 0x12
 1497 04bb BF040000 		.4byte	0x4bf
 1498 04bf 04       		.uleb128 0x4
 1499 04c0 01       		.byte	0x1
 1500 04c1 08       		.byte	0x8
 1501 04c2 BD030000 		.4byte	.LASF75
 1502 04c6 09       		.uleb128 0x9
 1503 04c7 04       		.byte	0x4
 1504 04c8 74040000 		.4byte	0x474
 1505 04cc 03       		.uleb128 0x3
 1506 04cd 07000000 		.4byte	.LASF76
 1507 04d1 08       		.byte	0x8
 1508 04d2 E5       		.byte	0xe5
 1509 04d3 D7040000 		.4byte	0x4d7
 1510 04d7 09       		.uleb128 0x9
 1511 04d8 04       		.byte	0x4
 1512 04d9 DD040000 		.4byte	0x4dd
 1513 04dd 13       		.uleb128 0x13
 1514 04de F6000000 		.4byte	0xf6
 1515 04e2 EC040000 		.4byte	0x4ec
 1516 04e6 0E       		.uleb128 0xe
 1517 04e7 7C020000 		.4byte	0x27c
 1518 04eb 00       		.byte	0
 1519 04ec 14       		.uleb128 0x14
 1520 04ed 9B030000 		.4byte	.LASF78
 1521 04f1 01       		.byte	0x1
 1522 04f2 4C       		.byte	0x4c
 1523 04f3 40020000 		.4byte	0x240
 1524 04f7 01       		.byte	0x1
 1525 04f8 12050000 		.4byte	0x512
 1526 04fc 15       		.uleb128 0x15
 1527 04fd 747000   		.ascii	"tp\000"
 1528 0500 01       		.byte	0x1
 1529 0501 4C       		.byte	0x4c
 1530 0502 40020000 		.4byte	0x240
 1531 0506 16       		.uleb128 0x16
 1532 0507 1C000000 		.4byte	.LASF77
 1533 050b 01       		.byte	0x1
 1534 050c 4C       		.byte	0x4c
 1535 050d EB000000 		.4byte	0xeb
 1536 0511 00       		.byte	0
 1537 0512 14       		.uleb128 0x14
 1538 0513 A9000000 		.4byte	.LASF79
 1539 0517 01       		.byte	0x1
ARM GAS  /tmp/ccwhlLdW.s 			page 28


 1540 0518 9D       		.byte	0x9d
 1541 0519 40020000 		.4byte	0x240
 1542 051d 01       		.byte	0x1
 1543 051e 63050000 		.4byte	0x563
 1544 0522 15       		.uleb128 0x15
 1545 0523 77737000 		.ascii	"wsp\000"
 1546 0527 01       		.byte	0x1
 1547 0528 9D       		.byte	0x9d
 1548 0529 7C020000 		.4byte	0x27c
 1549 052d 16       		.uleb128 0x16
 1550 052e 52010000 		.4byte	.LASF80
 1551 0532 01       		.byte	0x1
 1552 0533 9D       		.byte	0x9d
 1553 0534 2C000000 		.4byte	0x2c
 1554 0538 16       		.uleb128 0x16
 1555 0539 1C000000 		.4byte	.LASF77
 1556 053d 01       		.byte	0x1
 1557 053e 9E       		.byte	0x9e
 1558 053f EB000000 		.4byte	0xeb
 1559 0543 15       		.uleb128 0x15
 1560 0544 706600   		.ascii	"pf\000"
 1561 0547 01       		.byte	0x1
 1562 0548 9E       		.byte	0x9e
 1563 0549 CC040000 		.4byte	0x4cc
 1564 054d 15       		.uleb128 0x15
 1565 054e 61726700 		.ascii	"arg\000"
 1566 0552 01       		.byte	0x1
 1567 0553 9E       		.byte	0x9e
 1568 0554 7C020000 		.4byte	0x27c
 1569 0558 17       		.uleb128 0x17
 1570 0559 747000   		.ascii	"tp\000"
 1571 055c 01       		.byte	0x1
 1572 055d A0       		.byte	0xa0
 1573 055e 40020000 		.4byte	0x240
 1574 0562 00       		.byte	0
 1575 0563 18       		.uleb128 0x18
 1576 0564 D0000000 		.4byte	.LASF105
 1577 0568 02       		.byte	0x2
 1578 0569 56       		.byte	0x56
 1579 056a 40020000 		.4byte	0x240
 1580 056e 03       		.byte	0x3
 1581 056f 89050000 		.4byte	0x589
 1582 0573 15       		.uleb128 0x15
 1583 0574 746C7000 		.ascii	"tlp\000"
 1584 0578 02       		.byte	0x2
 1585 0579 56       		.byte	0x56
 1586 057a 89050000 		.4byte	0x589
 1587 057e 17       		.uleb128 0x17
 1588 057f 747000   		.ascii	"tp\000"
 1589 0582 02       		.byte	0x2
 1590 0583 58       		.byte	0x58
 1591 0584 40020000 		.4byte	0x240
 1592 0588 00       		.byte	0
 1593 0589 09       		.uleb128 0x9
 1594 058a 04       		.byte	0x4
 1595 058b 66020000 		.4byte	0x266
 1596 058f 19       		.uleb128 0x19
ARM GAS  /tmp/ccwhlLdW.s 			page 29


 1597 0590 39020000 		.4byte	.LASF106
 1598 0594 02       		.byte	0x2
 1599 0595 50       		.byte	0x50
 1600 0596 03       		.byte	0x3
 1601 0597 B1050000 		.4byte	0x5b1
 1602 059b 15       		.uleb128 0x15
 1603 059c 747000   		.ascii	"tp\000"
 1604 059f 02       		.byte	0x2
 1605 05a0 50       		.byte	0x50
 1606 05a1 40020000 		.4byte	0x240
 1607 05a5 15       		.uleb128 0x15
 1608 05a6 746C7000 		.ascii	"tlp\000"
 1609 05aa 02       		.byte	0x2
 1610 05ab 50       		.byte	0x50
 1611 05ac 89050000 		.4byte	0x589
 1612 05b0 00       		.byte	0
 1613 05b1 1A       		.uleb128 0x1a
 1614 05b2 EC040000 		.4byte	0x4ec
 1615 05b6 00000000 		.4byte	.LFB7
 1616 05ba 50000000 		.4byte	.LFE7-.LFB7
 1617 05be 01       		.uleb128 0x1
 1618 05bf 9C       		.byte	0x9c
 1619 05c0 D3050000 		.4byte	0x5d3
 1620 05c4 1B       		.uleb128 0x1b
 1621 05c5 FC040000 		.4byte	0x4fc
 1622 05c9 01       		.uleb128 0x1
 1623 05ca 50       		.byte	0x50
 1624 05cb 1B       		.uleb128 0x1b
 1625 05cc 06050000 		.4byte	0x506
 1626 05d0 01       		.uleb128 0x1
 1627 05d1 51       		.byte	0x51
 1628 05d2 00       		.byte	0
 1629 05d3 1A       		.uleb128 0x1a
 1630 05d4 12050000 		.4byte	0x512
 1631 05d8 00000000 		.4byte	.LFB8
 1632 05dc 74000000 		.4byte	.LFE8-.LFB8
 1633 05e0 01       		.uleb128 0x1
 1634 05e1 9C       		.byte	0x9c
 1635 05e2 35060000 		.4byte	0x635
 1636 05e6 1B       		.uleb128 0x1b
 1637 05e7 22050000 		.4byte	0x522
 1638 05eb 01       		.uleb128 0x1
 1639 05ec 50       		.byte	0x50
 1640 05ed 1C       		.uleb128 0x1c
 1641 05ee 2D050000 		.4byte	0x52d
 1642 05f2 00000000 		.4byte	.LLST0
 1643 05f6 1B       		.uleb128 0x1b
 1644 05f7 38050000 		.4byte	0x538
 1645 05fb 01       		.uleb128 0x1
 1646 05fc 52       		.byte	0x52
 1647 05fd 1C       		.uleb128 0x1c
 1648 05fe 43050000 		.4byte	0x543
 1649 0602 2E000000 		.4byte	.LLST1
 1650 0606 1C       		.uleb128 0x1c
 1651 0607 4D050000 		.4byte	0x54d
 1652 060b 5B000000 		.4byte	.LLST2
 1653 060f 1D       		.uleb128 0x1d
ARM GAS  /tmp/ccwhlLdW.s 			page 30


 1654 0610 58050000 		.4byte	0x558
 1655 0614 01       		.uleb128 0x1
 1656 0615 50       		.byte	0x50
 1657 0616 1E       		.uleb128 0x1e
 1658 0617 EC040000 		.4byte	0x4ec
 1659 061b 04000000 		.4byte	.LBB16
 1660 061f 00000000 		.4byte	.Ldebug_ranges0+0
 1661 0623 01       		.byte	0x1
 1662 0624 A8       		.byte	0xa8
 1663 0625 1B       		.uleb128 0x1b
 1664 0626 06050000 		.4byte	0x506
 1665 062a 01       		.uleb128 0x1
 1666 062b 52       		.byte	0x52
 1667 062c 1B       		.uleb128 0x1b
 1668 062d FC040000 		.4byte	0x4fc
 1669 0631 01       		.uleb128 0x1
 1670 0632 50       		.byte	0x50
 1671 0633 00       		.byte	0
 1672 0634 00       		.byte	0
 1673 0635 1F       		.uleb128 0x1f
 1674 0636 CA010000 		.4byte	.LASF81
 1675 063a 01       		.byte	0x1
 1676 063b BB       		.byte	0xbb
 1677 063c 40020000 		.4byte	0x240
 1678 0640 00000000 		.4byte	.LFB9
 1679 0644 88000000 		.4byte	.LFE9-.LFB9
 1680 0648 01       		.uleb128 0x1
 1681 0649 9C       		.byte	0x9c
 1682 064a 61070000 		.4byte	0x761
 1683 064e 20       		.uleb128 0x20
 1684 064f 77737000 		.ascii	"wsp\000"
 1685 0653 01       		.byte	0x1
 1686 0654 BB       		.byte	0xbb
 1687 0655 7C020000 		.4byte	0x27c
 1688 0659 7B000000 		.4byte	.LLST3
 1689 065d 21       		.uleb128 0x21
 1690 065e 52010000 		.4byte	.LASF80
 1691 0662 01       		.byte	0x1
 1692 0663 BB       		.byte	0xbb
 1693 0664 2C000000 		.4byte	0x2c
 1694 0668 A4000000 		.4byte	.LLST4
 1695 066c 21       		.uleb128 0x21
 1696 066d 1C000000 		.4byte	.LASF77
 1697 0671 01       		.byte	0x1
 1698 0672 BC       		.byte	0xbc
 1699 0673 EB000000 		.4byte	0xeb
 1700 0677 D2000000 		.4byte	.LLST5
 1701 067b 20       		.uleb128 0x20
 1702 067c 706600   		.ascii	"pf\000"
 1703 067f 01       		.byte	0x1
 1704 0680 BC       		.byte	0xbc
 1705 0681 CC040000 		.4byte	0x4cc
 1706 0685 F3000000 		.4byte	.LLST6
 1707 0689 20       		.uleb128 0x20
 1708 068a 61726700 		.ascii	"arg\000"
 1709 068e 01       		.byte	0x1
 1710 068f BC       		.byte	0xbc
ARM GAS  /tmp/ccwhlLdW.s 			page 31


 1711 0690 7C020000 		.4byte	0x27c
 1712 0694 2B010000 		.4byte	.LLST7
 1713 0698 17       		.uleb128 0x17
 1714 0699 747000   		.ascii	"tp\000"
 1715 069c 01       		.byte	0x1
 1716 069d BD       		.byte	0xbd
 1717 069e 40020000 		.4byte	0x240
 1718 06a2 22       		.uleb128 0x22
 1719 06a3 08000000 		.4byte	.LBB26
 1720 06a7 06000000 		.4byte	.LBE26-.LBB26
 1721 06ab BD060000 		.4byte	0x6bd
 1722 06af 23       		.uleb128 0x23
 1723 06b0 746D7000 		.ascii	"tmp\000"
 1724 06b4 01       		.byte	0x1
 1725 06b5 C7       		.byte	0xc7
 1726 06b6 AD000000 		.4byte	0xad
 1727 06ba 01       		.uleb128 0x1
 1728 06bb 53       		.byte	0x53
 1729 06bc 00       		.byte	0
 1730 06bd 24       		.uleb128 0x24
 1731 06be 12050000 		.4byte	0x512
 1732 06c2 0E000000 		.4byte	.LBB27
 1733 06c6 30000000 		.4byte	.Ldebug_ranges0+0x30
 1734 06ca 01       		.byte	0x1
 1735 06cb C8       		.byte	0xc8
 1736 06cc 2F070000 		.4byte	0x72f
 1737 06d0 1C       		.uleb128 0x1c
 1738 06d1 4D050000 		.4byte	0x54d
 1739 06d5 4B010000 		.4byte	.LLST8
 1740 06d9 1C       		.uleb128 0x1c
 1741 06da 43050000 		.4byte	0x543
 1742 06de 6B010000 		.4byte	.LLST9
 1743 06e2 1C       		.uleb128 0x1c
 1744 06e3 38050000 		.4byte	0x538
 1745 06e7 98010000 		.4byte	.LLST10
 1746 06eb 1C       		.uleb128 0x1c
 1747 06ec 2D050000 		.4byte	0x52d
 1748 06f0 B9010000 		.4byte	.LLST11
 1749 06f4 1C       		.uleb128 0x1c
 1750 06f5 22050000 		.4byte	0x522
 1751 06f9 E7010000 		.4byte	.LLST12
 1752 06fd 25       		.uleb128 0x25
 1753 06fe 30000000 		.4byte	.Ldebug_ranges0+0x30
 1754 0702 26       		.uleb128 0x26
 1755 0703 58050000 		.4byte	0x558
 1756 0707 E7010000 		.4byte	.LLST12
 1757 070b 1E       		.uleb128 0x1e
 1758 070c EC040000 		.4byte	0x4ec
 1759 0710 0E000000 		.4byte	.LBB29
 1760 0714 48000000 		.4byte	.Ldebug_ranges0+0x48
 1761 0718 01       		.byte	0x1
 1762 0719 A8       		.byte	0xa8
 1763 071a 1C       		.uleb128 0x1c
 1764 071b 06050000 		.4byte	0x506
 1765 071f 10020000 		.4byte	.LLST14
 1766 0723 1C       		.uleb128 0x1c
 1767 0724 FC040000 		.4byte	0x4fc
ARM GAS  /tmp/ccwhlLdW.s 			page 32


 1768 0728 31020000 		.4byte	.LLST15
 1769 072c 00       		.byte	0
 1770 072d 00       		.byte	0
 1771 072e 00       		.byte	0
 1772 072f 22       		.uleb128 0x22
 1773 0730 74000000 		.4byte	.LBB41
 1774 0734 06000000 		.4byte	.LBE41-.LBB41
 1775 0738 4A070000 		.4byte	0x74a
 1776 073c 23       		.uleb128 0x23
 1777 073d 746D7000 		.ascii	"tmp\000"
 1778 0741 01       		.byte	0x1
 1779 0742 C9       		.byte	0xc9
 1780 0743 AD000000 		.4byte	0xad
 1781 0747 01       		.uleb128 0x1
 1782 0748 53       		.byte	0x53
 1783 0749 00       		.byte	0
 1784 074a 27       		.uleb128 0x27
 1785 074b 74000000 		.4byte	.LVL16
 1786 074f 780B0000 		.4byte	0xb78
 1787 0753 28       		.uleb128 0x28
 1788 0754 01       		.uleb128 0x1
 1789 0755 51       		.byte	0x51
 1790 0756 02       		.uleb128 0x2
 1791 0757 75       		.byte	0x75
 1792 0758 00       		.sleb128 0
 1793 0759 28       		.uleb128 0x28
 1794 075a 01       		.uleb128 0x1
 1795 075b 50       		.byte	0x50
 1796 075c 02       		.uleb128 0x2
 1797 075d 74       		.byte	0x74
 1798 075e 00       		.sleb128 0
 1799 075f 00       		.byte	0
 1800 0760 00       		.byte	0
 1801 0761 1F       		.uleb128 0x1f
 1802 0762 09010000 		.4byte	.LASF82
 1803 0766 01       		.byte	0x1
 1804 0767 D9       		.byte	0xd9
 1805 0768 EB000000 		.4byte	0xeb
 1806 076c 00000000 		.4byte	.LFB10
 1807 0770 30000000 		.4byte	.LFE10-.LFB10
 1808 0774 01       		.uleb128 0x1
 1809 0775 9C       		.byte	0x9c
 1810 0776 D8070000 		.4byte	0x7d8
 1811 077a 21       		.uleb128 0x21
 1812 077b 85010000 		.4byte	.LASF83
 1813 077f 01       		.byte	0x1
 1814 0780 D9       		.byte	0xd9
 1815 0781 EB000000 		.4byte	0xeb
 1816 0785 5A020000 		.4byte	.LLST16
 1817 0789 29       		.uleb128 0x29
 1818 078a C2010000 		.4byte	.LASF84
 1819 078e 01       		.byte	0x1
 1820 078f DA       		.byte	0xda
 1821 0790 EB000000 		.4byte	0xeb
 1822 0794 7B020000 		.4byte	.LLST17
 1823 0798 22       		.uleb128 0x22
 1824 0799 02000000 		.4byte	.LBB42
ARM GAS  /tmp/ccwhlLdW.s 			page 33


 1825 079d 06000000 		.4byte	.LBE42-.LBB42
 1826 07a1 B3070000 		.4byte	0x7b3
 1827 07a5 23       		.uleb128 0x23
 1828 07a6 746D7000 		.ascii	"tmp\000"
 1829 07aa 01       		.byte	0x1
 1830 07ab DE       		.byte	0xde
 1831 07ac AD000000 		.4byte	0xad
 1832 07b0 01       		.uleb128 0x1
 1833 07b1 53       		.byte	0x53
 1834 07b2 00       		.byte	0
 1835 07b3 22       		.uleb128 0x22
 1836 07b4 20000000 		.4byte	.LBB43
 1837 07b8 06000000 		.4byte	.LBE43-.LBB43
 1838 07bc CE070000 		.4byte	0x7ce
 1839 07c0 23       		.uleb128 0x23
 1840 07c1 746D7000 		.ascii	"tmp\000"
 1841 07c5 01       		.byte	0x1
 1842 07c6 E9       		.byte	0xe9
 1843 07c7 AD000000 		.4byte	0xad
 1844 07cb 01       		.uleb128 0x1
 1845 07cc 53       		.byte	0x53
 1846 07cd 00       		.byte	0
 1847 07ce 2A       		.uleb128 0x2a
 1848 07cf 20000000 		.4byte	.LVL20
 1849 07d3 8E0B0000 		.4byte	0xb8e
 1850 07d7 00       		.byte	0
 1851 07d8 1F       		.uleb128 0x1f
 1852 07d9 F5010000 		.4byte	.LASF85
 1853 07dd 01       		.byte	0x1
 1854 07de FA       		.byte	0xfa
 1855 07df 40020000 		.4byte	0x240
 1856 07e3 00000000 		.4byte	.LFB11
 1857 07e7 1A000000 		.4byte	.LFE11-.LFB11
 1858 07eb 01       		.uleb128 0x1
 1859 07ec 9C       		.byte	0x9c
 1860 07ed 48080000 		.4byte	0x848
 1861 07f1 20       		.uleb128 0x20
 1862 07f2 747000   		.ascii	"tp\000"
 1863 07f5 01       		.byte	0x1
 1864 07f6 FA       		.byte	0xfa
 1865 07f7 40020000 		.4byte	0x240
 1866 07fb 99020000 		.4byte	.LLST18
 1867 07ff 2B       		.uleb128 0x2b
 1868 0800 78000000 		.4byte	.Ldebug_ranges0+0x78
 1869 0804 16080000 		.4byte	0x816
 1870 0808 23       		.uleb128 0x23
 1871 0809 746D7000 		.ascii	"tmp\000"
 1872 080d 01       		.byte	0x1
 1873 080e FC       		.byte	0xfc
 1874 080f AD000000 		.4byte	0xad
 1875 0813 01       		.uleb128 0x1
 1876 0814 53       		.byte	0x53
 1877 0815 00       		.byte	0
 1878 0816 22       		.uleb128 0x22
 1879 0817 10000000 		.4byte	.LBB46
 1880 081b 06000000 		.4byte	.LBE46-.LBB46
 1881 081f 32080000 		.4byte	0x832
ARM GAS  /tmp/ccwhlLdW.s 			page 34


 1882 0823 2C       		.uleb128 0x2c
 1883 0824 746D7000 		.ascii	"tmp\000"
 1884 0828 01       		.byte	0x1
 1885 0829 0101     		.2byte	0x101
 1886 082b AD000000 		.4byte	0xad
 1887 082f 01       		.uleb128 0x1
 1888 0830 53       		.byte	0x53
 1889 0831 00       		.byte	0
 1890 0832 27       		.uleb128 0x27
 1891 0833 10000000 		.4byte	.LVL23
 1892 0837 780B0000 		.4byte	0xb78
 1893 083b 28       		.uleb128 0x28
 1894 083c 01       		.uleb128 0x1
 1895 083d 51       		.byte	0x51
 1896 083e 01       		.uleb128 0x1
 1897 083f 30       		.byte	0x30
 1898 0840 28       		.uleb128 0x28
 1899 0841 01       		.uleb128 0x1
 1900 0842 50       		.byte	0x50
 1901 0843 02       		.uleb128 0x2
 1902 0844 74       		.byte	0x74
 1903 0845 00       		.sleb128 0
 1904 0846 00       		.byte	0
 1905 0847 00       		.byte	0
 1906 0848 2D       		.uleb128 0x2d
 1907 0849 95010000 		.4byte	.LASF86
 1908 084d 01       		.byte	0x1
 1909 084e 1101     		.2byte	0x111
 1910 0850 00000000 		.4byte	.LFB12
 1911 0854 16000000 		.4byte	.LFE12-.LFB12
 1912 0858 01       		.uleb128 0x1
 1913 0859 9C       		.byte	0x9c
 1914 085a 9C080000 		.4byte	0x89c
 1915 085e 2E       		.uleb128 0x2e
 1916 085f 747000   		.ascii	"tp\000"
 1917 0862 01       		.byte	0x1
 1918 0863 1101     		.2byte	0x111
 1919 0865 40020000 		.4byte	0x240
 1920 0869 01       		.uleb128 0x1
 1921 086a 50       		.byte	0x50
 1922 086b 22       		.uleb128 0x22
 1923 086c 00000000 		.4byte	.LBB47
 1924 0870 06000000 		.4byte	.LBE47-.LBB47
 1925 0874 87080000 		.4byte	0x887
 1926 0878 2C       		.uleb128 0x2c
 1927 0879 746D7000 		.ascii	"tmp\000"
 1928 087d 01       		.byte	0x1
 1929 087e 1301     		.2byte	0x113
 1930 0880 AD000000 		.4byte	0xad
 1931 0884 01       		.uleb128 0x1
 1932 0885 53       		.byte	0x53
 1933 0886 00       		.byte	0
 1934 0887 25       		.uleb128 0x25
 1935 0888 90000000 		.4byte	.Ldebug_ranges0+0x90
 1936 088c 2C       		.uleb128 0x2c
 1937 088d 746D7000 		.ascii	"tmp\000"
 1938 0891 01       		.byte	0x1
ARM GAS  /tmp/ccwhlLdW.s 			page 35


 1939 0892 1501     		.2byte	0x115
 1940 0894 AD000000 		.4byte	0xad
 1941 0898 01       		.uleb128 0x1
 1942 0899 53       		.byte	0x53
 1943 089a 00       		.byte	0
 1944 089b 00       		.byte	0
 1945 089c 2D       		.uleb128 0x2d
 1946 089d 60040000 		.4byte	.LASF87
 1947 08a1 01       		.byte	0x1
 1948 08a2 2401     		.2byte	0x124
 1949 08a4 00000000 		.4byte	.LFB13
 1950 08a8 18000000 		.4byte	.LFE13-.LFB13
 1951 08ac 01       		.uleb128 0x1
 1952 08ad 9C       		.byte	0x9c
 1953 08ae 11090000 		.4byte	0x911
 1954 08b2 2F       		.uleb128 0x2f
 1955 08b3 34020000 		.4byte	.LASF88
 1956 08b7 01       		.byte	0x1
 1957 08b8 2401     		.2byte	0x124
 1958 08ba 0C010000 		.4byte	0x10c
 1959 08be B7020000 		.4byte	.LLST19
 1960 08c2 22       		.uleb128 0x22
 1961 08c3 04000000 		.4byte	.LBB50
 1962 08c7 06000000 		.4byte	.LBE50-.LBB50
 1963 08cb DE080000 		.4byte	0x8de
 1964 08cf 2C       		.uleb128 0x2c
 1965 08d0 746D7000 		.ascii	"tmp\000"
 1966 08d4 01       		.byte	0x1
 1967 08d5 2801     		.2byte	0x128
 1968 08d7 AD000000 		.4byte	0xad
 1969 08db 01       		.uleb128 0x1
 1970 08dc 53       		.byte	0x53
 1971 08dd 00       		.byte	0
 1972 08de 22       		.uleb128 0x22
 1973 08df 10000000 		.4byte	.LBB51
 1974 08e3 08000000 		.4byte	.LBE51-.LBB51
 1975 08e7 FA080000 		.4byte	0x8fa
 1976 08eb 2C       		.uleb128 0x2c
 1977 08ec 746D7000 		.ascii	"tmp\000"
 1978 08f0 01       		.byte	0x1
 1979 08f1 2A01     		.2byte	0x12a
 1980 08f3 AD000000 		.4byte	0xad
 1981 08f7 01       		.uleb128 0x1
 1982 08f8 53       		.byte	0x53
 1983 08f9 00       		.byte	0
 1984 08fa 27       		.uleb128 0x27
 1985 08fb 10000000 		.4byte	.LVL27
 1986 08ff 950B0000 		.4byte	0xb95
 1987 0903 28       		.uleb128 0x28
 1988 0904 01       		.uleb128 0x1
 1989 0905 51       		.byte	0x51
 1990 0906 03       		.uleb128 0x3
 1991 0907 F3       		.byte	0xf3
 1992 0908 01       		.uleb128 0x1
 1993 0909 50       		.byte	0x50
 1994 090a 28       		.uleb128 0x28
 1995 090b 01       		.uleb128 0x1
ARM GAS  /tmp/ccwhlLdW.s 			page 36


 1996 090c 50       		.byte	0x50
 1997 090d 01       		.uleb128 0x1
 1998 090e 36       		.byte	0x36
 1999 090f 00       		.byte	0
 2000 0910 00       		.byte	0
 2001 0911 2D       		.uleb128 0x2d
 2002 0912 57020000 		.4byte	.LASF89
 2003 0916 01       		.byte	0x1
 2004 0917 3501     		.2byte	0x135
 2005 0919 00000000 		.4byte	.LFB14
 2006 091d 24000000 		.4byte	.LFE14-.LFB14
 2007 0921 01       		.uleb128 0x1
 2008 0922 9C       		.byte	0x9c
 2009 0923 7F090000 		.4byte	0x97f
 2010 0927 2F       		.uleb128 0x2f
 2011 0928 34020000 		.4byte	.LASF88
 2012 092c 01       		.byte	0x1
 2013 092d 3501     		.2byte	0x135
 2014 092f 0C010000 		.4byte	0x10c
 2015 0933 E3020000 		.4byte	.LLST20
 2016 0937 22       		.uleb128 0x22
 2017 0938 02000000 		.4byte	.LBB52
 2018 093c 06000000 		.4byte	.LBE52-.LBB52
 2019 0940 53090000 		.4byte	0x953
 2020 0944 2C       		.uleb128 0x2c
 2021 0945 746D7000 		.ascii	"tmp\000"
 2022 0949 01       		.byte	0x1
 2023 094a 3701     		.2byte	0x137
 2024 094c AD000000 		.4byte	0xad
 2025 0950 01       		.uleb128 0x1
 2026 0951 53       		.byte	0x53
 2027 0952 00       		.byte	0
 2028 0953 22       		.uleb128 0x22
 2029 0954 16000000 		.4byte	.LBB53
 2030 0958 0E000000 		.4byte	.LBE53-.LBB53
 2031 095c 6F090000 		.4byte	0x96f
 2032 0960 2C       		.uleb128 0x2c
 2033 0961 746D7000 		.ascii	"tmp\000"
 2034 0965 01       		.byte	0x1
 2035 0966 3A01     		.2byte	0x13a
 2036 0968 AD000000 		.4byte	0xad
 2037 096c 01       		.uleb128 0x1
 2038 096d 53       		.byte	0x53
 2039 096e 00       		.byte	0
 2040 096f 27       		.uleb128 0x27
 2041 0970 16000000 		.4byte	.LVL31
 2042 0974 950B0000 		.4byte	0xb95
 2043 0978 28       		.uleb128 0x28
 2044 0979 01       		.uleb128 0x1
 2045 097a 50       		.byte	0x50
 2046 097b 01       		.uleb128 0x1
 2047 097c 36       		.byte	0x36
 2048 097d 00       		.byte	0
 2049 097e 00       		.byte	0
 2050 097f 2D       		.uleb128 0x2d
 2051 0980 F4030000 		.4byte	.LASF90
 2052 0984 01       		.byte	0x1
ARM GAS  /tmp/ccwhlLdW.s 			page 37


 2053 0985 4401     		.2byte	0x144
 2054 0987 00000000 		.4byte	.LFB15
 2055 098b 28000000 		.4byte	.LFE15-.LFB15
 2056 098f 01       		.uleb128 0x1
 2057 0990 9C       		.byte	0x9c
 2058 0991 D7090000 		.4byte	0x9d7
 2059 0995 22       		.uleb128 0x22
 2060 0996 02000000 		.4byte	.LBB54
 2061 099a 06000000 		.4byte	.LBE54-.LBB54
 2062 099e B1090000 		.4byte	0x9b1
 2063 09a2 2C       		.uleb128 0x2c
 2064 09a3 746D7000 		.ascii	"tmp\000"
 2065 09a7 01       		.byte	0x1
 2066 09a8 4601     		.2byte	0x146
 2067 09aa AD000000 		.4byte	0xad
 2068 09ae 01       		.uleb128 0x1
 2069 09af 53       		.byte	0x53
 2070 09b0 00       		.byte	0
 2071 09b1 22       		.uleb128 0x22
 2072 09b2 1A000000 		.4byte	.LBB55
 2073 09b6 0E000000 		.4byte	.LBE55-.LBB55
 2074 09ba CD090000 		.4byte	0x9cd
 2075 09be 2C       		.uleb128 0x2c
 2076 09bf 746D7000 		.ascii	"tmp\000"
 2077 09c3 01       		.byte	0x1
 2078 09c4 4801     		.2byte	0x148
 2079 09c6 AD000000 		.4byte	0xad
 2080 09ca 01       		.uleb128 0x1
 2081 09cb 53       		.byte	0x53
 2082 09cc 00       		.byte	0
 2083 09cd 2A       		.uleb128 0x2a
 2084 09ce 1A000000 		.4byte	.LVL32
 2085 09d2 AF0B0000 		.4byte	0xbaf
 2086 09d6 00       		.byte	0
 2087 09d7 2D       		.uleb128 0x2d
 2088 09d8 39000000 		.4byte	.LASF91
 2089 09dc 01       		.byte	0x1
 2090 09dd 6E01     		.2byte	0x16e
 2091 09df 00000000 		.4byte	.LFB17
 2092 09e3 40000000 		.4byte	.LFE17-.LFB17
 2093 09e7 01       		.uleb128 0x1
 2094 09e8 9C       		.byte	0x9c
 2095 09e9 520A0000 		.4byte	0xa52
 2096 09ed 30       		.uleb128 0x30
 2097 09ee 6D736700 		.ascii	"msg\000"
 2098 09f2 01       		.byte	0x1
 2099 09f3 6E01     		.2byte	0x16e
 2100 09f5 F6000000 		.4byte	0xf6
 2101 09f9 11030000 		.4byte	.LLST21
 2102 09fd 31       		.uleb128 0x31
 2103 09fe 747000   		.ascii	"tp\000"
 2104 0a01 01       		.byte	0x1
 2105 0a02 6F01     		.2byte	0x16f
 2106 0a04 40020000 		.4byte	0x240
 2107 0a08 32030000 		.4byte	.LLST22
 2108 0a0c 32       		.uleb128 0x32
 2109 0a0d 63050000 		.4byte	0x563
ARM GAS  /tmp/ccwhlLdW.s 			page 38


 2110 0a11 12000000 		.4byte	.LBB56
 2111 0a15 A8000000 		.4byte	.Ldebug_ranges0+0xa8
 2112 0a19 01       		.byte	0x1
 2113 0a1a 7701     		.2byte	0x177
 2114 0a1c 390A0000 		.4byte	0xa39
 2115 0a20 1C       		.uleb128 0x1c
 2116 0a21 73050000 		.4byte	0x573
 2117 0a25 45030000 		.4byte	.LLST23
 2118 0a29 25       		.uleb128 0x25
 2119 0a2a A8000000 		.4byte	.Ldebug_ranges0+0xa8
 2120 0a2e 26       		.uleb128 0x26
 2121 0a2f 7E050000 		.4byte	0x57e
 2122 0a33 5A030000 		.4byte	.LLST24
 2123 0a37 00       		.byte	0
 2124 0a38 00       		.byte	0
 2125 0a39 2A       		.uleb128 0x2a
 2126 0a3a 1C000000 		.4byte	.LVL36
 2127 0a3e B60B0000 		.4byte	0xbb6
 2128 0a42 33       		.uleb128 0x33
 2129 0a43 3C000000 		.4byte	.LVL39
 2130 0a47 CB0B0000 		.4byte	0xbcb
 2131 0a4b 28       		.uleb128 0x28
 2132 0a4c 01       		.uleb128 0x1
 2133 0a4d 50       		.byte	0x50
 2134 0a4e 01       		.uleb128 0x1
 2135 0a4f 3E       		.byte	0x3e
 2136 0a50 00       		.byte	0
 2137 0a51 00       		.byte	0
 2138 0a52 2D       		.uleb128 0x2d
 2139 0a53 85000000 		.4byte	.LASF92
 2140 0a57 01       		.byte	0x1
 2141 0a58 5901     		.2byte	0x159
 2142 0a5a 00000000 		.4byte	.LFB16
 2143 0a5e 0A000000 		.4byte	.LFE16-.LFB16
 2144 0a62 01       		.uleb128 0x1
 2145 0a63 9C       		.byte	0x9c
 2146 0a64 A60A0000 		.4byte	0xaa6
 2147 0a68 30       		.uleb128 0x30
 2148 0a69 6D736700 		.ascii	"msg\000"
 2149 0a6d 01       		.byte	0x1
 2150 0a6e 5901     		.2byte	0x159
 2151 0a70 F6000000 		.4byte	0xf6
 2152 0a74 6D030000 		.4byte	.LLST25
 2153 0a78 22       		.uleb128 0x22
 2154 0a79 00000000 		.4byte	.LBB60
 2155 0a7d 06000000 		.4byte	.LBE60-.LBB60
 2156 0a81 940A0000 		.4byte	0xa94
 2157 0a85 2C       		.uleb128 0x2c
 2158 0a86 746D7000 		.ascii	"tmp\000"
 2159 0a8a 01       		.byte	0x1
 2160 0a8b 5B01     		.2byte	0x15b
 2161 0a8d AD000000 		.4byte	0xad
 2162 0a91 01       		.uleb128 0x1
 2163 0a92 53       		.byte	0x53
 2164 0a93 00       		.byte	0
 2165 0a94 33       		.uleb128 0x33
 2166 0a95 0A000000 		.4byte	.LVL41
ARM GAS  /tmp/ccwhlLdW.s 			page 39


 2167 0a99 D7090000 		.4byte	0x9d7
 2168 0a9d 28       		.uleb128 0x28
 2169 0a9e 01       		.uleb128 0x1
 2170 0a9f 50       		.byte	0x50
 2171 0aa0 03       		.uleb128 0x3
 2172 0aa1 F3       		.byte	0xf3
 2173 0aa2 01       		.uleb128 0x1
 2174 0aa3 50       		.byte	0x50
 2175 0aa4 00       		.byte	0
 2176 0aa5 00       		.byte	0
 2177 0aa6 34       		.uleb128 0x34
 2178 0aa7 4F040000 		.4byte	.LASF93
 2179 0aab 01       		.byte	0x1
 2180 0aac A401     		.2byte	0x1a4
 2181 0aae F6000000 		.4byte	0xf6
 2182 0ab2 00000000 		.4byte	.LFB18
 2183 0ab6 38000000 		.4byte	.LFE18-.LFB18
 2184 0aba 01       		.uleb128 0x1
 2185 0abb 9C       		.byte	0x9c
 2186 0abc 620B0000 		.4byte	0xb62
 2187 0ac0 30       		.uleb128 0x30
 2188 0ac1 747000   		.ascii	"tp\000"
 2189 0ac4 01       		.byte	0x1
 2190 0ac5 A401     		.2byte	0x1a4
 2191 0ac7 40020000 		.4byte	0x240
 2192 0acb 8E030000 		.4byte	.LLST26
 2193 0acf 31       		.uleb128 0x31
 2194 0ad0 6D736700 		.ascii	"msg\000"
 2195 0ad4 01       		.byte	0x1
 2196 0ad5 A501     		.2byte	0x1a5
 2197 0ad7 F6000000 		.4byte	0xf6
 2198 0adb BA030000 		.4byte	.LLST27
 2199 0adf 22       		.uleb128 0x22
 2200 0ae0 04000000 		.4byte	.LBB61
 2201 0ae4 06000000 		.4byte	.LBE61-.LBB61
 2202 0ae8 FB0A0000 		.4byte	0xafb
 2203 0aec 2C       		.uleb128 0x2c
 2204 0aed 746D7000 		.ascii	"tmp\000"
 2205 0af1 01       		.byte	0x1
 2206 0af2 A901     		.2byte	0x1a9
 2207 0af4 AD000000 		.4byte	0xad
 2208 0af8 01       		.uleb128 0x1
 2209 0af9 53       		.byte	0x53
 2210 0afa 00       		.byte	0
 2211 0afb 32       		.uleb128 0x32
 2212 0afc 8F050000 		.4byte	0x58f
 2213 0b00 12000000 		.4byte	.LBB62
 2214 0b04 C0000000 		.4byte	.Ldebug_ranges0+0xc0
 2215 0b08 01       		.byte	0x1
 2216 0b09 AF01     		.2byte	0x1af
 2217 0b0b 220B0000 		.4byte	0xb22
 2218 0b0f 1C       		.uleb128 0x1c
 2219 0b10 A5050000 		.4byte	0x5a5
 2220 0b14 D8030000 		.4byte	.LLST28
 2221 0b18 1C       		.uleb128 0x1c
 2222 0b19 9B050000 		.4byte	0x59b
 2223 0b1d FA030000 		.4byte	.LLST29
ARM GAS  /tmp/ccwhlLdW.s 			page 40


 2224 0b21 00       		.byte	0
 2225 0b22 22       		.uleb128 0x22
 2226 0b23 22000000 		.4byte	.LBB66
 2227 0b27 06000000 		.4byte	.LBE66-.LBB66
 2228 0b2b 3E0B0000 		.4byte	0xb3e
 2229 0b2f 2C       		.uleb128 0x2c
 2230 0b30 746D7000 		.ascii	"tmp\000"
 2231 0b34 01       		.byte	0x1
 2232 0b35 B301     		.2byte	0x1b3
 2233 0b37 AD000000 		.4byte	0xad
 2234 0b3b 01       		.uleb128 0x1
 2235 0b3c 53       		.byte	0x53
 2236 0b3d 00       		.byte	0
 2237 0b3e 35       		.uleb128 0x35
 2238 0b3f 20000000 		.4byte	.LVL45
 2239 0b43 CB0B0000 		.4byte	0xbcb
 2240 0b47 510B0000 		.4byte	0xb51
 2241 0b4b 28       		.uleb128 0x28
 2242 0b4c 01       		.uleb128 0x1
 2243 0b4d 50       		.byte	0x50
 2244 0b4e 01       		.uleb128 0x1
 2245 0b4f 37       		.byte	0x37
 2246 0b50 00       		.byte	0
 2247 0b51 27       		.uleb128 0x27
 2248 0b52 2E000000 		.4byte	.LVL47
 2249 0b56 DC0B0000 		.4byte	0xbdc
 2250 0b5a 28       		.uleb128 0x28
 2251 0b5b 01       		.uleb128 0x1
 2252 0b5c 50       		.byte	0x50
 2253 0b5d 02       		.uleb128 0x2
 2254 0b5e 74       		.byte	0x74
 2255 0b5f 00       		.sleb128 0
 2256 0b60 00       		.byte	0
 2257 0b61 00       		.byte	0
 2258 0b62 36       		.uleb128 0x36
 2259 0b63 32000000 		.4byte	.LASF94
 2260 0b67 0A       		.byte	0xa
 2261 0b68 F5       		.byte	0xf5
 2262 0b69 D6030000 		.4byte	0x3d6
 2263 0b6d 36       		.uleb128 0x36
 2264 0b6e 7C040000 		.4byte	.LASF95
 2265 0b72 0B       		.byte	0xb
 2266 0b73 6F       		.byte	0x6f
 2267 0b74 32040000 		.4byte	0x432
 2268 0b78 37       		.uleb128 0x37
 2269 0b79 6A010000 		.4byte	.LASF100
 2270 0b7d 0B       		.byte	0xb
 2271 0b7e 99       		.byte	0x99
 2272 0b7f 8E0B0000 		.4byte	0xb8e
 2273 0b83 0E       		.uleb128 0xe
 2274 0b84 40020000 		.4byte	0x240
 2275 0b88 0E       		.uleb128 0xe
 2276 0b89 F6000000 		.4byte	0xf6
 2277 0b8d 00       		.byte	0
 2278 0b8e 38       		.uleb128 0x38
 2279 0b8f DC000000 		.4byte	.LASF97
 2280 0b93 0B       		.byte	0xb
ARM GAS  /tmp/ccwhlLdW.s 			page 41


 2281 0b94 9C       		.byte	0x9c
 2282 0b95 39       		.uleb128 0x39
 2283 0b96 C3040000 		.4byte	.LASF96
 2284 0b9a 0B       		.byte	0xb
 2285 0b9b 96       		.byte	0x96
 2286 0b9c F6000000 		.4byte	0xf6
 2287 0ba0 AF0B0000 		.4byte	0xbaf
 2288 0ba4 0E       		.uleb128 0xe
 2289 0ba5 CA000000 		.4byte	0xca
 2290 0ba9 0E       		.uleb128 0xe
 2291 0baa 0C010000 		.4byte	0x10c
 2292 0bae 00       		.byte	0
 2293 0baf 38       		.uleb128 0x38
 2294 0bb0 01020000 		.4byte	.LASF98
 2295 0bb4 0B       		.byte	0xb
 2296 0bb5 A2       		.byte	0xa2
 2297 0bb6 39       		.uleb128 0x39
 2298 0bb7 C2030000 		.4byte	.LASF99
 2299 0bbb 0B       		.byte	0xb
 2300 0bbc 90       		.byte	0x90
 2301 0bbd 40020000 		.4byte	0x240
 2302 0bc1 CB0B0000 		.4byte	0xbcb
 2303 0bc5 0E       		.uleb128 0xe
 2304 0bc6 40020000 		.4byte	0x240
 2305 0bca 00       		.byte	0
 2306 0bcb 37       		.uleb128 0x37
 2307 0bcc 79030000 		.4byte	.LASF101
 2308 0bd0 0B       		.byte	0xb
 2309 0bd1 93       		.byte	0x93
 2310 0bd2 DC0B0000 		.4byte	0xbdc
 2311 0bd6 0E       		.uleb128 0xe
 2312 0bd7 CA000000 		.4byte	0xca
 2313 0bdb 00       		.byte	0
 2314 0bdc 3A       		.uleb128 0x3a
 2315 0bdd 65030000 		.4byte	.LASF107
 2316 0be1 0D       		.byte	0xd
 2317 0be2 3A       		.byte	0x3a
 2318 0be3 0E       		.uleb128 0xe
 2319 0be4 40020000 		.4byte	0x240
 2320 0be8 00       		.byte	0
 2321 0be9 00       		.byte	0
 2322              		.section	.debug_abbrev,"",%progbits
 2323              	.Ldebug_abbrev0:
 2324 0000 01       		.uleb128 0x1
 2325 0001 11       		.uleb128 0x11
 2326 0002 01       		.byte	0x1
 2327 0003 25       		.uleb128 0x25
 2328 0004 0E       		.uleb128 0xe
 2329 0005 13       		.uleb128 0x13
 2330 0006 0B       		.uleb128 0xb
 2331 0007 03       		.uleb128 0x3
 2332 0008 0E       		.uleb128 0xe
 2333 0009 1B       		.uleb128 0x1b
 2334 000a 0E       		.uleb128 0xe
 2335 000b 55       		.uleb128 0x55
 2336 000c 17       		.uleb128 0x17
 2337 000d 11       		.uleb128 0x11
ARM GAS  /tmp/ccwhlLdW.s 			page 42


 2338 000e 01       		.uleb128 0x1
 2339 000f 10       		.uleb128 0x10
 2340 0010 17       		.uleb128 0x17
 2341 0011 00       		.byte	0
 2342 0012 00       		.byte	0
 2343 0013 02       		.uleb128 0x2
 2344 0014 24       		.uleb128 0x24
 2345 0015 00       		.byte	0
 2346 0016 0B       		.uleb128 0xb
 2347 0017 0B       		.uleb128 0xb
 2348 0018 3E       		.uleb128 0x3e
 2349 0019 0B       		.uleb128 0xb
 2350 001a 03       		.uleb128 0x3
 2351 001b 08       		.uleb128 0x8
 2352 001c 00       		.byte	0
 2353 001d 00       		.byte	0
 2354 001e 03       		.uleb128 0x3
 2355 001f 16       		.uleb128 0x16
 2356 0020 00       		.byte	0
 2357 0021 03       		.uleb128 0x3
 2358 0022 0E       		.uleb128 0xe
 2359 0023 3A       		.uleb128 0x3a
 2360 0024 0B       		.uleb128 0xb
 2361 0025 3B       		.uleb128 0x3b
 2362 0026 0B       		.uleb128 0xb
 2363 0027 49       		.uleb128 0x49
 2364 0028 13       		.uleb128 0x13
 2365 0029 00       		.byte	0
 2366 002a 00       		.byte	0
 2367 002b 04       		.uleb128 0x4
 2368 002c 24       		.uleb128 0x24
 2369 002d 00       		.byte	0
 2370 002e 0B       		.uleb128 0xb
 2371 002f 0B       		.uleb128 0xb
 2372 0030 3E       		.uleb128 0x3e
 2373 0031 0B       		.uleb128 0xb
 2374 0032 03       		.uleb128 0x3
 2375 0033 0E       		.uleb128 0xe
 2376 0034 00       		.byte	0
 2377 0035 00       		.byte	0
 2378 0036 05       		.uleb128 0x5
 2379 0037 13       		.uleb128 0x13
 2380 0038 01       		.byte	0x1
 2381 0039 03       		.uleb128 0x3
 2382 003a 0E       		.uleb128 0xe
 2383 003b 0B       		.uleb128 0xb
 2384 003c 0B       		.uleb128 0xb
 2385 003d 3A       		.uleb128 0x3a
 2386 003e 0B       		.uleb128 0xb
 2387 003f 3B       		.uleb128 0x3b
 2388 0040 0B       		.uleb128 0xb
 2389 0041 01       		.uleb128 0x1
 2390 0042 13       		.uleb128 0x13
 2391 0043 00       		.byte	0
 2392 0044 00       		.byte	0
 2393 0045 06       		.uleb128 0x6
 2394 0046 0D       		.uleb128 0xd
ARM GAS  /tmp/ccwhlLdW.s 			page 43


 2395 0047 00       		.byte	0
 2396 0048 03       		.uleb128 0x3
 2397 0049 0E       		.uleb128 0xe
 2398 004a 3A       		.uleb128 0x3a
 2399 004b 0B       		.uleb128 0xb
 2400 004c 3B       		.uleb128 0x3b
 2401 004d 0B       		.uleb128 0xb
 2402 004e 49       		.uleb128 0x49
 2403 004f 13       		.uleb128 0x13
 2404 0050 38       		.uleb128 0x38
 2405 0051 0B       		.uleb128 0xb
 2406 0052 00       		.byte	0
 2407 0053 00       		.byte	0
 2408 0054 07       		.uleb128 0x7
 2409 0055 0D       		.uleb128 0xd
 2410 0056 00       		.byte	0
 2411 0057 03       		.uleb128 0x3
 2412 0058 08       		.uleb128 0x8
 2413 0059 3A       		.uleb128 0x3a
 2414 005a 0B       		.uleb128 0xb
 2415 005b 3B       		.uleb128 0x3b
 2416 005c 0B       		.uleb128 0xb
 2417 005d 49       		.uleb128 0x49
 2418 005e 13       		.uleb128 0x13
 2419 005f 38       		.uleb128 0x38
 2420 0060 0B       		.uleb128 0xb
 2421 0061 00       		.byte	0
 2422 0062 00       		.byte	0
 2423 0063 08       		.uleb128 0x8
 2424 0064 13       		.uleb128 0x13
 2425 0065 01       		.byte	0x1
 2426 0066 0B       		.uleb128 0xb
 2427 0067 0B       		.uleb128 0xb
 2428 0068 3A       		.uleb128 0x3a
 2429 0069 0B       		.uleb128 0xb
 2430 006a 3B       		.uleb128 0x3b
 2431 006b 0B       		.uleb128 0xb
 2432 006c 01       		.uleb128 0x1
 2433 006d 13       		.uleb128 0x13
 2434 006e 00       		.byte	0
 2435 006f 00       		.byte	0
 2436 0070 09       		.uleb128 0x9
 2437 0071 0F       		.uleb128 0xf
 2438 0072 00       		.byte	0
 2439 0073 0B       		.uleb128 0xb
 2440 0074 0B       		.uleb128 0xb
 2441 0075 49       		.uleb128 0x49
 2442 0076 13       		.uleb128 0x13
 2443 0077 00       		.byte	0
 2444 0078 00       		.byte	0
 2445 0079 0A       		.uleb128 0xa
 2446 007a 0F       		.uleb128 0xf
 2447 007b 00       		.byte	0
 2448 007c 0B       		.uleb128 0xb
 2449 007d 0B       		.uleb128 0xb
 2450 007e 00       		.byte	0
 2451 007f 00       		.byte	0
ARM GAS  /tmp/ccwhlLdW.s 			page 44


 2452 0080 0B       		.uleb128 0xb
 2453 0081 13       		.uleb128 0x13
 2454 0082 01       		.byte	0x1
 2455 0083 03       		.uleb128 0x3
 2456 0084 0E       		.uleb128 0xe
 2457 0085 0B       		.uleb128 0xb
 2458 0086 0B       		.uleb128 0xb
 2459 0087 3A       		.uleb128 0x3a
 2460 0088 0B       		.uleb128 0xb
 2461 0089 3B       		.uleb128 0x3b
 2462 008a 05       		.uleb128 0x5
 2463 008b 01       		.uleb128 0x1
 2464 008c 13       		.uleb128 0x13
 2465 008d 00       		.byte	0
 2466 008e 00       		.byte	0
 2467 008f 0C       		.uleb128 0xc
 2468 0090 0D       		.uleb128 0xd
 2469 0091 00       		.byte	0
 2470 0092 03       		.uleb128 0x3
 2471 0093 08       		.uleb128 0x8
 2472 0094 3A       		.uleb128 0x3a
 2473 0095 0B       		.uleb128 0xb
 2474 0096 3B       		.uleb128 0x3b
 2475 0097 05       		.uleb128 0x5
 2476 0098 49       		.uleb128 0x49
 2477 0099 13       		.uleb128 0x13
 2478 009a 38       		.uleb128 0x38
 2479 009b 0B       		.uleb128 0xb
 2480 009c 00       		.byte	0
 2481 009d 00       		.byte	0
 2482 009e 0D       		.uleb128 0xd
 2483 009f 15       		.uleb128 0x15
 2484 00a0 01       		.byte	0x1
 2485 00a1 27       		.uleb128 0x27
 2486 00a2 19       		.uleb128 0x19
 2487 00a3 01       		.uleb128 0x1
 2488 00a4 13       		.uleb128 0x13
 2489 00a5 00       		.byte	0
 2490 00a6 00       		.byte	0
 2491 00a7 0E       		.uleb128 0xe
 2492 00a8 05       		.uleb128 0x5
 2493 00a9 00       		.byte	0
 2494 00aa 49       		.uleb128 0x49
 2495 00ab 13       		.uleb128 0x13
 2496 00ac 00       		.byte	0
 2497 00ad 00       		.byte	0
 2498 00ae 0F       		.uleb128 0xf
 2499 00af 35       		.uleb128 0x35
 2500 00b0 00       		.byte	0
 2501 00b1 49       		.uleb128 0x49
 2502 00b2 13       		.uleb128 0x13
 2503 00b3 00       		.byte	0
 2504 00b4 00       		.byte	0
 2505 00b5 10       		.uleb128 0x10
 2506 00b6 17       		.uleb128 0x17
 2507 00b7 01       		.byte	0x1
 2508 00b8 0B       		.uleb128 0xb
ARM GAS  /tmp/ccwhlLdW.s 			page 45


 2509 00b9 0B       		.uleb128 0xb
 2510 00ba 3A       		.uleb128 0x3a
 2511 00bb 0B       		.uleb128 0xb
 2512 00bc 3B       		.uleb128 0x3b
 2513 00bd 0B       		.uleb128 0xb
 2514 00be 01       		.uleb128 0x1
 2515 00bf 13       		.uleb128 0x13
 2516 00c0 00       		.byte	0
 2517 00c1 00       		.byte	0
 2518 00c2 11       		.uleb128 0x11
 2519 00c3 0D       		.uleb128 0xd
 2520 00c4 00       		.byte	0
 2521 00c5 03       		.uleb128 0x3
 2522 00c6 0E       		.uleb128 0xe
 2523 00c7 3A       		.uleb128 0x3a
 2524 00c8 0B       		.uleb128 0xb
 2525 00c9 3B       		.uleb128 0x3b
 2526 00ca 0B       		.uleb128 0xb
 2527 00cb 49       		.uleb128 0x49
 2528 00cc 13       		.uleb128 0x13
 2529 00cd 00       		.byte	0
 2530 00ce 00       		.byte	0
 2531 00cf 12       		.uleb128 0x12
 2532 00d0 26       		.uleb128 0x26
 2533 00d1 00       		.byte	0
 2534 00d2 49       		.uleb128 0x49
 2535 00d3 13       		.uleb128 0x13
 2536 00d4 00       		.byte	0
 2537 00d5 00       		.byte	0
 2538 00d6 13       		.uleb128 0x13
 2539 00d7 15       		.uleb128 0x15
 2540 00d8 01       		.byte	0x1
 2541 00d9 27       		.uleb128 0x27
 2542 00da 19       		.uleb128 0x19
 2543 00db 49       		.uleb128 0x49
 2544 00dc 13       		.uleb128 0x13
 2545 00dd 01       		.uleb128 0x1
 2546 00de 13       		.uleb128 0x13
 2547 00df 00       		.byte	0
 2548 00e0 00       		.byte	0
 2549 00e1 14       		.uleb128 0x14
 2550 00e2 2E       		.uleb128 0x2e
 2551 00e3 01       		.byte	0x1
 2552 00e4 3F       		.uleb128 0x3f
 2553 00e5 19       		.uleb128 0x19
 2554 00e6 03       		.uleb128 0x3
 2555 00e7 0E       		.uleb128 0xe
 2556 00e8 3A       		.uleb128 0x3a
 2557 00e9 0B       		.uleb128 0xb
 2558 00ea 3B       		.uleb128 0x3b
 2559 00eb 0B       		.uleb128 0xb
 2560 00ec 27       		.uleb128 0x27
 2561 00ed 19       		.uleb128 0x19
 2562 00ee 49       		.uleb128 0x49
 2563 00ef 13       		.uleb128 0x13
 2564 00f0 20       		.uleb128 0x20
 2565 00f1 0B       		.uleb128 0xb
ARM GAS  /tmp/ccwhlLdW.s 			page 46


 2566 00f2 01       		.uleb128 0x1
 2567 00f3 13       		.uleb128 0x13
 2568 00f4 00       		.byte	0
 2569 00f5 00       		.byte	0
 2570 00f6 15       		.uleb128 0x15
 2571 00f7 05       		.uleb128 0x5
 2572 00f8 00       		.byte	0
 2573 00f9 03       		.uleb128 0x3
 2574 00fa 08       		.uleb128 0x8
 2575 00fb 3A       		.uleb128 0x3a
 2576 00fc 0B       		.uleb128 0xb
 2577 00fd 3B       		.uleb128 0x3b
 2578 00fe 0B       		.uleb128 0xb
 2579 00ff 49       		.uleb128 0x49
 2580 0100 13       		.uleb128 0x13
 2581 0101 00       		.byte	0
 2582 0102 00       		.byte	0
 2583 0103 16       		.uleb128 0x16
 2584 0104 05       		.uleb128 0x5
 2585 0105 00       		.byte	0
 2586 0106 03       		.uleb128 0x3
 2587 0107 0E       		.uleb128 0xe
 2588 0108 3A       		.uleb128 0x3a
 2589 0109 0B       		.uleb128 0xb
 2590 010a 3B       		.uleb128 0x3b
 2591 010b 0B       		.uleb128 0xb
 2592 010c 49       		.uleb128 0x49
 2593 010d 13       		.uleb128 0x13
 2594 010e 00       		.byte	0
 2595 010f 00       		.byte	0
 2596 0110 17       		.uleb128 0x17
 2597 0111 34       		.uleb128 0x34
 2598 0112 00       		.byte	0
 2599 0113 03       		.uleb128 0x3
 2600 0114 08       		.uleb128 0x8
 2601 0115 3A       		.uleb128 0x3a
 2602 0116 0B       		.uleb128 0xb
 2603 0117 3B       		.uleb128 0x3b
 2604 0118 0B       		.uleb128 0xb
 2605 0119 49       		.uleb128 0x49
 2606 011a 13       		.uleb128 0x13
 2607 011b 00       		.byte	0
 2608 011c 00       		.byte	0
 2609 011d 18       		.uleb128 0x18
 2610 011e 2E       		.uleb128 0x2e
 2611 011f 01       		.byte	0x1
 2612 0120 03       		.uleb128 0x3
 2613 0121 0E       		.uleb128 0xe
 2614 0122 3A       		.uleb128 0x3a
 2615 0123 0B       		.uleb128 0xb
 2616 0124 3B       		.uleb128 0x3b
 2617 0125 0B       		.uleb128 0xb
 2618 0126 27       		.uleb128 0x27
 2619 0127 19       		.uleb128 0x19
 2620 0128 49       		.uleb128 0x49
 2621 0129 13       		.uleb128 0x13
 2622 012a 20       		.uleb128 0x20
ARM GAS  /tmp/ccwhlLdW.s 			page 47


 2623 012b 0B       		.uleb128 0xb
 2624 012c 01       		.uleb128 0x1
 2625 012d 13       		.uleb128 0x13
 2626 012e 00       		.byte	0
 2627 012f 00       		.byte	0
 2628 0130 19       		.uleb128 0x19
 2629 0131 2E       		.uleb128 0x2e
 2630 0132 01       		.byte	0x1
 2631 0133 03       		.uleb128 0x3
 2632 0134 0E       		.uleb128 0xe
 2633 0135 3A       		.uleb128 0x3a
 2634 0136 0B       		.uleb128 0xb
 2635 0137 3B       		.uleb128 0x3b
 2636 0138 0B       		.uleb128 0xb
 2637 0139 27       		.uleb128 0x27
 2638 013a 19       		.uleb128 0x19
 2639 013b 20       		.uleb128 0x20
 2640 013c 0B       		.uleb128 0xb
 2641 013d 01       		.uleb128 0x1
 2642 013e 13       		.uleb128 0x13
 2643 013f 00       		.byte	0
 2644 0140 00       		.byte	0
 2645 0141 1A       		.uleb128 0x1a
 2646 0142 2E       		.uleb128 0x2e
 2647 0143 01       		.byte	0x1
 2648 0144 31       		.uleb128 0x31
 2649 0145 13       		.uleb128 0x13
 2650 0146 11       		.uleb128 0x11
 2651 0147 01       		.uleb128 0x1
 2652 0148 12       		.uleb128 0x12
 2653 0149 06       		.uleb128 0x6
 2654 014a 40       		.uleb128 0x40
 2655 014b 18       		.uleb128 0x18
 2656 014c 9742     		.uleb128 0x2117
 2657 014e 19       		.uleb128 0x19
 2658 014f 01       		.uleb128 0x1
 2659 0150 13       		.uleb128 0x13
 2660 0151 00       		.byte	0
 2661 0152 00       		.byte	0
 2662 0153 1B       		.uleb128 0x1b
 2663 0154 05       		.uleb128 0x5
 2664 0155 00       		.byte	0
 2665 0156 31       		.uleb128 0x31
 2666 0157 13       		.uleb128 0x13
 2667 0158 02       		.uleb128 0x2
 2668 0159 18       		.uleb128 0x18
 2669 015a 00       		.byte	0
 2670 015b 00       		.byte	0
 2671 015c 1C       		.uleb128 0x1c
 2672 015d 05       		.uleb128 0x5
 2673 015e 00       		.byte	0
 2674 015f 31       		.uleb128 0x31
 2675 0160 13       		.uleb128 0x13
 2676 0161 02       		.uleb128 0x2
 2677 0162 17       		.uleb128 0x17
 2678 0163 00       		.byte	0
 2679 0164 00       		.byte	0
ARM GAS  /tmp/ccwhlLdW.s 			page 48


 2680 0165 1D       		.uleb128 0x1d
 2681 0166 34       		.uleb128 0x34
 2682 0167 00       		.byte	0
 2683 0168 31       		.uleb128 0x31
 2684 0169 13       		.uleb128 0x13
 2685 016a 02       		.uleb128 0x2
 2686 016b 18       		.uleb128 0x18
 2687 016c 00       		.byte	0
 2688 016d 00       		.byte	0
 2689 016e 1E       		.uleb128 0x1e
 2690 016f 1D       		.uleb128 0x1d
 2691 0170 01       		.byte	0x1
 2692 0171 31       		.uleb128 0x31
 2693 0172 13       		.uleb128 0x13
 2694 0173 52       		.uleb128 0x52
 2695 0174 01       		.uleb128 0x1
 2696 0175 55       		.uleb128 0x55
 2697 0176 17       		.uleb128 0x17
 2698 0177 58       		.uleb128 0x58
 2699 0178 0B       		.uleb128 0xb
 2700 0179 59       		.uleb128 0x59
 2701 017a 0B       		.uleb128 0xb
 2702 017b 00       		.byte	0
 2703 017c 00       		.byte	0
 2704 017d 1F       		.uleb128 0x1f
 2705 017e 2E       		.uleb128 0x2e
 2706 017f 01       		.byte	0x1
 2707 0180 3F       		.uleb128 0x3f
 2708 0181 19       		.uleb128 0x19
 2709 0182 03       		.uleb128 0x3
 2710 0183 0E       		.uleb128 0xe
 2711 0184 3A       		.uleb128 0x3a
 2712 0185 0B       		.uleb128 0xb
 2713 0186 3B       		.uleb128 0x3b
 2714 0187 0B       		.uleb128 0xb
 2715 0188 27       		.uleb128 0x27
 2716 0189 19       		.uleb128 0x19
 2717 018a 49       		.uleb128 0x49
 2718 018b 13       		.uleb128 0x13
 2719 018c 11       		.uleb128 0x11
 2720 018d 01       		.uleb128 0x1
 2721 018e 12       		.uleb128 0x12
 2722 018f 06       		.uleb128 0x6
 2723 0190 40       		.uleb128 0x40
 2724 0191 18       		.uleb128 0x18
 2725 0192 9742     		.uleb128 0x2117
 2726 0194 19       		.uleb128 0x19
 2727 0195 01       		.uleb128 0x1
 2728 0196 13       		.uleb128 0x13
 2729 0197 00       		.byte	0
 2730 0198 00       		.byte	0
 2731 0199 20       		.uleb128 0x20
 2732 019a 05       		.uleb128 0x5
 2733 019b 00       		.byte	0
 2734 019c 03       		.uleb128 0x3
 2735 019d 08       		.uleb128 0x8
 2736 019e 3A       		.uleb128 0x3a
ARM GAS  /tmp/ccwhlLdW.s 			page 49


 2737 019f 0B       		.uleb128 0xb
 2738 01a0 3B       		.uleb128 0x3b
 2739 01a1 0B       		.uleb128 0xb
 2740 01a2 49       		.uleb128 0x49
 2741 01a3 13       		.uleb128 0x13
 2742 01a4 02       		.uleb128 0x2
 2743 01a5 17       		.uleb128 0x17
 2744 01a6 00       		.byte	0
 2745 01a7 00       		.byte	0
 2746 01a8 21       		.uleb128 0x21
 2747 01a9 05       		.uleb128 0x5
 2748 01aa 00       		.byte	0
 2749 01ab 03       		.uleb128 0x3
 2750 01ac 0E       		.uleb128 0xe
 2751 01ad 3A       		.uleb128 0x3a
 2752 01ae 0B       		.uleb128 0xb
 2753 01af 3B       		.uleb128 0x3b
 2754 01b0 0B       		.uleb128 0xb
 2755 01b1 49       		.uleb128 0x49
 2756 01b2 13       		.uleb128 0x13
 2757 01b3 02       		.uleb128 0x2
 2758 01b4 17       		.uleb128 0x17
 2759 01b5 00       		.byte	0
 2760 01b6 00       		.byte	0
 2761 01b7 22       		.uleb128 0x22
 2762 01b8 0B       		.uleb128 0xb
 2763 01b9 01       		.byte	0x1
 2764 01ba 11       		.uleb128 0x11
 2765 01bb 01       		.uleb128 0x1
 2766 01bc 12       		.uleb128 0x12
 2767 01bd 06       		.uleb128 0x6
 2768 01be 01       		.uleb128 0x1
 2769 01bf 13       		.uleb128 0x13
 2770 01c0 00       		.byte	0
 2771 01c1 00       		.byte	0
 2772 01c2 23       		.uleb128 0x23
 2773 01c3 34       		.uleb128 0x34
 2774 01c4 00       		.byte	0
 2775 01c5 03       		.uleb128 0x3
 2776 01c6 08       		.uleb128 0x8
 2777 01c7 3A       		.uleb128 0x3a
 2778 01c8 0B       		.uleb128 0xb
 2779 01c9 3B       		.uleb128 0x3b
 2780 01ca 0B       		.uleb128 0xb
 2781 01cb 49       		.uleb128 0x49
 2782 01cc 13       		.uleb128 0x13
 2783 01cd 02       		.uleb128 0x2
 2784 01ce 18       		.uleb128 0x18
 2785 01cf 00       		.byte	0
 2786 01d0 00       		.byte	0
 2787 01d1 24       		.uleb128 0x24
 2788 01d2 1D       		.uleb128 0x1d
 2789 01d3 01       		.byte	0x1
 2790 01d4 31       		.uleb128 0x31
 2791 01d5 13       		.uleb128 0x13
 2792 01d6 52       		.uleb128 0x52
 2793 01d7 01       		.uleb128 0x1
ARM GAS  /tmp/ccwhlLdW.s 			page 50


 2794 01d8 55       		.uleb128 0x55
 2795 01d9 17       		.uleb128 0x17
 2796 01da 58       		.uleb128 0x58
 2797 01db 0B       		.uleb128 0xb
 2798 01dc 59       		.uleb128 0x59
 2799 01dd 0B       		.uleb128 0xb
 2800 01de 01       		.uleb128 0x1
 2801 01df 13       		.uleb128 0x13
 2802 01e0 00       		.byte	0
 2803 01e1 00       		.byte	0
 2804 01e2 25       		.uleb128 0x25
 2805 01e3 0B       		.uleb128 0xb
 2806 01e4 01       		.byte	0x1
 2807 01e5 55       		.uleb128 0x55
 2808 01e6 17       		.uleb128 0x17
 2809 01e7 00       		.byte	0
 2810 01e8 00       		.byte	0
 2811 01e9 26       		.uleb128 0x26
 2812 01ea 34       		.uleb128 0x34
 2813 01eb 00       		.byte	0
 2814 01ec 31       		.uleb128 0x31
 2815 01ed 13       		.uleb128 0x13
 2816 01ee 02       		.uleb128 0x2
 2817 01ef 17       		.uleb128 0x17
 2818 01f0 00       		.byte	0
 2819 01f1 00       		.byte	0
 2820 01f2 27       		.uleb128 0x27
 2821 01f3 898201   		.uleb128 0x4109
 2822 01f6 01       		.byte	0x1
 2823 01f7 11       		.uleb128 0x11
 2824 01f8 01       		.uleb128 0x1
 2825 01f9 31       		.uleb128 0x31
 2826 01fa 13       		.uleb128 0x13
 2827 01fb 00       		.byte	0
 2828 01fc 00       		.byte	0
 2829 01fd 28       		.uleb128 0x28
 2830 01fe 8A8201   		.uleb128 0x410a
 2831 0201 00       		.byte	0
 2832 0202 02       		.uleb128 0x2
 2833 0203 18       		.uleb128 0x18
 2834 0204 9142     		.uleb128 0x2111
 2835 0206 18       		.uleb128 0x18
 2836 0207 00       		.byte	0
 2837 0208 00       		.byte	0
 2838 0209 29       		.uleb128 0x29
 2839 020a 34       		.uleb128 0x34
 2840 020b 00       		.byte	0
 2841 020c 03       		.uleb128 0x3
 2842 020d 0E       		.uleb128 0xe
 2843 020e 3A       		.uleb128 0x3a
 2844 020f 0B       		.uleb128 0xb
 2845 0210 3B       		.uleb128 0x3b
 2846 0211 0B       		.uleb128 0xb
 2847 0212 49       		.uleb128 0x49
 2848 0213 13       		.uleb128 0x13
 2849 0214 02       		.uleb128 0x2
 2850 0215 17       		.uleb128 0x17
ARM GAS  /tmp/ccwhlLdW.s 			page 51


 2851 0216 00       		.byte	0
 2852 0217 00       		.byte	0
 2853 0218 2A       		.uleb128 0x2a
 2854 0219 898201   		.uleb128 0x4109
 2855 021c 00       		.byte	0
 2856 021d 11       		.uleb128 0x11
 2857 021e 01       		.uleb128 0x1
 2858 021f 31       		.uleb128 0x31
 2859 0220 13       		.uleb128 0x13
 2860 0221 00       		.byte	0
 2861 0222 00       		.byte	0
 2862 0223 2B       		.uleb128 0x2b
 2863 0224 0B       		.uleb128 0xb
 2864 0225 01       		.byte	0x1
 2865 0226 55       		.uleb128 0x55
 2866 0227 17       		.uleb128 0x17
 2867 0228 01       		.uleb128 0x1
 2868 0229 13       		.uleb128 0x13
 2869 022a 00       		.byte	0
 2870 022b 00       		.byte	0
 2871 022c 2C       		.uleb128 0x2c
 2872 022d 34       		.uleb128 0x34
 2873 022e 00       		.byte	0
 2874 022f 03       		.uleb128 0x3
 2875 0230 08       		.uleb128 0x8
 2876 0231 3A       		.uleb128 0x3a
 2877 0232 0B       		.uleb128 0xb
 2878 0233 3B       		.uleb128 0x3b
 2879 0234 05       		.uleb128 0x5
 2880 0235 49       		.uleb128 0x49
 2881 0236 13       		.uleb128 0x13
 2882 0237 02       		.uleb128 0x2
 2883 0238 18       		.uleb128 0x18
 2884 0239 00       		.byte	0
 2885 023a 00       		.byte	0
 2886 023b 2D       		.uleb128 0x2d
 2887 023c 2E       		.uleb128 0x2e
 2888 023d 01       		.byte	0x1
 2889 023e 3F       		.uleb128 0x3f
 2890 023f 19       		.uleb128 0x19
 2891 0240 03       		.uleb128 0x3
 2892 0241 0E       		.uleb128 0xe
 2893 0242 3A       		.uleb128 0x3a
 2894 0243 0B       		.uleb128 0xb
 2895 0244 3B       		.uleb128 0x3b
 2896 0245 05       		.uleb128 0x5
 2897 0246 27       		.uleb128 0x27
 2898 0247 19       		.uleb128 0x19
 2899 0248 11       		.uleb128 0x11
 2900 0249 01       		.uleb128 0x1
 2901 024a 12       		.uleb128 0x12
 2902 024b 06       		.uleb128 0x6
 2903 024c 40       		.uleb128 0x40
 2904 024d 18       		.uleb128 0x18
 2905 024e 9742     		.uleb128 0x2117
 2906 0250 19       		.uleb128 0x19
 2907 0251 01       		.uleb128 0x1
ARM GAS  /tmp/ccwhlLdW.s 			page 52


 2908 0252 13       		.uleb128 0x13
 2909 0253 00       		.byte	0
 2910 0254 00       		.byte	0
 2911 0255 2E       		.uleb128 0x2e
 2912 0256 05       		.uleb128 0x5
 2913 0257 00       		.byte	0
 2914 0258 03       		.uleb128 0x3
 2915 0259 08       		.uleb128 0x8
 2916 025a 3A       		.uleb128 0x3a
 2917 025b 0B       		.uleb128 0xb
 2918 025c 3B       		.uleb128 0x3b
 2919 025d 05       		.uleb128 0x5
 2920 025e 49       		.uleb128 0x49
 2921 025f 13       		.uleb128 0x13
 2922 0260 02       		.uleb128 0x2
 2923 0261 18       		.uleb128 0x18
 2924 0262 00       		.byte	0
 2925 0263 00       		.byte	0
 2926 0264 2F       		.uleb128 0x2f
 2927 0265 05       		.uleb128 0x5
 2928 0266 00       		.byte	0
 2929 0267 03       		.uleb128 0x3
 2930 0268 0E       		.uleb128 0xe
 2931 0269 3A       		.uleb128 0x3a
 2932 026a 0B       		.uleb128 0xb
 2933 026b 3B       		.uleb128 0x3b
 2934 026c 05       		.uleb128 0x5
 2935 026d 49       		.uleb128 0x49
 2936 026e 13       		.uleb128 0x13
 2937 026f 02       		.uleb128 0x2
 2938 0270 17       		.uleb128 0x17
 2939 0271 00       		.byte	0
 2940 0272 00       		.byte	0
 2941 0273 30       		.uleb128 0x30
 2942 0274 05       		.uleb128 0x5
 2943 0275 00       		.byte	0
 2944 0276 03       		.uleb128 0x3
 2945 0277 08       		.uleb128 0x8
 2946 0278 3A       		.uleb128 0x3a
 2947 0279 0B       		.uleb128 0xb
 2948 027a 3B       		.uleb128 0x3b
 2949 027b 05       		.uleb128 0x5
 2950 027c 49       		.uleb128 0x49
 2951 027d 13       		.uleb128 0x13
 2952 027e 02       		.uleb128 0x2
 2953 027f 17       		.uleb128 0x17
 2954 0280 00       		.byte	0
 2955 0281 00       		.byte	0
 2956 0282 31       		.uleb128 0x31
 2957 0283 34       		.uleb128 0x34
 2958 0284 00       		.byte	0
 2959 0285 03       		.uleb128 0x3
 2960 0286 08       		.uleb128 0x8
 2961 0287 3A       		.uleb128 0x3a
 2962 0288 0B       		.uleb128 0xb
 2963 0289 3B       		.uleb128 0x3b
 2964 028a 05       		.uleb128 0x5
ARM GAS  /tmp/ccwhlLdW.s 			page 53


 2965 028b 49       		.uleb128 0x49
 2966 028c 13       		.uleb128 0x13
 2967 028d 02       		.uleb128 0x2
 2968 028e 17       		.uleb128 0x17
 2969 028f 00       		.byte	0
 2970 0290 00       		.byte	0
 2971 0291 32       		.uleb128 0x32
 2972 0292 1D       		.uleb128 0x1d
 2973 0293 01       		.byte	0x1
 2974 0294 31       		.uleb128 0x31
 2975 0295 13       		.uleb128 0x13
 2976 0296 52       		.uleb128 0x52
 2977 0297 01       		.uleb128 0x1
 2978 0298 55       		.uleb128 0x55
 2979 0299 17       		.uleb128 0x17
 2980 029a 58       		.uleb128 0x58
 2981 029b 0B       		.uleb128 0xb
 2982 029c 59       		.uleb128 0x59
 2983 029d 05       		.uleb128 0x5
 2984 029e 01       		.uleb128 0x1
 2985 029f 13       		.uleb128 0x13
 2986 02a0 00       		.byte	0
 2987 02a1 00       		.byte	0
 2988 02a2 33       		.uleb128 0x33
 2989 02a3 898201   		.uleb128 0x4109
 2990 02a6 01       		.byte	0x1
 2991 02a7 11       		.uleb128 0x11
 2992 02a8 01       		.uleb128 0x1
 2993 02a9 9542     		.uleb128 0x2115
 2994 02ab 19       		.uleb128 0x19
 2995 02ac 31       		.uleb128 0x31
 2996 02ad 13       		.uleb128 0x13
 2997 02ae 00       		.byte	0
 2998 02af 00       		.byte	0
 2999 02b0 34       		.uleb128 0x34
 3000 02b1 2E       		.uleb128 0x2e
 3001 02b2 01       		.byte	0x1
 3002 02b3 3F       		.uleb128 0x3f
 3003 02b4 19       		.uleb128 0x19
 3004 02b5 03       		.uleb128 0x3
 3005 02b6 0E       		.uleb128 0xe
 3006 02b7 3A       		.uleb128 0x3a
 3007 02b8 0B       		.uleb128 0xb
 3008 02b9 3B       		.uleb128 0x3b
 3009 02ba 05       		.uleb128 0x5
 3010 02bb 27       		.uleb128 0x27
 3011 02bc 19       		.uleb128 0x19
 3012 02bd 49       		.uleb128 0x49
 3013 02be 13       		.uleb128 0x13
 3014 02bf 11       		.uleb128 0x11
 3015 02c0 01       		.uleb128 0x1
 3016 02c1 12       		.uleb128 0x12
 3017 02c2 06       		.uleb128 0x6
 3018 02c3 40       		.uleb128 0x40
 3019 02c4 18       		.uleb128 0x18
 3020 02c5 9742     		.uleb128 0x2117
 3021 02c7 19       		.uleb128 0x19
ARM GAS  /tmp/ccwhlLdW.s 			page 54


 3022 02c8 01       		.uleb128 0x1
 3023 02c9 13       		.uleb128 0x13
 3024 02ca 00       		.byte	0
 3025 02cb 00       		.byte	0
 3026 02cc 35       		.uleb128 0x35
 3027 02cd 898201   		.uleb128 0x4109
 3028 02d0 01       		.byte	0x1
 3029 02d1 11       		.uleb128 0x11
 3030 02d2 01       		.uleb128 0x1
 3031 02d3 31       		.uleb128 0x31
 3032 02d4 13       		.uleb128 0x13
 3033 02d5 01       		.uleb128 0x1
 3034 02d6 13       		.uleb128 0x13
 3035 02d7 00       		.byte	0
 3036 02d8 00       		.byte	0
 3037 02d9 36       		.uleb128 0x36
 3038 02da 34       		.uleb128 0x34
 3039 02db 00       		.byte	0
 3040 02dc 03       		.uleb128 0x3
 3041 02dd 0E       		.uleb128 0xe
 3042 02de 3A       		.uleb128 0x3a
 3043 02df 0B       		.uleb128 0xb
 3044 02e0 3B       		.uleb128 0x3b
 3045 02e1 0B       		.uleb128 0xb
 3046 02e2 49       		.uleb128 0x49
 3047 02e3 13       		.uleb128 0x13
 3048 02e4 3F       		.uleb128 0x3f
 3049 02e5 19       		.uleb128 0x19
 3050 02e6 3C       		.uleb128 0x3c
 3051 02e7 19       		.uleb128 0x19
 3052 02e8 00       		.byte	0
 3053 02e9 00       		.byte	0
 3054 02ea 37       		.uleb128 0x37
 3055 02eb 2E       		.uleb128 0x2e
 3056 02ec 01       		.byte	0x1
 3057 02ed 3F       		.uleb128 0x3f
 3058 02ee 19       		.uleb128 0x19
 3059 02ef 03       		.uleb128 0x3
 3060 02f0 0E       		.uleb128 0xe
 3061 02f1 3A       		.uleb128 0x3a
 3062 02f2 0B       		.uleb128 0xb
 3063 02f3 3B       		.uleb128 0x3b
 3064 02f4 0B       		.uleb128 0xb
 3065 02f5 27       		.uleb128 0x27
 3066 02f6 19       		.uleb128 0x19
 3067 02f7 3C       		.uleb128 0x3c
 3068 02f8 19       		.uleb128 0x19
 3069 02f9 01       		.uleb128 0x1
 3070 02fa 13       		.uleb128 0x13
 3071 02fb 00       		.byte	0
 3072 02fc 00       		.byte	0
 3073 02fd 38       		.uleb128 0x38
 3074 02fe 2E       		.uleb128 0x2e
 3075 02ff 00       		.byte	0
 3076 0300 3F       		.uleb128 0x3f
 3077 0301 19       		.uleb128 0x19
 3078 0302 03       		.uleb128 0x3
ARM GAS  /tmp/ccwhlLdW.s 			page 55


 3079 0303 0E       		.uleb128 0xe
 3080 0304 3A       		.uleb128 0x3a
 3081 0305 0B       		.uleb128 0xb
 3082 0306 3B       		.uleb128 0x3b
 3083 0307 0B       		.uleb128 0xb
 3084 0308 27       		.uleb128 0x27
 3085 0309 19       		.uleb128 0x19
 3086 030a 3C       		.uleb128 0x3c
 3087 030b 19       		.uleb128 0x19
 3088 030c 00       		.byte	0
 3089 030d 00       		.byte	0
 3090 030e 39       		.uleb128 0x39
 3091 030f 2E       		.uleb128 0x2e
 3092 0310 01       		.byte	0x1
 3093 0311 3F       		.uleb128 0x3f
 3094 0312 19       		.uleb128 0x19
 3095 0313 03       		.uleb128 0x3
 3096 0314 0E       		.uleb128 0xe
 3097 0315 3A       		.uleb128 0x3a
 3098 0316 0B       		.uleb128 0xb
 3099 0317 3B       		.uleb128 0x3b
 3100 0318 0B       		.uleb128 0xb
 3101 0319 27       		.uleb128 0x27
 3102 031a 19       		.uleb128 0x19
 3103 031b 49       		.uleb128 0x49
 3104 031c 13       		.uleb128 0x13
 3105 031d 3C       		.uleb128 0x3c
 3106 031e 19       		.uleb128 0x19
 3107 031f 01       		.uleb128 0x1
 3108 0320 13       		.uleb128 0x13
 3109 0321 00       		.byte	0
 3110 0322 00       		.byte	0
 3111 0323 3A       		.uleb128 0x3a
 3112 0324 2E       		.uleb128 0x2e
 3113 0325 01       		.byte	0x1
 3114 0326 3F       		.uleb128 0x3f
 3115 0327 19       		.uleb128 0x19
 3116 0328 03       		.uleb128 0x3
 3117 0329 0E       		.uleb128 0xe
 3118 032a 3A       		.uleb128 0x3a
 3119 032b 0B       		.uleb128 0xb
 3120 032c 3B       		.uleb128 0x3b
 3121 032d 0B       		.uleb128 0xb
 3122 032e 27       		.uleb128 0x27
 3123 032f 19       		.uleb128 0x19
 3124 0330 3C       		.uleb128 0x3c
 3125 0331 19       		.uleb128 0x19
 3126 0332 00       		.byte	0
 3127 0333 00       		.byte	0
 3128 0334 00       		.byte	0
 3129              		.section	.debug_loc,"",%progbits
 3130              	.Ldebug_loc0:
 3131              	.LLST0:
 3132 0000 00000000 		.4byte	.LVL1
 3133 0004 08000000 		.4byte	.LVL2
 3134 0008 0100     		.2byte	0x1
 3135 000a 51       		.byte	0x51
ARM GAS  /tmp/ccwhlLdW.s 			page 56


 3136 000b 08000000 		.4byte	.LVL2
 3137 000f 16000000 		.4byte	.LVL3
 3138 0013 0300     		.2byte	0x3
 3139 0015 71       		.byte	0x71
 3140 0016 24       		.sleb128 36
 3141 0017 9F       		.byte	0x9f
 3142 0018 16000000 		.4byte	.LVL3
 3143 001c 74000000 		.4byte	.LFE8
 3144 0020 0400     		.2byte	0x4
 3145 0022 F3       		.byte	0xf3
 3146 0023 01       		.uleb128 0x1
 3147 0024 51       		.byte	0x51
 3148 0025 9F       		.byte	0x9f
 3149 0026 00000000 		.4byte	0
 3150 002a 00000000 		.4byte	0
 3151              	.LLST1:
 3152 002e 00000000 		.4byte	.LVL1
 3153 0032 20000000 		.4byte	.LVL4
 3154 0036 0100     		.2byte	0x1
 3155 0038 53       		.byte	0x53
 3156 0039 20000000 		.4byte	.LVL4
 3157 003d 28000000 		.4byte	.LVL6
 3158 0041 0200     		.2byte	0x2
 3159 0043 76       		.byte	0x76
 3160 0044 00       		.sleb128 0
 3161 0045 28000000 		.4byte	.LVL6
 3162 0049 74000000 		.4byte	.LFE8
 3163 004d 0400     		.2byte	0x4
 3164 004f F3       		.byte	0xf3
 3165 0050 01       		.uleb128 0x1
 3166 0051 53       		.byte	0x53
 3167 0052 9F       		.byte	0x9f
 3168 0053 00000000 		.4byte	0
 3169 0057 00000000 		.4byte	0
 3170              	.LLST2:
 3171 005b 00000000 		.4byte	.LVL1
 3172 005f 6A000000 		.4byte	.LVL7
 3173 0063 0200     		.2byte	0x2
 3174 0065 91       		.byte	0x91
 3175 0066 00       		.sleb128 0
 3176 0067 6A000000 		.4byte	.LVL7
 3177 006b 74000000 		.4byte	.LFE8
 3178 006f 0200     		.2byte	0x2
 3179 0071 7D       		.byte	0x7d
 3180 0072 00       		.sleb128 0
 3181 0073 00000000 		.4byte	0
 3182 0077 00000000 		.4byte	0
 3183              	.LLST3:
 3184 007b 00000000 		.4byte	.LVL8
 3185 007f 73000000 		.4byte	.LVL16-1
 3186 0083 0100     		.2byte	0x1
 3187 0085 50       		.byte	0x50
 3188 0086 73000000 		.4byte	.LVL16-1
 3189 008a 80000000 		.4byte	.LVL17
 3190 008e 0100     		.2byte	0x1
 3191 0090 54       		.byte	0x54
 3192 0091 80000000 		.4byte	.LVL17
ARM GAS  /tmp/ccwhlLdW.s 			page 57


 3193 0095 88000000 		.4byte	.LFE9
 3194 0099 0100     		.2byte	0x1
 3195 009b 50       		.byte	0x50
 3196 009c 00000000 		.4byte	0
 3197 00a0 00000000 		.4byte	0
 3198              	.LLST4:
 3199 00a4 00000000 		.4byte	.LVL8
 3200 00a8 1C000000 		.4byte	.LVL11
 3201 00ac 0100     		.2byte	0x1
 3202 00ae 51       		.byte	0x51
 3203 00af 1C000000 		.4byte	.LVL11
 3204 00b3 32000000 		.4byte	.LVL13
 3205 00b7 0300     		.2byte	0x3
 3206 00b9 73       		.byte	0x73
 3207 00ba 24       		.sleb128 36
 3208 00bb 9F       		.byte	0x9f
 3209 00bc 32000000 		.4byte	.LVL13
 3210 00c0 88000000 		.4byte	.LFE9
 3211 00c4 0400     		.2byte	0x4
 3212 00c6 F3       		.byte	0xf3
 3213 00c7 01       		.uleb128 0x1
 3214 00c8 51       		.byte	0x51
 3215 00c9 9F       		.byte	0x9f
 3216 00ca 00000000 		.4byte	0
 3217 00ce 00000000 		.4byte	0
 3218              	.LLST5:
 3219 00d2 00000000 		.4byte	.LVL8
 3220 00d6 73000000 		.4byte	.LVL16-1
 3221 00da 0100     		.2byte	0x1
 3222 00dc 52       		.byte	0x52
 3223 00dd 73000000 		.4byte	.LVL16-1
 3224 00e1 88000000 		.4byte	.LFE9
 3225 00e5 0400     		.2byte	0x4
 3226 00e7 F3       		.byte	0xf3
 3227 00e8 01       		.uleb128 0x1
 3228 00e9 52       		.byte	0x52
 3229 00ea 9F       		.byte	0x9f
 3230 00eb 00000000 		.4byte	0
 3231 00ef 00000000 		.4byte	0
 3232              	.LLST6:
 3233 00f3 00000000 		.4byte	.LVL8
 3234 00f7 0A000000 		.4byte	.LVL9
 3235 00fb 0100     		.2byte	0x1
 3236 00fd 53       		.byte	0x53
 3237 00fe 0A000000 		.4byte	.LVL9
 3238 0102 2E000000 		.4byte	.LVL12
 3239 0106 0100     		.2byte	0x1
 3240 0108 55       		.byte	0x55
 3241 0109 2E000000 		.4byte	.LVL12
 3242 010d 50000000 		.4byte	.LVL15
 3243 0111 0200     		.2byte	0x2
 3244 0113 77       		.byte	0x77
 3245 0114 00       		.sleb128 0
 3246 0115 50000000 		.4byte	.LVL15
 3247 0119 88000000 		.4byte	.LFE9
 3248 011d 0400     		.2byte	0x4
 3249 011f F3       		.byte	0xf3
ARM GAS  /tmp/ccwhlLdW.s 			page 58


 3250 0120 01       		.uleb128 0x1
 3251 0121 53       		.byte	0x53
 3252 0122 9F       		.byte	0x9f
 3253 0123 00000000 		.4byte	0
 3254 0127 00000000 		.4byte	0
 3255              	.LLST7:
 3256 012b 00000000 		.4byte	.LVL8
 3257 012f 80000000 		.4byte	.LVL17
 3258 0133 0200     		.2byte	0x2
 3259 0135 91       		.byte	0x91
 3260 0136 00       		.sleb128 0
 3261 0137 80000000 		.4byte	.LVL17
 3262 013b 88000000 		.4byte	.LFE9
 3263 013f 0200     		.2byte	0x2
 3264 0141 7D       		.byte	0x7d
 3265 0142 00       		.sleb128 0
 3266 0143 00000000 		.4byte	0
 3267 0147 00000000 		.4byte	0
 3268              	.LLST8:
 3269 014b 0E000000 		.4byte	.LVL10
 3270 014f 80000000 		.4byte	.LVL17
 3271 0153 0200     		.2byte	0x2
 3272 0155 91       		.byte	0x91
 3273 0156 00       		.sleb128 0
 3274 0157 80000000 		.4byte	.LVL17
 3275 015b 88000000 		.4byte	.LFE9
 3276 015f 0200     		.2byte	0x2
 3277 0161 7D       		.byte	0x7d
 3278 0162 00       		.sleb128 0
 3279 0163 00000000 		.4byte	0
 3280 0167 00000000 		.4byte	0
 3281              	.LLST9:
 3282 016b 0E000000 		.4byte	.LVL10
 3283 016f 2E000000 		.4byte	.LVL12
 3284 0173 0100     		.2byte	0x1
 3285 0175 55       		.byte	0x55
 3286 0176 2E000000 		.4byte	.LVL12
 3287 017a 50000000 		.4byte	.LVL15
 3288 017e 0200     		.2byte	0x2
 3289 0180 77       		.byte	0x77
 3290 0181 00       		.sleb128 0
 3291 0182 50000000 		.4byte	.LVL15
 3292 0186 88000000 		.4byte	.LFE9
 3293 018a 0400     		.2byte	0x4
 3294 018c F3       		.byte	0xf3
 3295 018d 01       		.uleb128 0x1
 3296 018e 53       		.byte	0x53
 3297 018f 9F       		.byte	0x9f
 3298 0190 00000000 		.4byte	0
 3299 0194 00000000 		.4byte	0
 3300              	.LLST10:
 3301 0198 0E000000 		.4byte	.LVL10
 3302 019c 73000000 		.4byte	.LVL16-1
 3303 01a0 0100     		.2byte	0x1
 3304 01a2 52       		.byte	0x52
 3305 01a3 73000000 		.4byte	.LVL16-1
 3306 01a7 88000000 		.4byte	.LFE9
ARM GAS  /tmp/ccwhlLdW.s 			page 59


 3307 01ab 0400     		.2byte	0x4
 3308 01ad F3       		.byte	0xf3
 3309 01ae 01       		.uleb128 0x1
 3310 01af 52       		.byte	0x52
 3311 01b0 9F       		.byte	0x9f
 3312 01b1 00000000 		.4byte	0
 3313 01b5 00000000 		.4byte	0
 3314              	.LLST11:
 3315 01b9 0E000000 		.4byte	.LVL10
 3316 01bd 1C000000 		.4byte	.LVL11
 3317 01c1 0100     		.2byte	0x1
 3318 01c3 51       		.byte	0x51
 3319 01c4 1C000000 		.4byte	.LVL11
 3320 01c8 32000000 		.4byte	.LVL13
 3321 01cc 0300     		.2byte	0x3
 3322 01ce 73       		.byte	0x73
 3323 01cf 24       		.sleb128 36
 3324 01d0 9F       		.byte	0x9f
 3325 01d1 32000000 		.4byte	.LVL13
 3326 01d5 88000000 		.4byte	.LFE9
 3327 01d9 0400     		.2byte	0x4
 3328 01db F3       		.byte	0xf3
 3329 01dc 01       		.uleb128 0x1
 3330 01dd 51       		.byte	0x51
 3331 01de 9F       		.byte	0x9f
 3332 01df 00000000 		.4byte	0
 3333 01e3 00000000 		.4byte	0
 3334              	.LLST12:
 3335 01e7 0E000000 		.4byte	.LVL10
 3336 01eb 73000000 		.4byte	.LVL16-1
 3337 01ef 0100     		.2byte	0x1
 3338 01f1 50       		.byte	0x50
 3339 01f2 73000000 		.4byte	.LVL16-1
 3340 01f6 80000000 		.4byte	.LVL17
 3341 01fa 0100     		.2byte	0x1
 3342 01fc 54       		.byte	0x54
 3343 01fd 80000000 		.4byte	.LVL17
 3344 0201 88000000 		.4byte	.LFE9
 3345 0205 0100     		.2byte	0x1
 3346 0207 50       		.byte	0x50
 3347 0208 00000000 		.4byte	0
 3348 020c 00000000 		.4byte	0
 3349              	.LLST14:
 3350 0210 40000000 		.4byte	.LVL14
 3351 0214 73000000 		.4byte	.LVL16-1
 3352 0218 0100     		.2byte	0x1
 3353 021a 52       		.byte	0x52
 3354 021b 73000000 		.4byte	.LVL16-1
 3355 021f 88000000 		.4byte	.LFE9
 3356 0223 0400     		.2byte	0x4
 3357 0225 F3       		.byte	0xf3
 3358 0226 01       		.uleb128 0x1
 3359 0227 52       		.byte	0x52
 3360 0228 9F       		.byte	0x9f
 3361 0229 00000000 		.4byte	0
 3362 022d 00000000 		.4byte	0
 3363              	.LLST15:
ARM GAS  /tmp/ccwhlLdW.s 			page 60


 3364 0231 40000000 		.4byte	.LVL14
 3365 0235 73000000 		.4byte	.LVL16-1
 3366 0239 0100     		.2byte	0x1
 3367 023b 50       		.byte	0x50
 3368 023c 73000000 		.4byte	.LVL16-1
 3369 0240 80000000 		.4byte	.LVL17
 3370 0244 0100     		.2byte	0x1
 3371 0246 54       		.byte	0x54
 3372 0247 80000000 		.4byte	.LVL17
 3373 024b 88000000 		.4byte	.LFE9
 3374 024f 0100     		.2byte	0x1
 3375 0251 50       		.byte	0x50
 3376 0252 00000000 		.4byte	0
 3377 0256 00000000 		.4byte	0
 3378              	.LLST16:
 3379 025a 00000000 		.4byte	.LVL18
 3380 025e 1F000000 		.4byte	.LVL20-1
 3381 0262 0100     		.2byte	0x1
 3382 0264 50       		.byte	0x50
 3383 0265 1F000000 		.4byte	.LVL20-1
 3384 0269 30000000 		.4byte	.LFE10
 3385 026d 0400     		.2byte	0x4
 3386 026f F3       		.byte	0xf3
 3387 0270 01       		.uleb128 0x1
 3388 0271 50       		.byte	0x50
 3389 0272 9F       		.byte	0x9f
 3390 0273 00000000 		.4byte	0
 3391 0277 00000000 		.4byte	0
 3392              	.LLST17:
 3393 027b 0E000000 		.4byte	.LVL19
 3394 027f 2A000000 		.4byte	.LVL21
 3395 0283 0100     		.2byte	0x1
 3396 0285 54       		.byte	0x54
 3397 0286 2A000000 		.4byte	.LVL21
 3398 028a 30000000 		.4byte	.LFE10
 3399 028e 0100     		.2byte	0x1
 3400 0290 50       		.byte	0x50
 3401 0291 00000000 		.4byte	0
 3402 0295 00000000 		.4byte	0
 3403              	.LLST18:
 3404 0299 00000000 		.4byte	.LVL22
 3405 029d 0F000000 		.4byte	.LVL23-1
 3406 02a1 0100     		.2byte	0x1
 3407 02a3 50       		.byte	0x50
 3408 02a4 0F000000 		.4byte	.LVL23-1
 3409 02a8 1A000000 		.4byte	.LFE11
 3410 02ac 0100     		.2byte	0x1
 3411 02ae 54       		.byte	0x54
 3412 02af 00000000 		.4byte	0
 3413 02b3 00000000 		.4byte	0
 3414              	.LLST19:
 3415 02b7 00000000 		.4byte	.LVL25
 3416 02bb 0C000000 		.4byte	.LVL26
 3417 02bf 0100     		.2byte	0x1
 3418 02c1 50       		.byte	0x50
 3419 02c2 0C000000 		.4byte	.LVL26
 3420 02c6 0F000000 		.4byte	.LVL27-1
ARM GAS  /tmp/ccwhlLdW.s 			page 61


 3421 02ca 0100     		.2byte	0x1
 3422 02cc 51       		.byte	0x51
 3423 02cd 0F000000 		.4byte	.LVL27-1
 3424 02d1 18000000 		.4byte	.LFE13
 3425 02d5 0400     		.2byte	0x4
 3426 02d7 F3       		.byte	0xf3
 3427 02d8 01       		.uleb128 0x1
 3428 02d9 50       		.byte	0x50
 3429 02da 9F       		.byte	0x9f
 3430 02db 00000000 		.4byte	0
 3431 02df 00000000 		.4byte	0
 3432              	.LLST20:
 3433 02e3 00000000 		.4byte	.LVL28
 3434 02e7 0C000000 		.4byte	.LVL29
 3435 02eb 0100     		.2byte	0x1
 3436 02ed 50       		.byte	0x50
 3437 02ee 0C000000 		.4byte	.LVL29
 3438 02f2 0E000000 		.4byte	.LVL30
 3439 02f6 0600     		.2byte	0x6
 3440 02f8 70       		.byte	0x70
 3441 02f9 00       		.sleb128 0
 3442 02fa 71       		.byte	0x71
 3443 02fb 00       		.sleb128 0
 3444 02fc 1C       		.byte	0x1c
 3445 02fd 9F       		.byte	0x9f
 3446 02fe 0E000000 		.4byte	.LVL30
 3447 0302 15000000 		.4byte	.LVL31-1
 3448 0306 0100     		.2byte	0x1
 3449 0308 51       		.byte	0x51
 3450 0309 00000000 		.4byte	0
 3451 030d 00000000 		.4byte	0
 3452              	.LLST21:
 3453 0311 00000000 		.4byte	.LVL33
 3454 0315 12000000 		.4byte	.LVL35
 3455 0319 0100     		.2byte	0x1
 3456 031b 50       		.byte	0x50
 3457 031c 12000000 		.4byte	.LVL35
 3458 0320 40000000 		.4byte	.LFE17
 3459 0324 0400     		.2byte	0x4
 3460 0326 F3       		.byte	0xf3
 3461 0327 01       		.uleb128 0x1
 3462 0328 50       		.byte	0x50
 3463 0329 9F       		.byte	0x9f
 3464 032a 00000000 		.4byte	0
 3465 032e 00000000 		.4byte	0
 3466              	.LLST22:
 3467 0332 06000000 		.4byte	.LVL34
 3468 0336 38000000 		.4byte	.LVL38
 3469 033a 0100     		.2byte	0x1
 3470 033c 54       		.byte	0x54
 3471 033d 00000000 		.4byte	0
 3472 0341 00000000 		.4byte	0
 3473              	.LLST23:
 3474 0345 12000000 		.4byte	.LVL35
 3475 0349 22000000 		.4byte	.LVL37
 3476 034d 0300     		.2byte	0x3
 3477 034f 74       		.byte	0x74
ARM GAS  /tmp/ccwhlLdW.s 			page 62


 3478 0350 28       		.sleb128 40
 3479 0351 9F       		.byte	0x9f
 3480 0352 00000000 		.4byte	0
 3481 0356 00000000 		.4byte	0
 3482              	.LLST24:
 3483 035a 12000000 		.4byte	.LVL35
 3484 035e 1B000000 		.4byte	.LVL36-1
 3485 0362 0100     		.2byte	0x1
 3486 0364 53       		.byte	0x53
 3487 0365 00000000 		.4byte	0
 3488 0369 00000000 		.4byte	0
 3489              	.LLST25:
 3490 036d 00000000 		.4byte	.LVL40
 3491 0371 09000000 		.4byte	.LVL41-1
 3492 0375 0100     		.2byte	0x1
 3493 0377 50       		.byte	0x50
 3494 0378 09000000 		.4byte	.LVL41-1
 3495 037c 0A000000 		.4byte	.LFE16
 3496 0380 0400     		.2byte	0x4
 3497 0382 F3       		.byte	0xf3
 3498 0383 01       		.uleb128 0x1
 3499 0384 50       		.byte	0x50
 3500 0385 9F       		.byte	0x9f
 3501 0386 00000000 		.4byte	0
 3502 038a 00000000 		.4byte	0
 3503              	.LLST26:
 3504 038e 00000000 		.4byte	.LVL42
 3505 0392 18000000 		.4byte	.LVL44
 3506 0396 0100     		.2byte	0x1
 3507 0398 50       		.byte	0x50
 3508 0399 18000000 		.4byte	.LVL44
 3509 039d 32000000 		.4byte	.LVL48
 3510 03a1 0100     		.2byte	0x1
 3511 03a3 54       		.byte	0x54
 3512 03a4 32000000 		.4byte	.LVL48
 3513 03a8 38000000 		.4byte	.LFE18
 3514 03ac 0400     		.2byte	0x4
 3515 03ae F3       		.byte	0xf3
 3516 03af 01       		.uleb128 0x1
 3517 03b0 50       		.byte	0x50
 3518 03b1 9F       		.byte	0x9f
 3519 03b2 00000000 		.4byte	0
 3520 03b6 00000000 		.4byte	0
 3521              	.LLST27:
 3522 03ba 22000000 		.4byte	.LVL46
 3523 03be 32000000 		.4byte	.LVL48
 3524 03c2 0100     		.2byte	0x1
 3525 03c4 55       		.byte	0x55
 3526 03c5 32000000 		.4byte	.LVL48
 3527 03c9 38000000 		.4byte	.LFE18
 3528 03cd 0100     		.2byte	0x1
 3529 03cf 50       		.byte	0x50
 3530 03d0 00000000 		.4byte	0
 3531 03d4 00000000 		.4byte	0
 3532              	.LLST28:
 3533 03d8 16000000 		.4byte	.LVL43
 3534 03dc 18000000 		.4byte	.LVL44
ARM GAS  /tmp/ccwhlLdW.s 			page 63


 3535 03e0 0300     		.2byte	0x3
 3536 03e2 70       		.byte	0x70
 3537 03e3 28       		.sleb128 40
 3538 03e4 9F       		.byte	0x9f
 3539 03e5 18000000 		.4byte	.LVL44
 3540 03e9 20000000 		.4byte	.LVL45
 3541 03ed 0300     		.2byte	0x3
 3542 03ef 74       		.byte	0x74
 3543 03f0 28       		.sleb128 40
 3544 03f1 9F       		.byte	0x9f
 3545 03f2 00000000 		.4byte	0
 3546 03f6 00000000 		.4byte	0
 3547              	.LLST29:
 3548 03fa 16000000 		.4byte	.LVL43
 3549 03fe 1F000000 		.4byte	.LVL45-1
 3550 0402 0100     		.2byte	0x1
 3551 0404 53       		.byte	0x53
 3552 0405 00000000 		.4byte	0
 3553 0409 00000000 		.4byte	0
 3554              		.section	.debug_aranges,"",%progbits
 3555 0000 74000000 		.4byte	0x74
 3556 0004 0200     		.2byte	0x2
 3557 0006 00000000 		.4byte	.Ldebug_info0
 3558 000a 04       		.byte	0x4
 3559 000b 00       		.byte	0
 3560 000c 0000     		.2byte	0
 3561 000e 0000     		.2byte	0
 3562 0010 00000000 		.4byte	.LFB7
 3563 0014 50000000 		.4byte	.LFE7-.LFB7
 3564 0018 00000000 		.4byte	.LFB8
 3565 001c 74000000 		.4byte	.LFE8-.LFB8
 3566 0020 00000000 		.4byte	.LFB9
 3567 0024 88000000 		.4byte	.LFE9-.LFB9
 3568 0028 00000000 		.4byte	.LFB10
 3569 002c 30000000 		.4byte	.LFE10-.LFB10
 3570 0030 00000000 		.4byte	.LFB11
 3571 0034 1A000000 		.4byte	.LFE11-.LFB11
 3572 0038 00000000 		.4byte	.LFB12
 3573 003c 16000000 		.4byte	.LFE12-.LFB12
 3574 0040 00000000 		.4byte	.LFB13
 3575 0044 18000000 		.4byte	.LFE13-.LFB13
 3576 0048 00000000 		.4byte	.LFB14
 3577 004c 24000000 		.4byte	.LFE14-.LFB14
 3578 0050 00000000 		.4byte	.LFB15
 3579 0054 28000000 		.4byte	.LFE15-.LFB15
 3580 0058 00000000 		.4byte	.LFB17
 3581 005c 40000000 		.4byte	.LFE17-.LFB17
 3582 0060 00000000 		.4byte	.LFB16
 3583 0064 0A000000 		.4byte	.LFE16-.LFB16
 3584 0068 00000000 		.4byte	.LFB18
 3585 006c 38000000 		.4byte	.LFE18-.LFB18
 3586 0070 00000000 		.4byte	0
 3587 0074 00000000 		.4byte	0
 3588              		.section	.debug_ranges,"",%progbits
 3589              	.Ldebug_ranges0:
 3590 0000 04000000 		.4byte	.LBB16
 3591 0004 06000000 		.4byte	.LBE16
ARM GAS  /tmp/ccwhlLdW.s 			page 64


 3592 0008 0A000000 		.4byte	.LBB22
 3593 000c 0C000000 		.4byte	.LBE22
 3594 0010 12000000 		.4byte	.LBB23
 3595 0014 18000000 		.4byte	.LBE23
 3596 0018 1E000000 		.4byte	.LBB24
 3597 001c 20000000 		.4byte	.LBE24
 3598 0020 26000000 		.4byte	.LBB25
 3599 0024 64000000 		.4byte	.LBE25
 3600 0028 00000000 		.4byte	0
 3601 002c 00000000 		.4byte	0
 3602 0030 0E000000 		.4byte	.LBB27
 3603 0034 40000000 		.4byte	.LBE27
 3604 0038 42000000 		.4byte	.LBB40
 3605 003c 70000000 		.4byte	.LBE40
 3606 0040 00000000 		.4byte	0
 3607 0044 00000000 		.4byte	0
 3608 0048 0E000000 		.4byte	.LBB29
 3609 004c 10000000 		.4byte	.LBE29
 3610 0050 14000000 		.4byte	.LBB35
 3611 0054 18000000 		.4byte	.LBE35
 3612 0058 22000000 		.4byte	.LBB36
 3613 005c 26000000 		.4byte	.LBE36
 3614 0060 28000000 		.4byte	.LBB37
 3615 0064 3A000000 		.4byte	.LBE37
 3616 0068 42000000 		.4byte	.LBB38
 3617 006c 70000000 		.4byte	.LBE38
 3618 0070 00000000 		.4byte	0
 3619 0074 00000000 		.4byte	0
 3620 0078 02000000 		.4byte	.LBB44
 3621 007c 04000000 		.4byte	.LBE44
 3622 0080 06000000 		.4byte	.LBB45
 3623 0084 0A000000 		.4byte	.LBE45
 3624 0088 00000000 		.4byte	0
 3625 008c 00000000 		.4byte	0
 3626 0090 08000000 		.4byte	.LBB48
 3627 0094 0A000000 		.4byte	.LBE48
 3628 0098 10000000 		.4byte	.LBB49
 3629 009c 16000000 		.4byte	.LBE49
 3630 00a0 00000000 		.4byte	0
 3631 00a4 00000000 		.4byte	0
 3632 00a8 12000000 		.4byte	.LBB56
 3633 00ac 14000000 		.4byte	.LBE56
 3634 00b0 16000000 		.4byte	.LBB59
 3635 00b4 18000000 		.4byte	.LBE59
 3636 00b8 00000000 		.4byte	0
 3637 00bc 00000000 		.4byte	0
 3638 00c0 12000000 		.4byte	.LBB62
 3639 00c4 14000000 		.4byte	.LBE62
 3640 00c8 18000000 		.4byte	.LBB65
 3641 00cc 1C000000 		.4byte	.LBE65
 3642 00d0 00000000 		.4byte	0
 3643 00d4 00000000 		.4byte	0
 3644 00d8 00000000 		.4byte	.LFB7
 3645 00dc 50000000 		.4byte	.LFE7
 3646 00e0 00000000 		.4byte	.LFB8
 3647 00e4 74000000 		.4byte	.LFE8
 3648 00e8 00000000 		.4byte	.LFB9
ARM GAS  /tmp/ccwhlLdW.s 			page 65


 3649 00ec 88000000 		.4byte	.LFE9
 3650 00f0 00000000 		.4byte	.LFB10
 3651 00f4 30000000 		.4byte	.LFE10
 3652 00f8 00000000 		.4byte	.LFB11
 3653 00fc 1A000000 		.4byte	.LFE11
 3654 0100 00000000 		.4byte	.LFB12
 3655 0104 16000000 		.4byte	.LFE12
 3656 0108 00000000 		.4byte	.LFB13
 3657 010c 18000000 		.4byte	.LFE13
 3658 0110 00000000 		.4byte	.LFB14
 3659 0114 24000000 		.4byte	.LFE14
 3660 0118 00000000 		.4byte	.LFB15
 3661 011c 28000000 		.4byte	.LFE15
 3662 0120 00000000 		.4byte	.LFB17
 3663 0124 40000000 		.4byte	.LFE17
 3664 0128 00000000 		.4byte	.LFB16
 3665 012c 0A000000 		.4byte	.LFE16
 3666 0130 00000000 		.4byte	.LFB18
 3667 0134 38000000 		.4byte	.LFE18
 3668 0138 00000000 		.4byte	0
 3669 013c 00000000 		.4byte	0
 3670              		.section	.debug_line,"",%progbits
 3671              	.Ldebug_line0:
 3672 0000 6A030000 		.section	.debug_str,"MS",%progbits,1
 3672      02006201 
 3672      00000201 
 3672      FB0E0D00 
 3672      01010101 
 3673              	.LASF48:
 3674 0000 696E7463 		.ascii	"intctx\000"
 3674      747800
 3675              	.LASF76:
 3676 0007 7466756E 		.ascii	"tfunc_t\000"
 3676      635F7400 
 3677              	.LASF40:
 3678 000f 705F6D73 		.ascii	"p_msg\000"
 3678      6700
 3679              	.LASF2:
 3680 0015 73697A65 		.ascii	"size_t\000"
 3680      5F7400
 3681              	.LASF77:
 3682 001c 7072696F 		.ascii	"prio\000"
 3682      00
 3683              	.LASF71:
 3684 0021 7264796D 		.ascii	"rdymsg\000"
 3684      736700
 3685              	.LASF3:
 3686 0028 5F5F7569 		.ascii	"__uint8_t\000"
 3686      6E74385F 
 3686      7400
 3687              	.LASF94:
 3688 0032 76746C69 		.ascii	"vtlist\000"
 3688      737400
 3689              	.LASF91:
 3690 0039 63685468 		.ascii	"chThdExitS\000"
 3690      64457869 
 3690      745300
ARM GAS  /tmp/ccwhlLdW.s 			page 66


 3691              	.LASF12:
 3692 0044 6C6F6E67 		.ascii	"long long unsigned int\000"
 3692      206C6F6E 
 3692      6720756E 
 3692      7369676E 
 3692      65642069 
 3693              	.LASF72:
 3694 005b 65786974 		.ascii	"exitcode\000"
 3694      636F6465 
 3694      00
 3695              	.LASF28:
 3696 0064 705F7072 		.ascii	"p_prio\000"
 3696      696F00
 3697              	.LASF11:
 3698 006b 6C6F6E67 		.ascii	"long long int\000"
 3698      206C6F6E 
 3698      6720696E 
 3698      7400
 3699              	.LASF1:
 3700 0079 7369676E 		.ascii	"signed char\000"
 3700      65642063 
 3700      68617200 
 3701              	.LASF92:
 3702 0085 63685468 		.ascii	"chThdExit\000"
 3702      64457869 
 3702      7400
 3703              	.LASF44:
 3704 008f 705F6D70 		.ascii	"p_mpool\000"
 3704      6F6F6C00 
 3705              	.LASF68:
 3706 0097 6D5F7175 		.ascii	"m_queue\000"
 3706      65756500 
 3707              	.LASF20:
 3708 009f 74736C69 		.ascii	"tslices_t\000"
 3708      6365735F 
 3708      7400
 3709              	.LASF79:
 3710 00a9 63685468 		.ascii	"chThdCreateI\000"
 3710      64437265 
 3710      61746549 
 3710      00
 3711              	.LASF8:
 3712 00b6 6C6F6E67 		.ascii	"long int\000"
 3712      20696E74 
 3712      00
 3713              	.LASF18:
 3714 00bf 74737461 		.ascii	"tstate_t\000"
 3714      74655F74 
 3714      00
 3715              	.LASF30:
 3716 00c8 705F6E65 		.ascii	"p_newer\000"
 3716      77657200 
 3717              	.LASF105:
 3718 00d0 6C697374 		.ascii	"list_remove\000"
 3718      5F72656D 
 3718      6F766500 
 3719              	.LASF97:
ARM GAS  /tmp/ccwhlLdW.s 			page 67


 3720 00dc 63685363 		.ascii	"chSchRescheduleS\000"
 3720      68526573 
 3720      63686564 
 3720      756C6553 
 3720      00
 3721              	.LASF9:
 3722 00ed 5F5F7569 		.ascii	"__uint32_t\000"
 3722      6E743332 
 3722      5F7400
 3723              	.LASF47:
 3724 00f8 72656761 		.ascii	"regarm_t\000"
 3724      726D5F74 
 3724      00
 3725              	.LASF54:
 3726 0101 76745F70 		.ascii	"vt_prev\000"
 3726      72657600 
 3727              	.LASF82:
 3728 0109 63685468 		.ascii	"chThdSetPriority\000"
 3728      64536574 
 3728      5072696F 
 3728      72697479 
 3728      00
 3729              	.LASF0:
 3730 011a 756E7369 		.ascii	"unsigned int\000"
 3730      676E6564 
 3730      20696E74 
 3730      00
 3731              	.LASF53:
 3732 0127 76745F6E 		.ascii	"vt_next\000"
 3732      65787400 
 3733              	.LASF10:
 3734 012f 6C6F6E67 		.ascii	"long unsigned int\000"
 3734      20756E73 
 3734      69676E65 
 3734      6420696E 
 3734      7400
 3735              	.LASF51:
 3736 0141 76746675 		.ascii	"vtfunc_t\000"
 3736      6E635F74 
 3736      00
 3737              	.LASF49:
 3738 014a 636F6E74 		.ascii	"context\000"
 3738      65787400 
 3739              	.LASF80:
 3740 0152 73697A65 		.ascii	"size\000"
 3740      00
 3741              	.LASF6:
 3742 0157 73686F72 		.ascii	"short unsigned int\000"
 3742      7420756E 
 3742      7369676E 
 3742      65642069 
 3742      6E7400
 3743              	.LASF100:
 3744 016a 63685363 		.ascii	"chSchWakeupS\000"
 3744      6857616B 
 3744      65757053 
 3744      00
ARM GAS  /tmp/ccwhlLdW.s 			page 68


 3745              	.LASF22:
 3746 0177 6D73675F 		.ascii	"msg_t\000"
 3746      7400
 3747              	.LASF63:
 3748 017d 725F6E65 		.ascii	"r_newer\000"
 3748      77657200 
 3749              	.LASF83:
 3750 0185 6E657770 		.ascii	"newprio\000"
 3750      72696F00 
 3751              	.LASF17:
 3752 018d 746D6F64 		.ascii	"tmode_t\000"
 3752      655F7400 
 3753              	.LASF86:
 3754 0195 63685468 		.ascii	"chThdTerminate\000"
 3754      64546572 
 3754      6D696E61 
 3754      746500
 3755              	.LASF46:
 3756 01a4 54687265 		.ascii	"ThreadsList\000"
 3756      6164734C 
 3756      69737400 
 3757              	.LASF23:
 3758 01b0 6576656E 		.ascii	"eventmask_t\000"
 3758      746D6173 
 3758      6B5F7400 
 3759              	.LASF67:
 3760 01bc 4D757465 		.ascii	"Mutex\000"
 3760      7800
 3761              	.LASF84:
 3762 01c2 6F6C6470 		.ascii	"oldprio\000"
 3762      72696F00 
 3763              	.LASF81:
 3764 01ca 63685468 		.ascii	"chThdCreateStatic\000"
 3764      64437265 
 3764      61746553 
 3764      74617469 
 3764      6300
 3765              	.LASF55:
 3766 01dc 76745F74 		.ascii	"vt_time\000"
 3766      696D6500 
 3767              	.LASF50:
 3768 01e4 73697A65 		.ascii	"sizetype\000"
 3768      74797065 
 3768      00
 3769              	.LASF56:
 3770 01ed 76745F66 		.ascii	"vt_func\000"
 3770      756E6300 
 3771              	.LASF85:
 3772 01f5 63685468 		.ascii	"chThdResume\000"
 3772      64526573 
 3772      756D6500 
 3773              	.LASF98:
 3774 0201 63685363 		.ascii	"chSchDoRescheduleBehind\000"
 3774      68446F52 
 3774      65736368 
 3774      6564756C 
 3774      65426568 
ARM GAS  /tmp/ccwhlLdW.s 			page 69


 3775              	.LASF31:
 3776 0219 705F6F6C 		.ascii	"p_older\000"
 3776      64657200 
 3777              	.LASF62:
 3778 0221 725F6374 		.ascii	"r_ctx\000"
 3778      7800
 3779              	.LASF45:
 3780 0227 54687265 		.ascii	"ThreadsQueue\000"
 3780      61647351 
 3780      75657565 
 3780      00
 3781              	.LASF88:
 3782 0234 74696D65 		.ascii	"time\000"
 3782      00
 3783              	.LASF106:
 3784 0239 6C697374 		.ascii	"list_insert\000"
 3784      5F696E73 
 3784      65727400 
 3785              	.LASF65:
 3786 0245 725F6375 		.ascii	"r_current\000"
 3786      7272656E 
 3786      7400
 3787              	.LASF64:
 3788 024f 725F6F6C 		.ascii	"r_older\000"
 3788      64657200 
 3789              	.LASF89:
 3790 0257 63685468 		.ascii	"chThdSleepUntil\000"
 3790      64536C65 
 3790      6570556E 
 3790      74696C00 
 3791              	.LASF19:
 3792 0267 74726566 		.ascii	"trefs_t\000"
 3792      735F7400 
 3793              	.LASF27:
 3794 026f 705F7072 		.ascii	"p_prev\000"
 3794      657600
 3795              	.LASF21:
 3796 0276 74707269 		.ascii	"tprio_t\000"
 3796      6F5F7400 
 3797              	.LASF102:
 3798 027e 474E5520 		.ascii	"GNU C 4.8.3 -mcpu=cortex-m3 -mno-thumb-interwork -m"
 3798      4320342E 
 3798      382E3320 
 3798      2D6D6370 
 3798      753D636F 
 3799 02b1 7468756D 		.ascii	"thumb -ggdb -O2 -fomit-frame-pointer -ffunction-sec"
 3799      62202D67 
 3799      67646220 
 3799      2D4F3220 
 3799      2D666F6D 
 3800 02e4 74696F6E 		.ascii	"tions -fdata-sections -fno-common\000"
 3800      73202D66 
 3800      64617461 
 3800      2D736563 
 3800      74696F6E 
 3801              	.LASF16:
 3802 0306 5F426F6F 		.ascii	"_Bool\000"
ARM GAS  /tmp/ccwhlLdW.s 			page 70


 3802      6C00
 3803              	.LASF14:
 3804 030c 696E7433 		.ascii	"int32_t\000"
 3804      325F7400 
 3805              	.LASF4:
 3806 0314 756E7369 		.ascii	"unsigned char\000"
 3806      676E6564 
 3806      20636861 
 3806      7200
 3807              	.LASF42:
 3808 0322 705F6D74 		.ascii	"p_mtxlist\000"
 3808      786C6973 
 3808      7400
 3809              	.LASF5:
 3810 032c 73686F72 		.ascii	"short int\000"
 3810      7420696E 
 3810      7400
 3811              	.LASF33:
 3812 0336 705F7374 		.ascii	"p_state\000"
 3812      61746500 
 3813              	.LASF36:
 3814 033e 705F7072 		.ascii	"p_preempt\000"
 3814      65656D70 
 3814      7400
 3815              	.LASF61:
 3816 0348 725F7072 		.ascii	"r_prio\000"
 3816      696F00
 3817              	.LASF74:
 3818 034f 65776D61 		.ascii	"ewmask\000"
 3818      736B00
 3819              	.LASF26:
 3820 0356 705F6E65 		.ascii	"p_next\000"
 3820      787400
 3821              	.LASF34:
 3822 035d 705F666C 		.ascii	"p_flags\000"
 3822      61677300 
 3823              	.LASF107:
 3824 0365 63685468 		.ascii	"chThdRelease\000"
 3824      6452656C 
 3824      65617365 
 3824      00
 3825              	.LASF25:
 3826 0372 54687265 		.ascii	"Thread\000"
 3826      616400
 3827              	.LASF101:
 3828 0379 63685363 		.ascii	"chSchGoSleepS\000"
 3828      68476F53 
 3828      6C656570 
 3828      5300
 3829              	.LASF41:
 3830 0387 705F6570 		.ascii	"p_epending\000"
 3830      656E6469 
 3830      6E6700
 3831              	.LASF15:
 3832 0392 75696E74 		.ascii	"uint32_t\000"
 3832      33325F74 
 3832      00
ARM GAS  /tmp/ccwhlLdW.s 			page 71


 3833              	.LASF78:
 3834 039b 5F746872 		.ascii	"_thread_init\000"
 3834      6561645F 
 3834      696E6974 
 3834      00
 3835              	.LASF60:
 3836 03a8 725F7175 		.ascii	"r_queue\000"
 3836      65756500 
 3837              	.LASF52:
 3838 03b0 56697274 		.ascii	"VirtualTimer\000"
 3838      75616C54 
 3838      696D6572 
 3838      00
 3839              	.LASF75:
 3840 03bd 63686172 		.ascii	"char\000"
 3840      00
 3841              	.LASF99:
 3842 03c2 63685363 		.ascii	"chSchReadyI\000"
 3842      68526561 
 3842      64794900 
 3843              	.LASF70:
 3844 03ce 6D5F6E65 		.ascii	"m_next\000"
 3844      787400
 3845              	.LASF24:
 3846 03d5 73797374 		.ascii	"systime_t\000"
 3846      696D655F 
 3846      7400
 3847              	.LASF43:
 3848 03df 705F7265 		.ascii	"p_realprio\000"
 3848      616C7072 
 3848      696F00
 3849              	.LASF7:
 3850 03ea 5F5F696E 		.ascii	"__int32_t\000"
 3850      7433325F 
 3850      7400
 3851              	.LASF90:
 3852 03f4 63685468 		.ascii	"chThdYield\000"
 3852      64596965 
 3852      6C6400
 3853              	.LASF37:
 3854 03ff 705F7469 		.ascii	"p_time\000"
 3854      6D6500
 3855              	.LASF104:
 3856 0406 2F686F6D 		.ascii	"/home/development/Projects/openpv/TF_OSC_ChibiOS/jo"
 3856      652F6465 
 3856      76656C6F 
 3856      706D656E 
 3856      742F5072 
 3857 0439 6D626C6F 		.ascii	"mblo/BASIC\000"
 3857      2F424153 
 3857      494300
 3858              	.LASF39:
 3859 0444 705F6D73 		.ascii	"p_msgqueue\000"
 3859      67717565 
 3859      756500
 3860              	.LASF93:
 3861 044f 63685468 		.ascii	"chThdWait\000"
ARM GAS  /tmp/ccwhlLdW.s 			page 72


 3861      64576169 
 3861      7400
 3862              	.LASF57:
 3863 0459 76745F70 		.ascii	"vt_par\000"
 3863      617200
 3864              	.LASF87:
 3865 0460 63685468 		.ascii	"chThdSleep\000"
 3865      64536C65 
 3865      657000
 3866              	.LASF35:
 3867 046b 705F7265 		.ascii	"p_refs\000"
 3867      667300
 3868              	.LASF66:
 3869 0472 52656164 		.ascii	"ReadyList\000"
 3869      794C6973 
 3869      7400
 3870              	.LASF95:
 3871 047c 726C6973 		.ascii	"rlist\000"
 3871      7400
 3872              	.LASF13:
 3873 0482 75696E74 		.ascii	"uint8_t\000"
 3873      385F7400 
 3874              	.LASF103:
 3875 048a 2E2E2F2E 		.ascii	"../../os/kernel/src/chthreads.c\000"
 3875      2E2F6F73 
 3875      2F6B6572 
 3875      6E656C2F 
 3875      7372632F 
 3876              	.LASF73:
 3877 04aa 77746F62 		.ascii	"wtobjp\000"
 3877      6A7000
 3878              	.LASF32:
 3879 04b1 705F6E61 		.ascii	"p_name\000"
 3879      6D6500
 3880              	.LASF58:
 3881 04b8 76745F73 		.ascii	"vt_systime\000"
 3881      79737469 
 3881      6D6500
 3882              	.LASF96:
 3883 04c3 63685363 		.ascii	"chSchGoSleepTimeoutS\000"
 3883      68476F53 
 3883      6C656570 
 3883      54696D65 
 3883      6F757453 
 3884              	.LASF59:
 3885 04d8 56544C69 		.ascii	"VTList\000"
 3885      737400
 3886              	.LASF69:
 3887 04df 6D5F6F77 		.ascii	"m_owner\000"
 3887      6E657200 
 3888              	.LASF29:
 3889 04e7 705F6374 		.ascii	"p_ctx\000"
 3889      7800
 3890              	.LASF38:
 3891 04ed 705F7761 		.ascii	"p_waiting\000"
 3891      6974696E 
 3891      6700
ARM GAS  /tmp/ccwhlLdW.s 			page 73


 3892              		.ident	"GCC: (4.8.3-18ubuntu2+12) 4.8.3"
ARM GAS  /tmp/ccwhlLdW.s 			page 74


DEFINED SYMBOLS
                            *ABS*:00000000 chthreads.c
     /tmp/ccwhlLdW.s:19     .text._thread_init:00000000 $t
     /tmp/ccwhlLdW.s:24     .text._thread_init:00000000 _thread_init
     /tmp/ccwhlLdW.s:95     .text._thread_init:0000004c $d
     /tmp/ccwhlLdW.s:100    .text.chThdCreateI:00000000 $t
     /tmp/ccwhlLdW.s:105    .text.chThdCreateI:00000000 chThdCreateI
     /tmp/ccwhlLdW.s:222    .text.chThdCreateI:0000006c $d
     /tmp/ccwhlLdW.s:228    .text.chThdCreateStatic:00000000 $t
     /tmp/ccwhlLdW.s:233    .text.chThdCreateStatic:00000000 chThdCreateStatic
     /tmp/ccwhlLdW.s:378    .text.chThdCreateStatic:00000080 $d
     /tmp/ccwhlLdW.s:384    .text.chThdSetPriority:00000000 $t
     /tmp/ccwhlLdW.s:389    .text.chThdSetPriority:00000000 chThdSetPriority
     /tmp/ccwhlLdW.s:444    .text.chThdSetPriority:0000002c $d
     /tmp/ccwhlLdW.s:449    .text.chThdResume:00000000 $t
     /tmp/ccwhlLdW.s:454    .text.chThdResume:00000000 chThdResume
     /tmp/ccwhlLdW.s:497    .text.chThdTerminate:00000000 $t
     /tmp/ccwhlLdW.s:502    .text.chThdTerminate:00000000 chThdTerminate
     /tmp/ccwhlLdW.s:539    .text.chThdSleep:00000000 $t
     /tmp/ccwhlLdW.s:544    .text.chThdSleep:00000000 chThdSleep
     /tmp/ccwhlLdW.s:583    .text.chThdSleepUntil:00000000 $t
     /tmp/ccwhlLdW.s:588    .text.chThdSleepUntil:00000000 chThdSleepUntil
     /tmp/ccwhlLdW.s:630    .text.chThdSleepUntil:00000020 $d
     /tmp/ccwhlLdW.s:636    .text.chThdYield:00000000 $t
     /tmp/ccwhlLdW.s:641    .text.chThdYield:00000000 chThdYield
     /tmp/ccwhlLdW.s:682    .text.chThdYield:00000024 $d
     /tmp/ccwhlLdW.s:688    .text.chThdExitS:00000000 $t
     /tmp/ccwhlLdW.s:693    .text.chThdExitS:00000000 chThdExitS
     /tmp/ccwhlLdW.s:766    .text.chThdExitS:0000003c $d
     /tmp/ccwhlLdW.s:771    .text.chThdExit:00000000 $t
     /tmp/ccwhlLdW.s:776    .text.chThdExit:00000000 chThdExit
     /tmp/ccwhlLdW.s:799    .text.chThdWait:00000000 $t
     /tmp/ccwhlLdW.s:804    .text.chThdWait:00000000 chThdWait
     /tmp/ccwhlLdW.s:879    .text.chThdWait:00000034 $d
                     .debug_frame:00000010 $d

UNDEFINED SYMBOLS
rlist
_port_thread_start
chSchWakeupS
chSchRescheduleS
chSchGoSleepTimeoutS
vtlist
chSchDoRescheduleBehind
chSchReadyI
chSchGoSleepS
chThdRelease
