ARM GAS  /tmp/ccwhlLdW.s 			page 1


   1              		.syntax unified
   2              		.cpu cortex-m3
   3              		.fpu softvfp
   4              		.eabi_attribute 20, 1
   5              		.eabi_attribute 21, 1
   6              		.eabi_attribute 23, 3
   7              		.eabi_attribute 24, 1
   8              		.eabi_attribute 25, 1
   9              		.eabi_attribute 26, 1
  10              		.eabi_attribute 30, 2
  11              		.eabi_attribute 34, 1
  12              		.eabi_attribute 18, 4
  13              		.thumb
  14              		.file	"chthreads.c"
  15              		.text
  16              	.Ltext0:
  17              		.cfi_sections	.debug_frame
  18              		.section	.text._thread_init,"ax",%progbits
  19              		.align	2
  20              		.global	_thread_init
  21              		.thumb
  22              		.thumb_func
  23              		.type	_thread_init, %function
  24              	_thread_init:
  25              	.LFB7:
  26              		.file 1 "../../os/kernel/src/chthreads.c"
  27              		.loc 1 76 0
  28              		.cfi_startproc
  29              		@ args = 0, pretend = 0, frame = 0
  30              		@ frame_needed = 0, uses_anonymous_args = 0
  31              		@ link register save eliminated.
  32              	.LVL0:
  33 0000 2DE9F003 		push	{r4, r5, r6, r7, r8, r9}
  34              		.cfi_def_cfa_offset 24
  35              		.cfi_offset 4, -24
  36              		.cfi_offset 5, -20
  37              		.cfi_offset 6, -16
  38              		.cfi_offset 7, -12
  39              		.cfi_offset 8, -8
  40              		.cfi_offset 9, -4
  41              		.loc 1 99 0
  42 0004 114C     		ldr	r4, .L2
  43              		.loc 1 80 0
  44 0006 0022     		movs	r2, #0
  45              		.loc 1 99 0
  46 0008 6569     		ldr	r5, [r4, #20]
  47              		.loc 1 105 0
  48 000a 00F12C06 		add	r6, r0, #44
  49              		.loc 1 79 0
  50 000e 4FF00209 		mov	r9, #2
  51              		.loc 1 82 0
  52 0012 4FF01408 		mov	r8, #20
  53              		.loc 1 102 0
  54 0016 00F12807 		add	r7, r0, #40
  55              		.loc 1 95 0
  56 001a 4FF0010C 		mov	ip, #1
  57              		.loc 1 99 0
ARM GAS  /tmp/ccwhlLdW.s 			page 2


  58 001e 4561     		str	r5, [r0, #20]
  59 0020 0461     		str	r4, [r0, #16]
  60              		.loc 1 78 0
  61 0022 8160     		str	r1, [r0, #8]
  62              		.loc 1 79 0
  63 0024 80F81C90 		strb	r9, [r0, #28]
  64              		.loc 1 99 0
  65 0028 6061     		str	r0, [r4, #20]
  66              		.loc 1 82 0
  67 002a 80F81F80 		strb	r8, [r0, #31]
  68              		.loc 1 85 0
  69 002e 0164     		str	r1, [r0, #64]
  70              		.loc 1 95 0
  71 0030 80F81EC0 		strb	ip, [r0, #30]
  72              		.loc 1 80 0
  73 0034 4277     		strb	r2, [r0, #29]
  74              		.loc 1 86 0
  75 0036 C263     		str	r2, [r0, #60]
  76              		.loc 1 89 0
  77 0038 8263     		str	r2, [r0, #56]
  78              		.loc 1 92 0
  79 003a 0262     		str	r2, [r0, #32]
  80              		.loc 1 98 0
  81 003c 8261     		str	r2, [r0, #24]
  82              		.loc 1 99 0
  83 003e 2861     		str	r0, [r5, #16]
  84              		.loc 1 102 0
  85 0040 8762     		str	r7, [r0, #40]
  86              		.loc 1 105 0
  87 0042 0663     		str	r6, [r0, #48]
  88 0044 C662     		str	r6, [r0, #44]
  89              		.loc 1 114 0
  90 0046 BDE8F003 		pop	{r4, r5, r6, r7, r8, r9}
  91 004a 7047     		bx	lr
  92              	.L3:
  93              		.align	2
  94              	.L2:
  95 004c 00000000 		.word	rlist
  96              		.cfi_endproc
  97              	.LFE7:
  98              		.size	_thread_init, .-_thread_init
  99              		.section	.text.chThdCreateI,"ax",%progbits
 100              		.align	2
 101              		.global	chThdCreateI
 102              		.thumb
 103              		.thumb_func
 104              		.type	chThdCreateI, %function
 105              	chThdCreateI:
 106              	.LFB8:
 107              		.loc 1 158 0
 108              		.cfi_startproc
 109              		@ args = 4, pretend = 0, frame = 8
 110              		@ frame_needed = 0, uses_anonymous_args = 0
 111              		@ link register save eliminated.
 112              	.LVL1:
 113 0000 2DE9F00F 		push	{r4, r5, r6, r7, r8, r9, r10, fp}
 114              		.cfi_def_cfa_offset 32
ARM GAS  /tmp/ccwhlLdW.s 			page 3


 115              		.cfi_offset 4, -32
 116              		.cfi_offset 5, -28
 117              		.cfi_offset 6, -24
 118              		.cfi_offset 7, -20
 119              		.cfi_offset 8, -16
 120              		.cfi_offset 9, -12
 121              		.cfi_offset 10, -8
 122              		.cfi_offset 11, -4
 123              	.LBB16:
 124              	.LBB17:
 125              		.loc 1 99 0
 126 0004 194D     		ldr	r5, .L5
 127              	.LBE17:
 128              	.LBE16:
 129              		.loc 1 167 0
 130 0006 2439     		subs	r1, r1, #36
 131              	.LVL2:
 132 0008 4618     		adds	r6, r0, r1
 133              	.LBB22:
 134              	.LBB18:
 135              		.loc 1 99 0
 136 000a 6F69     		ldr	r7, [r5, #20]
 137              	.LBE18:
 138              	.LBE22:
 139              		.loc 1 158 0
 140 000c 82B0     		sub	sp, sp, #8
 141              		.cfi_def_cfa_offset 40
 142              		.loc 1 167 0
 143 000e C660     		str	r6, [r0, #12]
 144 0010 4350     		str	r3, [r0, r1]
 145              	.LBB23:
 146              	.LBB19:
 147              		.loc 1 102 0
 148 0012 00F12801 		add	r1, r0, #40
 149              	.LVL3:
 150 0016 0191     		str	r1, [sp, #4]
 151              	.LBE19:
 152              	.LBE23:
 153              		.loc 1 167 0
 154 0018 DFF854C0 		ldr	ip, .L5+4
 155 001c 0A99     		ldr	r1, [sp, #40]
 156              	.LBB24:
 157              	.LBB20:
 158              		.loc 1 80 0
 159 001e 0023     		movs	r3, #0
 160              	.LVL4:
 161              	.LBE20:
 162              	.LBE24:
 163              		.loc 1 167 0
 164 0020 7160     		str	r1, [r6, #4]
 165 0022 C6F820C0 		str	ip, [r6, #32]
 166              	.LVL5:
 167              	.LBB25:
 168              	.LBB21:
 169              		.loc 1 80 0
 170 0026 4377     		strb	r3, [r0, #29]
 171              	.LVL6:
ARM GAS  /tmp/ccwhlLdW.s 			page 4


 172              		.loc 1 86 0
 173 0028 C363     		str	r3, [r0, #60]
 174              		.loc 1 89 0
 175 002a 8363     		str	r3, [r0, #56]
 176              		.loc 1 92 0
 177 002c 0362     		str	r3, [r0, #32]
 178              		.loc 1 98 0
 179 002e 8361     		str	r3, [r0, #24]
 180              		.loc 1 102 0
 181 0030 019B     		ldr	r3, [sp, #4]
 182              		.loc 1 105 0
 183 0032 00F12C0B 		add	fp, r0, #44
 184              		.loc 1 79 0
 185 0036 4FF0020A 		mov	r10, #2
 186              		.loc 1 82 0
 187 003a 4FF01409 		mov	r9, #20
 188              		.loc 1 95 0
 189 003e 4FF00108 		mov	r8, #1
 190              		.loc 1 78 0
 191 0042 8260     		str	r2, [r0, #8]
 192              		.loc 1 99 0
 193 0044 0561     		str	r5, [r0, #16]
 194 0046 4761     		str	r7, [r0, #20]
 195              		.loc 1 85 0
 196 0048 0264     		str	r2, [r0, #64]
 197              		.loc 1 79 0
 198 004a 80F81CA0 		strb	r10, [r0, #28]
 199              		.loc 1 82 0
 200 004e 80F81F90 		strb	r9, [r0, #31]
 201              		.loc 1 95 0
 202 0052 80F81E80 		strb	r8, [r0, #30]
 203              		.loc 1 99 0
 204 0056 6861     		str	r0, [r5, #20]
 205 0058 3861     		str	r0, [r7, #16]
 206              		.loc 1 102 0
 207 005a 8362     		str	r3, [r0, #40]
 208              		.loc 1 105 0
 209 005c C0F830B0 		str	fp, [r0, #48]
 210 0060 C0F82CB0 		str	fp, [r0, #44]
 211              	.LBE21:
 212              	.LBE25:
 213              		.loc 1 169 0
 214 0064 02B0     		add	sp, sp, #8
 215              		@ sp needed
 216 0066 BDE8F00F 		pop	{r4, r5, r6, r7, r8, r9, r10, fp}
 217              	.LVL7:
 218 006a 7047     		bx	lr
 219              	.L6:
 220              		.align	2
 221              	.L5:
 222 006c 00000000 		.word	rlist
 223 0070 00000000 		.word	_port_thread_start
 224              		.cfi_endproc
 225              	.LFE8:
 226              		.size	chThdCreateI, .-chThdCreateI
 227              		.section	.text.chThdCreateStatic,"ax",%progbits
 228              		.align	2
ARM GAS  /tmp/ccwhlLdW.s 			page 5


 229              		.global	chThdCreateStatic
 230              		.thumb
 231              		.thumb_func
 232              		.type	chThdCreateStatic, %function
 233              	chThdCreateStatic:
 234              	.LFB9:
 235              		.loc 1 188 0
 236              		.cfi_startproc
 237              		@ args = 4, pretend = 0, frame = 0
 238              		@ frame_needed = 0, uses_anonymous_args = 0
 239              	.LVL8:
 240 0000 2DE9F84F 		push	{r3, r4, r5, r6, r7, r8, r9, r10, fp, lr}
 241              		.cfi_def_cfa_offset 40
 242              		.cfi_offset 3, -40
 243              		.cfi_offset 4, -36
 244              		.cfi_offset 5, -32
 245              		.cfi_offset 6, -28
 246              		.cfi_offset 7, -24
 247              		.cfi_offset 8, -20
 248              		.cfi_offset 9, -16
 249              		.cfi_offset 10, -12
 250              		.cfi_offset 11, -8
 251              		.cfi_offset 14, -4
 252              		.loc 1 188 0
 253 0004 1D46     		mov	r5, r3
 254 0006 0446     		mov	r4, r0
 255              	.LBB26:
 256              		.loc 1 199 0
 257 0008 2023     		movs	r3, #32
 258              	.LVL9:
 259              	@ 199 "../../os/kernel/src/chthreads.c" 1
 260 000a 83F31188 		msr     BASEPRI, r3
 261              	@ 0 "" 2
 262              	.LVL10:
 263              		.thumb
 264              	.LBE26:
 265              	.LBB27:
 266              	.LBB28:
 267              	.LBB29:
 268              	.LBB30:
 269              		.loc 1 99 0
 270 000e 1C4E     		ldr	r6, .L8
 271              	.LBE30:
 272              	.LBE29:
 273              		.loc 1 167 0
 274 0010 A1F12403 		sub	r3, r1, #36
 275              	.LBB35:
 276              	.LBB31:
 277              		.loc 1 99 0
 278 0014 D6F814E0 		ldr	lr, [r6, #20]
 279              	.LBE31:
 280              	.LBE35:
 281              		.loc 1 167 0
 282 0018 C718     		adds	r7, r0, r3
 283 001a 0A99     		ldr	r1, [sp, #40]
 284              	.LVL11:
 285 001c DFF864B0 		ldr	fp, .L8+4
ARM GAS  /tmp/ccwhlLdW.s 			page 6


 286 0020 C760     		str	r7, [r0, #12]
 287              	.LBB36:
 288              	.LBB32:
 289              		.loc 1 102 0
 290 0022 00F1280C 		add	ip, r0, #40
 291              	.LBE32:
 292              	.LBE36:
 293              		.loc 1 167 0
 294 0026 C550     		str	r5, [r0, r3]
 295              	.LBB37:
 296              	.LBB33:
 297              		.loc 1 79 0
 298 0028 4FF0020A 		mov	r10, #2
 299              		.loc 1 80 0
 300 002c 0025     		movs	r5, #0
 301              	.LVL12:
 302              		.loc 1 105 0
 303 002e 00F12C03 		add	r3, r0, #44
 304              	.LVL13:
 305              		.loc 1 82 0
 306 0032 4FF01409 		mov	r9, #20
 307              		.loc 1 95 0
 308 0036 4FF00108 		mov	r8, #1
 309              	.LBE33:
 310              	.LBE37:
 311              		.loc 1 167 0
 312 003a 7960     		str	r1, [r7, #4]
 313 003c C7F820B0 		str	fp, [r7, #32]
 314              	.LVL14:
 315              	.LBE28:
 316              	.LBE27:
 317              		.loc 1 200 0
 318 0040 2946     		mov	r1, r5
 319              	.LBB40:
 320              	.LBB39:
 321              	.LBB38:
 322              	.LBB34:
 323              		.loc 1 78 0
 324 0042 8260     		str	r2, [r0, #8]
 325              		.loc 1 99 0
 326 0044 0661     		str	r6, [r0, #16]
 327 0046 C0F814E0 		str	lr, [r0, #20]
 328              		.loc 1 85 0
 329 004a 0264     		str	r2, [r0, #64]
 330              		.loc 1 79 0
 331 004c 80F81CA0 		strb	r10, [r0, #28]
 332              	.LVL15:
 333              		.loc 1 82 0
 334 0050 80F81F90 		strb	r9, [r0, #31]
 335              		.loc 1 95 0
 336 0054 80F81E80 		strb	r8, [r0, #30]
 337              		.loc 1 80 0
 338 0058 4577     		strb	r5, [r0, #29]
 339              		.loc 1 99 0
 340 005a 7061     		str	r0, [r6, #20]
 341              		.loc 1 86 0
 342 005c C563     		str	r5, [r0, #60]
ARM GAS  /tmp/ccwhlLdW.s 			page 7


 343              		.loc 1 89 0
 344 005e 8563     		str	r5, [r0, #56]
 345              		.loc 1 92 0
 346 0060 0562     		str	r5, [r0, #32]
 347              		.loc 1 98 0
 348 0062 8561     		str	r5, [r0, #24]
 349              		.loc 1 99 0
 350 0064 CEF81000 		str	r0, [lr, #16]
 351              		.loc 1 105 0
 352 0068 0363     		str	r3, [r0, #48]
 353 006a C362     		str	r3, [r0, #44]
 354              		.loc 1 102 0
 355 006c C0F828C0 		str	ip, [r0, #40]
 356              	.LBE34:
 357              	.LBE38:
 358              	.LBE39:
 359              	.LBE40:
 360              		.loc 1 200 0
 361 0070 FFF7FEFF 		bl	chSchWakeupS
 362              	.LVL16:
 363              	.LBB41:
 364              		.loc 1 201 0
 365 0074 2B46     		mov	r3, r5
 366              	@ 201 "../../os/kernel/src/chthreads.c" 1
 367 0076 83F31188 		msr     BASEPRI, r3
 368              	@ 0 "" 2
 369              		.thumb
 370              	.LBE41:
 371              		.loc 1 203 0
 372 007a 2046     		mov	r0, r4
 373 007c BDE8F88F 		pop	{r3, r4, r5, r6, r7, r8, r9, r10, fp, pc}
 374              	.LVL17:
 375              	.L9:
 376              		.align	2
 377              	.L8:
 378 0080 00000000 		.word	rlist
 379 0084 00000000 		.word	_port_thread_start
 380              		.cfi_endproc
 381              	.LFE9:
 382              		.size	chThdCreateStatic, .-chThdCreateStatic
 383              		.section	.text.chThdSetPriority,"ax",%progbits
 384              		.align	2
 385              		.global	chThdSetPriority
 386              		.thumb
 387              		.thumb_func
 388              		.type	chThdSetPriority, %function
 389              	chThdSetPriority:
 390              	.LFB10:
 391              		.loc 1 217 0
 392              		.cfi_startproc
 393              		@ args = 0, pretend = 0, frame = 0
 394              		@ frame_needed = 0, uses_anonymous_args = 0
 395              	.LVL18:
 396 0000 10B5     		push	{r4, lr}
 397              		.cfi_def_cfa_offset 8
 398              		.cfi_offset 4, -8
 399              		.cfi_offset 14, -4
ARM GAS  /tmp/ccwhlLdW.s 			page 8


 400              	.LBB42:
 401              		.loc 1 222 0
 402 0002 2023     		movs	r3, #32
 403              	@ 222 "../../os/kernel/src/chthreads.c" 1
 404 0004 83F31188 		msr     BASEPRI, r3
 405              	@ 0 "" 2
 406              		.thumb
 407              	.LBE42:
 408              		.loc 1 224 0
 409 0008 084B     		ldr	r3, .L14
 410 000a 9B69     		ldr	r3, [r3, #24]
 411 000c 1C6C     		ldr	r4, [r3, #64]
 412              	.LVL19:
 413              		.loc 1 225 0
 414 000e 9968     		ldr	r1, [r3, #8]
 415 0010 8C42     		cmp	r4, r1
 416 0012 01D0     		beq	.L11
 417              		.loc 1 225 0 is_stmt 0 discriminator 1
 418 0014 8142     		cmp	r1, r0
 419 0016 00D2     		bcs	.L12
 420              	.L11:
 421              		.loc 1 226 0 is_stmt 1
 422 0018 9860     		str	r0, [r3, #8]
 423              	.L12:
 424              		.loc 1 227 0
 425 001a 1864     		str	r0, [r3, #64]
 426              		.loc 1 232 0
 427 001c FFF7FEFF 		bl	chSchRescheduleS
 428              	.LVL20:
 429              	.LBB43:
 430              		.loc 1 233 0
 431 0020 0023     		movs	r3, #0
 432              	@ 233 "../../os/kernel/src/chthreads.c" 1
 433 0022 83F31188 		msr     BASEPRI, r3
 434              	@ 0 "" 2
 435              		.thumb
 436              	.LBE43:
 437              		.loc 1 235 0
 438 0026 2046     		mov	r0, r4
 439 0028 10BD     		pop	{r4, pc}
 440              	.LVL21:
 441              	.L15:
 442 002a 00BF     		.align	2
 443              	.L14:
 444 002c 00000000 		.word	rlist
 445              		.cfi_endproc
 446              	.LFE10:
 447              		.size	chThdSetPriority, .-chThdSetPriority
 448              		.section	.text.chThdResume,"ax",%progbits
 449              		.align	2
 450              		.global	chThdResume
 451              		.thumb
 452              		.thumb_func
 453              		.type	chThdResume, %function
 454              	chThdResume:
 455              	.LFB11:
 456              		.loc 1 250 0
ARM GAS  /tmp/ccwhlLdW.s 			page 9


 457              		.cfi_startproc
 458              		@ args = 0, pretend = 0, frame = 0
 459              		@ frame_needed = 0, uses_anonymous_args = 0
 460              	.LVL22:
 461 0000 10B5     		push	{r4, lr}
 462              		.cfi_def_cfa_offset 8
 463              		.cfi_offset 4, -8
 464              		.cfi_offset 14, -4
 465              	.LBB44:
 466              		.loc 1 252 0
 467 0002 2023     		movs	r3, #32
 468              	.LBE44:
 469              		.loc 1 250 0
 470 0004 0446     		mov	r4, r0
 471              	.LBB45:
 472              		.loc 1 252 0
 473              	@ 252 "../../os/kernel/src/chthreads.c" 1
 474 0006 83F31188 		msr     BASEPRI, r3
 475              	@ 0 "" 2
 476              		.thumb
 477              	.LBE45:
 478              		.loc 1 256 0
 479 000a 0021     		movs	r1, #0
 480 000c FFF7FEFF 		bl	chSchWakeupS
 481              	.LVL23:
 482              	.LBB46:
 483              		.loc 1 257 0
 484 0010 0023     		movs	r3, #0
 485              	@ 257 "../../os/kernel/src/chthreads.c" 1
 486 0012 83F31188 		msr     BASEPRI, r3
 487              	@ 0 "" 2
 488              		.thumb
 489              	.LBE46:
 490              		.loc 1 259 0
 491 0016 2046     		mov	r0, r4
 492 0018 10BD     		pop	{r4, pc}
 493              		.cfi_endproc
 494              	.LFE11:
 495              		.size	chThdResume, .-chThdResume
 496 001a 00BF     		.section	.text.chThdTerminate,"ax",%progbits
 497              		.align	2
 498              		.global	chThdTerminate
 499              		.thumb
 500              		.thumb_func
 501              		.type	chThdTerminate, %function
 502              	chThdTerminate:
 503              	.LFB12:
 504              		.loc 1 273 0
 505              		.cfi_startproc
 506              		@ args = 0, pretend = 0, frame = 0
 507              		@ frame_needed = 0, uses_anonymous_args = 0
 508              		@ link register save eliminated.
 509              	.LVL24:
 510              	.LBB47:
 511              		.loc 1 275 0
 512 0000 2023     		movs	r3, #32
 513              	@ 275 "../../os/kernel/src/chthreads.c" 1
ARM GAS  /tmp/ccwhlLdW.s 			page 10


 514 0002 83F31188 		msr     BASEPRI, r3
 515              	@ 0 "" 2
 516              		.thumb
 517              	.LBE47:
 518              		.loc 1 276 0
 519 0006 427F     		ldrb	r2, [r0, #29]	@ zero_extendqisi2
 520              	.LBB48:
 521              		.loc 1 277 0
 522 0008 0023     		movs	r3, #0
 523              	.LBE48:
 524              		.loc 1 276 0
 525 000a 42F00402 		orr	r2, r2, #4
 526 000e 4277     		strb	r2, [r0, #29]
 527              	.LBB49:
 528              		.loc 1 277 0
 529              	@ 277 "../../os/kernel/src/chthreads.c" 1
 530 0010 83F31188 		msr     BASEPRI, r3
 531              	@ 0 "" 2
 532              		.thumb
 533 0014 7047     		bx	lr
 534              	.LBE49:
 535              		.cfi_endproc
 536              	.LFE12:
 537              		.size	chThdTerminate, .-chThdTerminate
 538 0016 00BF     		.section	.text.chThdSleep,"ax",%progbits
 539              		.align	2
 540              		.global	chThdSleep
 541              		.thumb
 542              		.thumb_func
 543              		.type	chThdSleep, %function
 544              	chThdSleep:
 545              	.LFB13:
 546              		.loc 1 292 0
 547              		.cfi_startproc
 548              		@ args = 0, pretend = 0, frame = 0
 549              		@ frame_needed = 0, uses_anonymous_args = 0
 550              	.LVL25:
 551 0000 08B5     		push	{r3, lr}
 552              		.cfi_def_cfa_offset 8
 553              		.cfi_offset 3, -8
 554              		.cfi_offset 14, -4
 555              		.loc 1 292 0
 556 0002 0146     		mov	r1, r0
 557              	.LBB50:
 558              		.loc 1 296 0
 559 0004 2023     		movs	r3, #32
 560              	@ 296 "../../os/kernel/src/chthreads.c" 1
 561 0006 83F31188 		msr     BASEPRI, r3
 562              	@ 0 "" 2
 563              		.thumb
 564              	.LBE50:
 565              		.loc 1 297 0
 566 000a 0620     		movs	r0, #6
 567              	.LVL26:
 568 000c FFF7FEFF 		bl	chSchGoSleepTimeoutS
 569              	.LVL27:
 570              	.LBB51:
ARM GAS  /tmp/ccwhlLdW.s 			page 11


 571              		.loc 1 298 0
 572 0010 0023     		movs	r3, #0
 573              	@ 298 "../../os/kernel/src/chthreads.c" 1
 574 0012 83F31188 		msr     BASEPRI, r3
 575              	@ 0 "" 2
 576              		.thumb
 577 0016 08BD     		pop	{r3, pc}
 578              	.LBE51:
 579              		.cfi_endproc
 580              	.LFE13:
 581              		.size	chThdSleep, .-chThdSleep
 582              		.section	.text.chThdSleepUntil,"ax",%progbits
 583              		.align	2
 584              		.global	chThdSleepUntil
 585              		.thumb
 586              		.thumb_func
 587              		.type	chThdSleepUntil, %function
 588              	chThdSleepUntil:
 589              	.LFB14:
 590              		.loc 1 309 0
 591              		.cfi_startproc
 592              		@ args = 0, pretend = 0, frame = 0
 593              		@ frame_needed = 0, uses_anonymous_args = 0
 594              	.LVL28:
 595 0000 08B5     		push	{r3, lr}
 596              		.cfi_def_cfa_offset 8
 597              		.cfi_offset 3, -8
 598              		.cfi_offset 14, -4
 599              	.LBB52:
 600              		.loc 1 311 0
 601 0002 2023     		movs	r3, #32
 602              	@ 311 "../../os/kernel/src/chthreads.c" 1
 603 0004 83F31188 		msr     BASEPRI, r3
 604              	@ 0 "" 2
 605              		.thumb
 606              	.LBE52:
 607              		.loc 1 312 0
 608 0008 054B     		ldr	r3, .L24
 609 000a D968     		ldr	r1, [r3, #12]
 610              	.LVL29:
 611 000c 411A     		subs	r1, r0, r1
 612              	.LVL30:
 613 000e 02D0     		beq	.L20
 614              		.loc 1 313 0
 615 0010 0620     		movs	r0, #6
 616 0012 FFF7FEFF 		bl	chSchGoSleepTimeoutS
 617              	.LVL31:
 618              	.L20:
 619              	.LBB53:
 620              		.loc 1 314 0
 621 0016 0023     		movs	r3, #0
 622              	@ 314 "../../os/kernel/src/chthreads.c" 1
 623 0018 83F31188 		msr     BASEPRI, r3
 624              	@ 0 "" 2
 625              		.thumb
 626 001c 08BD     		pop	{r3, pc}
 627              	.L25:
ARM GAS  /tmp/ccwhlLdW.s 			page 12


 628 001e 00BF     		.align	2
 629              	.L24:
 630 0020 00000000 		.word	vtlist
 631              	.LBE53:
 632              		.cfi_endproc
 633              	.LFE14:
 634              		.size	chThdSleepUntil, .-chThdSleepUntil
 635              		.section	.text.chThdYield,"ax",%progbits
 636              		.align	2
 637              		.global	chThdYield
 638              		.thumb
 639              		.thumb_func
 640              		.type	chThdYield, %function
 641              	chThdYield:
 642              	.LFB15:
 643              		.loc 1 324 0
 644              		.cfi_startproc
 645              		@ args = 0, pretend = 0, frame = 0
 646              		@ frame_needed = 0, uses_anonymous_args = 0
 647 0000 08B5     		push	{r3, lr}
 648              		.cfi_def_cfa_offset 8
 649              		.cfi_offset 3, -8
 650              		.cfi_offset 14, -4
 651              	.LBB54:
 652              		.loc 1 326 0
 653 0002 2023     		movs	r3, #32
 654              	@ 326 "../../os/kernel/src/chthreads.c" 1
 655 0004 83F31188 		msr     BASEPRI, r3
 656              	@ 0 "" 2
 657              		.thumb
 658              	.LBE54:
 659              		.loc 1 327 0
 660 0008 064B     		ldr	r3, .L28
 661 000a 1A68     		ldr	r2, [r3]
 662 000c 9B69     		ldr	r3, [r3, #24]
 663 000e 9268     		ldr	r2, [r2, #8]
 664 0010 9B68     		ldr	r3, [r3, #8]
 665 0012 9A42     		cmp	r2, r3
 666 0014 01D3     		bcc	.L27
 667              		.loc 1 327 0 is_stmt 0 discriminator 1
 668 0016 FFF7FEFF 		bl	chSchDoRescheduleBehind
 669              	.LVL32:
 670              	.L27:
 671              	.LBB55:
 672              		.loc 1 328 0 is_stmt 1
 673 001a 0023     		movs	r3, #0
 674              	@ 328 "../../os/kernel/src/chthreads.c" 1
 675 001c 83F31188 		msr     BASEPRI, r3
 676              	@ 0 "" 2
 677              		.thumb
 678 0020 08BD     		pop	{r3, pc}
 679              	.L29:
 680 0022 00BF     		.align	2
 681              	.L28:
 682 0024 00000000 		.word	rlist
 683              	.LBE55:
 684              		.cfi_endproc
ARM GAS  /tmp/ccwhlLdW.s 			page 13


 685              	.LFE15:
 686              		.size	chThdYield, .-chThdYield
 687              		.section	.text.chThdExitS,"ax",%progbits
 688              		.align	2
 689              		.global	chThdExitS
 690              		.thumb
 691              		.thumb_func
 692              		.type	chThdExitS, %function
 693              	chThdExitS:
 694              	.LFB17:
 695              		.loc 1 366 0
 696              		.cfi_startproc
 697              		@ args = 0, pretend = 0, frame = 0
 698              		@ frame_needed = 0, uses_anonymous_args = 0
 699              	.LVL33:
 700 0000 38B5     		push	{r3, r4, r5, lr}
 701              		.cfi_def_cfa_offset 16
 702              		.cfi_offset 3, -16
 703              		.cfi_offset 4, -12
 704              		.cfi_offset 5, -8
 705              		.cfi_offset 14, -4
 706              		.loc 1 367 0
 707 0002 0E4B     		ldr	r3, .L36
 708 0004 9C69     		ldr	r4, [r3, #24]
 709              	.LVL34:
 710              		.loc 1 374 0
 711 0006 2546     		mov	r5, r4
 712 0008 55F8283F 		ldr	r3, [r5, #40]!
 713              		.loc 1 369 0
 714 000c 6062     		str	r0, [r4, #36]
 715              		.loc 1 374 0
 716 000e AB42     		cmp	r3, r5
 717 0010 07D0     		beq	.L34
 718              	.LVL35:
 719              	.L35:
 720              	.LBB56:
 721              	.LBB57:
 722              		.file 2 "../../os/kernel/include/chinline.h"
 723              		.loc 2 89 0
 724 0012 1A68     		ldr	r2, [r3]
 725              	.LBE57:
 726              	.LBE56:
 727              		.loc 1 375 0
 728 0014 1846     		mov	r0, r3
 729              	.LBB59:
 730              	.LBB58:
 731              		.loc 2 89 0
 732 0016 A262     		str	r2, [r4, #40]
 733              	.LBE58:
 734              	.LBE59:
 735              		.loc 1 375 0
 736 0018 FFF7FEFF 		bl	chSchReadyI
 737              	.LVL36:
 738              		.loc 1 374 0
 739 001c A36A     		ldr	r3, [r4, #40]
 740 001e AB42     		cmp	r3, r5
 741 0020 F7D1     		bne	.L35
ARM GAS  /tmp/ccwhlLdW.s 			page 14


 742              	.LVL37:
 743              	.L34:
 744              		.loc 1 380 0
 745 0022 637F     		ldrb	r3, [r4, #29]	@ zero_extendqisi2
 746 0024 9B07     		lsls	r3, r3, #30
 747 0026 04D1     		bne	.L33
 748              		.loc 1 381 0
 749 0028 2269     		ldr	r2, [r4, #16]
 750 002a 6369     		ldr	r3, [r4, #20]
 751 002c 1A61     		str	r2, [r3, #16]
 752 002e 2269     		ldr	r2, [r4, #16]
 753 0030 5361     		str	r3, [r2, #20]
 754              	.L33:
 755              		.loc 1 383 0
 756 0032 0E20     		movs	r0, #14
 757              		.loc 1 386 0
 758 0034 BDE83840 		pop	{r3, r4, r5, lr}
 759              	.LVL38:
 760              		.loc 1 383 0
 761 0038 FFF7FEBF 		b	chSchGoSleepS
 762              	.LVL39:
 763              	.L37:
 764              		.align	2
 765              	.L36:
 766 003c 00000000 		.word	rlist
 767              		.cfi_endproc
 768              	.LFE17:
 769              		.size	chThdExitS, .-chThdExitS
 770              		.section	.text.chThdExit,"ax",%progbits
 771              		.align	2
 772              		.global	chThdExit
 773              		.thumb
 774              		.thumb_func
 775              		.type	chThdExit, %function
 776              	chThdExit:
 777              	.LFB16:
 778              		.loc 1 345 0
 779              		.cfi_startproc
 780              		@ args = 0, pretend = 0, frame = 0
 781              		@ frame_needed = 0, uses_anonymous_args = 0
 782              		@ link register save eliminated.
 783              	.LVL40:
 784              	.LBB60:
 785              		.loc 1 347 0
 786 0000 2023     		movs	r3, #32
 787              	@ 347 "../../os/kernel/src/chthreads.c" 1
 788 0002 83F31188 		msr     BASEPRI, r3
 789              	@ 0 "" 2
 790              		.thumb
 791              	.LBE60:
 792              		.loc 1 348 0
 793 0006 FFF7FEBF 		b	chThdExitS
 794              	.LVL41:
 795              		.cfi_endproc
 796              	.LFE16:
 797              		.size	chThdExit, .-chThdExit
 798 000a 00BF     		.section	.text.chThdWait,"ax",%progbits
ARM GAS  /tmp/ccwhlLdW.s 			page 15


 799              		.align	2
 800              		.global	chThdWait
 801              		.thumb
 802              		.thumb_func
 803              		.type	chThdWait, %function
 804              	chThdWait:
 805              	.LFB18:
 806              		.loc 1 420 0
 807              		.cfi_startproc
 808              		@ args = 0, pretend = 0, frame = 0
 809              		@ frame_needed = 0, uses_anonymous_args = 0
 810              	.LVL42:
 811 0000 38B5     		push	{r3, r4, r5, lr}
 812              		.cfi_def_cfa_offset 16
 813              		.cfi_offset 3, -16
 814              		.cfi_offset 4, -12
 815              		.cfi_offset 5, -8
 816              		.cfi_offset 14, -4
 817              		.loc 1 420 0
 818 0002 0446     		mov	r4, r0
 819              	.LBB61:
 820              		.loc 1 425 0
 821 0004 2023     		movs	r3, #32
 822              	@ 425 "../../os/kernel/src/chthreads.c" 1
 823 0006 83F31188 		msr     BASEPRI, r3
 824              	@ 0 "" 2
 825              		.thumb
 826              	.LBE61:
 827              		.loc 1 430 0
 828 000a 037F     		ldrb	r3, [r0, #28]	@ zero_extendqisi2
 829 000c 0E2B     		cmp	r3, #14
 830 000e 07D0     		beq	.L40
 831              		.loc 1 431 0
 832 0010 084B     		ldr	r3, .L44
 833              	.LBB62:
 834              	.LBB63:
 835              		.loc 2 82 0
 836 0012 826A     		ldr	r2, [r0, #40]
 837              	.LBE63:
 838              	.LBE62:
 839              		.loc 1 431 0
 840 0014 9B69     		ldr	r3, [r3, #24]
 841              	.LVL43:
 842              		.loc 1 432 0
 843 0016 0720     		movs	r0, #7
 844              	.LVL44:
 845              	.LBB65:
 846              	.LBB64:
 847              		.loc 2 82 0
 848 0018 1A60     		str	r2, [r3]
 849              		.loc 2 83 0
 850 001a A362     		str	r3, [r4, #40]
 851              	.LBE64:
 852              	.LBE65:
 853              		.loc 1 432 0
 854 001c FFF7FEFF 		bl	chSchGoSleepS
 855              	.LVL45:
ARM GAS  /tmp/ccwhlLdW.s 			page 16


 856              	.L40:
 857              		.loc 1 434 0
 858 0020 656A     		ldr	r5, [r4, #36]
 859              	.LVL46:
 860              	.LBB66:
 861              		.loc 1 435 0
 862 0022 0023     		movs	r3, #0
 863              	@ 435 "../../os/kernel/src/chthreads.c" 1
 864 0024 83F31188 		msr     BASEPRI, r3
 865              	@ 0 "" 2
 866              		.thumb
 867              	.LBE66:
 868              		.loc 1 437 0
 869 0028 2046     		mov	r0, r4
 870 002a FFF7FEFF 		bl	chThdRelease
 871              	.LVL47:
 872              		.loc 1 440 0
 873 002e 2846     		mov	r0, r5
 874 0030 38BD     		pop	{r3, r4, r5, pc}
 875              	.LVL48:
 876              	.L45:
 877 0032 00BF     		.align	2
 878              	.L44:
 879 0034 00000000 		.word	rlist
 880              		.cfi_endproc
 881              	.LFE18:
 882              		.size	chThdWait, .-chThdWait
 883              		.text
 884              	.Letext0:
 885              		.file 3 "/usr/lib/gcc/arm-none-eabi/4.8/include/stddef.h"
 886              		.file 4 "/usr/include/newlib/machine/_default_types.h"
 887              		.file 5 "/usr/include/newlib/stdint.h"
 888              		.file 6 "../../os/ports/GCC/ARMCMx/chtypes.h"
 889              		.file 7 "../../os/kernel/include/chlists.h"
 890              		.file 8 "../../os/kernel/include/chthreads.h"
 891              		.file 9 "../../os/ports/GCC/ARMCMx/chcore_v7m.h"
 892              		.file 10 "../../os/kernel/include/chvt.h"
 893              		.file 11 "../../os/kernel/include/chschd.h"
 894              		.file 12 "../../os/kernel/include/chmtx.h"
 895              		.file 13 "../../os/kernel/include/chdynamic.h"