ARM GAS  /tmp/cc2RljJ2.s 			page 1


   1              		.syntax unified
   2              		.cpu cortex-m3
   3              		.fpu softvfp
   4              		.eabi_attribute 20, 1
   5              		.eabi_attribute 21, 1
   6              		.eabi_attribute 23, 3
   7              		.eabi_attribute 24, 1
   8              		.eabi_attribute 25, 1
   9              		.eabi_attribute 26, 1
  10              		.eabi_attribute 30, 2
  11              		.eabi_attribute 34, 1
  12              		.eabi_attribute 18, 4
  13              		.thumb
  14              		.file	"crt0.c"
  15              		.text
  16              	.Ltext0:
  17              		.cfi_sections	.debug_frame
  18              		.section	.text.__early_init,"ax",%progbits
  19              		.align	2
  20              		.weak	__early_init
  21              		.thumb
  22              		.thumb_func
  23              		.type	__early_init, %function
  24              	__early_init:
  25              	.LFB0:
  26              		.file 1 "../../os/ports/GCC/ARMCMx/crt0.c"
  27              		.loc 1 234 0
  28              		.cfi_startproc
  29              		@ args = 0, pretend = 0, frame = 0
  30              		@ frame_needed = 0, uses_anonymous_args = 0
  31              		@ link register save eliminated.
  32 0000 7047     		bx	lr
  33              		.cfi_endproc
  34              	.LFE0:
  35              		.size	__early_init, .-__early_init
  36 0002 00BF     		.section	.text.__late_init,"ax",%progbits
  37              		.align	2
  38              		.weak	__late_init
  39              		.thumb
  40              		.thumb_func
  41              		.type	__late_init, %function
  42              	__late_init:
  43              	.LFB1:
  44              		.loc 1 246 0
  45              		.cfi_startproc
  46              		@ args = 0, pretend = 0, frame = 0
  47              		@ frame_needed = 0, uses_anonymous_args = 0
  48              		@ link register save eliminated.
  49 0000 7047     		bx	lr
  50              		.cfi_endproc
  51              	.LFE1:
  52              		.size	__late_init, .-__late_init
  53 0002 00BF     		.section	.text._default_exit,"ax",%progbits
  54              		.align	2
  55              		.weak	_default_exit
  56              		.thumb
  57              		.thumb_func
ARM GAS  /tmp/cc2RljJ2.s 			page 2


  58              		.type	_default_exit, %function
  59              	_default_exit:
  60              	.LFB2:
  61              		.loc 1 257 0
  62              		.cfi_startproc
  63              		@ Naked Function: prologue and epilogue provided by programmer.
  64              		@ args = 0, pretend = 0, frame = 0
  65              		@ frame_needed = 0, uses_anonymous_args = 0
  66              	.L4:
  67 0000 FEE7     		b	.L4
  68              		.cfi_endproc
  69              	.LFE2:
  70              		.size	_default_exit, .-_default_exit
  71 0002 00BF     		.section	.text.ResetHandler,"ax",%progbits
  72              		.align	2
  73              		.global	ResetHandler
  74              		.thumb
  75              		.thumb_func
  76              		.type	ResetHandler, %function
  77              	ResetHandler:
  78              	.LFB3:
  79              		.loc 1 268 0
  80              		.cfi_startproc
  81              		@ Naked Function: prologue and epilogue provided by programmer.
  82              		@ args = 0, pretend = 0, frame = 0
  83              		@ frame_needed = 0, uses_anonymous_args = 0
  84              		.loc 1 274 0
  85              	@ 274 "../../os/ports/GCC/ARMCMx/crt0.c" 1
  86 0000 72B6     		cpsid   i
  87              	@ 0 "" 2
  88              		.loc 1 275 0
  89              		.thumb
  90 0002 3048     		ldr	r0, .L27
  91              	.LVL0:
  92              		.loc 1 276 0
  93              	@ 276 "../../os/ports/GCC/ARMCMx/crt0.c" 1
  94 0004 80F30988 		msr     PSP, r0
  95              	@ 0 "" 2
  96              	.LVL1:
  97              		.loc 1 296 0
  98              		.thumb
  99 0008 0223     		movs	r3, #2
 100              	@ 296 "../../os/ports/GCC/ARMCMx/crt0.c" 1
 101 000a 83F31488 		msr     CONTROL, r3
 102              	@ 0 "" 2
 103              		.loc 1 297 0
 104              	@ 297 "../../os/ports/GCC/ARMCMx/crt0.c" 1
 105 000e BFF36F8F 		isb
 106              	@ 0 "" 2
 107              	.LVL2:
 108              		.thumb
 109              	.LBB2:
 110              		.loc 1 301 0
 111 0012 2D4B     		ldr	r3, .L27+4
 112 0014 2D4A     		ldr	r2, .L27+8
 113 0016 9342     		cmp	r3, r2
 114 0018 0BD2     		bcs	.L9
ARM GAS  /tmp/cc2RljJ2.s 			page 3


 115 001a D943     		mvns	r1, r3
 116 001c 1144     		add	r1, r1, r2
 117 001e 21F00301 		bic	r1, r1, #3
 118 0022 1944     		add	r1, r1, r3
 119 0024 4FF05532 		mov	r2, #1431655765
 120 0028 043B     		subs	r3, r3, #4
 121              	.LVL3:
 122              	.L10:
 123              		.loc 1 301 0 is_stmt 0 discriminator 2
 124 002a 43F8042F 		str	r2, [r3, #4]!
 125              	.LVL4:
 126 002e 8B42     		cmp	r3, r1
 127 0030 FBD1     		bne	.L10
 128              	.LVL5:
 129              	.L9:
 130              	.LBE2:
 131              	.LBB3:
 132              		.loc 1 304 0 is_stmt 1
 133 0032 274B     		ldr	r3, .L27+12
 134 0034 8342     		cmp	r3, r0
 135 0036 0CD2     		bcs	.L8
 136 0038 2649     		ldr	r1, .L27+16
 137 003a 1A1D     		adds	r2, r3, #4
 138 003c 891A     		subs	r1, r1, r2
 139 003e 21F00301 		bic	r1, r1, #3
 140 0042 1944     		add	r1, r1, r3
 141 0044 4FF05532 		mov	r2, #1431655765
 142 0048 043B     		subs	r3, r3, #4
 143              	.LVL6:
 144              	.L13:
 145              		.loc 1 304 0 is_stmt 0 discriminator 2
 146 004a 43F8042F 		str	r2, [r3, #4]!
 147              	.LVL7:
 148 004e 8B42     		cmp	r3, r1
 149 0050 FBD1     		bne	.L13
 150              	.LVL8:
 151              	.L8:
 152              	.LBE3:
 153              		.loc 1 310 0 is_stmt 1
 154 0052 FFF7FEFF 		bl	__early_init
 155              	.LVL9:
 156              	.LBB4:
 157              		.loc 1 319 0
 158 0056 2049     		ldr	r1, .L27+20
 159 0058 204B     		ldr	r3, .L27+24
 160 005a 9942     		cmp	r1, r3
 161 005c 0BD2     		bcs	.L12
 162 005e C843     		mvns	r0, r1
 163 0060 1844     		add	r0, r0, r3
 164 0062 20F00300 		bic	r0, r0, #3
 165 0066 1E4C     		ldr	r4, .L27+28
 166 0068 0430     		adds	r0, r0, #4
 167 006a 0023     		movs	r3, #0
 168              	.LVL10:
 169              	.L16:
 170              		.loc 1 320 0
 171 006c E258     		ldr	r2, [r4, r3]
ARM GAS  /tmp/cc2RljJ2.s 			page 4


 172 006e CA50     		str	r2, [r1, r3]
 173 0070 0433     		adds	r3, r3, #4
 174              	.LVL11:
 175              		.loc 1 319 0
 176 0072 8342     		cmp	r3, r0
 177 0074 FAD1     		bne	.L16
 178              	.LVL12:
 179              	.L12:
 180              	.LBE4:
 181              	.LBB5:
 182              		.loc 1 326 0
 183 0076 1B4B     		ldr	r3, .L27+32
 184 0078 1B4A     		ldr	r2, .L27+36
 185 007a 9342     		cmp	r3, r2
 186 007c 0AD2     		bcs	.L15
 187 007e D943     		mvns	r1, r3
 188 0080 1144     		add	r1, r1, r2
 189 0082 21F00301 		bic	r1, r1, #3
 190 0086 1944     		add	r1, r1, r3
 191 0088 0022     		movs	r2, #0
 192 008a 043B     		subs	r3, r3, #4
 193              	.LVL13:
 194              	.L19:
 195              		.loc 1 326 0 is_stmt 0 discriminator 2
 196 008c 43F8042F 		str	r2, [r3, #4]!
 197              	.LVL14:
 198 0090 8B42     		cmp	r3, r1
 199 0092 FBD1     		bne	.L19
 200              	.LVL15:
 201              	.L15:
 202              	.LBE5:
 203              	.LBB6:
 204              		.loc 1 336 0 is_stmt 1
 205 0094 154D     		ldr	r5, .L27+40
 206 0096 164C     		ldr	r4, .L27+44
 207              	.LBE6:
 208              		.loc 1 330 0
 209 0098 FFF7FEFF 		bl	__late_init
 210              	.LVL16:
 211              	.LBB7:
 212              		.loc 1 336 0
 213 009c AC42     		cmp	r4, r5
 214 009e 04D2     		bcs	.L18
 215              	.LVL17:
 216              	.L22:
 217              		.loc 1 337 0
 218 00a0 54F8043B 		ldr	r3, [r4], #4
 219              	.LVL18:
 220 00a4 9847     		blx	r3
 221              	.LVL19:
 222              		.loc 1 336 0
 223 00a6 AC42     		cmp	r4, r5
 224 00a8 FAD3     		bcc	.L22
 225              	.LVL20:
 226              	.L18:
 227              	.LBE7:
 228              	.LBB8:
ARM GAS  /tmp/cc2RljJ2.s 			page 5


 229              		.loc 1 350 0
 230 00aa 124D     		ldr	r5, .L27+48
 231 00ac 124C     		ldr	r4, .L27+52
 232              	.LBE8:
 233              		.loc 1 344 0
 234 00ae FFF7FEFF 		bl	main
 235              	.LVL21:
 236              	.LBB9:
 237              		.loc 1 350 0
 238 00b2 AC42     		cmp	r4, r5
 239 00b4 04D2     		bcs	.L21
 240              	.LVL22:
 241              	.L23:
 242              		.loc 1 351 0
 243 00b6 54F8043B 		ldr	r3, [r4], #4
 244              	.LVL23:
 245 00ba 9847     		blx	r3
 246              	.LVL24:
 247              		.loc 1 350 0
 248 00bc AC42     		cmp	r4, r5
 249 00be FAD3     		bcc	.L23
 250              	.LVL25:
 251              	.L21:
 252              	.LBE9:
 253              		.loc 1 358 0
 254 00c0 FFF7FEFF 		bl	_default_exit
 255              	.LVL26:
 256              		.loc 1 359 0
 257              	.L28:
 258              		.align	2
 259              	.L27:
 260 00c4 00000000 		.word	__process_stack_end__
 261 00c8 00000000 		.word	__main_stack_base__
 262 00cc 00000000 		.word	__main_stack_end__
 263 00d0 00000000 		.word	__process_stack_base__
 264 00d4 03000000 		.word	__process_stack_end__+3
 265 00d8 00000000 		.word	_data
 266 00dc 00000000 		.word	_edata
 267 00e0 00000000 		.word	_textdata
 268 00e4 00000000 		.word	_bss_start
 269 00e8 00000000 		.word	_bss_end
 270 00ec 00000000 		.word	__init_array_end
 271 00f0 00000000 		.word	__init_array_start
 272 00f4 00000000 		.word	__fini_array_end
 273 00f8 00000000 		.word	__fini_array_start
 274              		.cfi_endproc
 275              	.LFE3:
 276              		.size	ResetHandler, .-ResetHandler
 277              		.text
 278              	.Letext0:
 279              		.file 2 "/usr/include/newlib/machine/_default_types.h"
 280              		.file 3 "/usr/include/newlib/stdint.h"