ARM GAS  /tmp/cc7PdGe6.s 			page 1


   1              		.syntax unified
   2              		.cpu cortex-m3
   3              		.fpu softvfp
   4              		.eabi_attribute 20, 1
   5              		.eabi_attribute 21, 1
   6              		.eabi_attribute 23, 3
   7              		.eabi_attribute 24, 1
   8              		.eabi_attribute 25, 1
   9              		.eabi_attribute 26, 1
  10              		.eabi_attribute 30, 2
  11              		.eabi_attribute 34, 1
  12              		.eabi_attribute 18, 4
  13              		.thumb
  14              		.file	"evtimer.c"
  15              		.text
  16              	.Ltext0:
  17              		.cfi_sections	.debug_frame
  18              		.section	.text.tmrcb,"ax",%progbits
  19              		.align	2
  20              		.thumb
  21              		.thumb_func
  22              		.type	tmrcb, %function
  23              	tmrcb:
  24              	.LFB7:
  25              		.file 1 "../../os/various/evtimer.c"
  26              		.loc 1 28 0
  27              		.cfi_startproc
  28              		@ args = 0, pretend = 0, frame = 0
  29              		@ frame_needed = 0, uses_anonymous_args = 0
  30              	.LVL0:
  31 0000 10B5     		push	{r4, lr}
  32              		.cfi_def_cfa_offset 8
  33              		.cfi_offset 4, -8
  34              		.cfi_offset 14, -4
  35              	.LBB2:
  36              		.loc 1 31 0
  37 0002 2023     		movs	r3, #32
  38              	.LBE2:
  39              		.loc 1 28 0
  40 0004 0446     		mov	r4, r0
  41              	.LVL1:
  42              	.LBB3:
  43              		.loc 1 31 0
  44              	@ 31 "../../os/various/evtimer.c" 1
  45 0006 83F31188 		msr     BASEPRI, r3
  46              	@ 0 "" 2
  47              		.thumb
  48              	.LBE3:
  49              		.loc 1 32 0
  50 000a 0021     		movs	r1, #0
  51 000c 1430     		adds	r0, r0, #20
  52              	.LVL2:
  53 000e FFF7FEFF 		bl	chEvtBroadcastFlagsI
  54              	.LVL3:
  55              		.loc 1 33 0
  56 0012 2346     		mov	r3, r4
  57 0014 2046     		mov	r0, r4
ARM GAS  /tmp/cc7PdGe6.s 			page 2


  58 0016 A169     		ldr	r1, [r4, #24]
  59 0018 034A     		ldr	r2, .L2
  60 001a FFF7FEFF 		bl	chVTSetI
  61              	.LVL4:
  62              	.LBB4:
  63              		.loc 1 34 0
  64 001e 0023     		movs	r3, #0
  65              	@ 34 "../../os/various/evtimer.c" 1
  66 0020 83F31188 		msr     BASEPRI, r3
  67              	@ 0 "" 2
  68              		.thumb
  69 0024 10BD     		pop	{r4, pc}
  70              	.LVL5:
  71              	.L3:
  72 0026 00BF     		.align	2
  73              	.L2:
  74 0028 00000000 		.word	tmrcb
  75              	.LBE4:
  76              		.cfi_endproc
  77              	.LFE7:
  78              		.size	tmrcb, .-tmrcb
  79              		.section	.text.evtStart,"ax",%progbits
  80              		.align	2
  81              		.global	evtStart
  82              		.thumb
  83              		.thumb_func
  84              		.type	evtStart, %function
  85              	evtStart:
  86              	.LFB8:
  87              		.loc 1 43 0
  88              		.cfi_startproc
  89              		@ args = 0, pretend = 0, frame = 0
  90              		@ frame_needed = 0, uses_anonymous_args = 0
  91              	.LVL6:
  92 0000 08B5     		push	{r3, lr}
  93              		.cfi_def_cfa_offset 8
  94              		.cfi_offset 3, -8
  95              		.cfi_offset 14, -4
  96              	.LBB5:
  97              		.loc 1 45 0
  98 0002 2023     		movs	r3, #32
  99              	@ 45 "../../os/various/evtimer.c" 1
 100 0004 83F31188 		msr     BASEPRI, r3
 101              	@ 0 "" 2
 102              		.thumb
 103              	.LBE5:
 104              		.loc 1 47 0
 105 0008 C368     		ldr	r3, [r0, #12]
 106 000a 1BB1     		cbz	r3, .L7
 107              	.LBB6:
 108              		.loc 1 50 0
 109 000c 0023     		movs	r3, #0
 110              	@ 50 "../../os/various/evtimer.c" 1
 111 000e 83F31188 		msr     BASEPRI, r3
 112              	@ 0 "" 2
 113              		.thumb
 114 0012 08BD     		pop	{r3, pc}
ARM GAS  /tmp/cc7PdGe6.s 			page 3


 115              	.L7:
 116              	.LBE6:
 117              		.loc 1 48 0
 118 0014 0346     		mov	r3, r0
 119 0016 8169     		ldr	r1, [r0, #24]
 120 0018 034A     		ldr	r2, .L8
 121 001a FFF7FEFF 		bl	chVTSetI
 122              	.LVL7:
 123              	.LBB7:
 124              		.loc 1 50 0
 125 001e 0023     		movs	r3, #0
 126              	@ 50 "../../os/various/evtimer.c" 1
 127 0020 83F31188 		msr     BASEPRI, r3
 128              	@ 0 "" 2
 129              		.thumb
 130 0024 08BD     		pop	{r3, pc}
 131              	.L9:
 132 0026 00BF     		.align	2
 133              	.L8:
 134 0028 00000000 		.word	tmrcb
 135              	.LBE7:
 136              		.cfi_endproc
 137              	.LFE8:
 138              		.size	evtStart, .-evtStart
 139              		.section	.text.evtStop,"ax",%progbits
 140              		.align	2
 141              		.global	evtStop
 142              		.thumb
 143              		.thumb_func
 144              		.type	evtStop, %function
 145              	evtStop:
 146              	.LFB9:
 147              		.loc 1 59 0
 148              		.cfi_startproc
 149              		@ args = 0, pretend = 0, frame = 0
 150              		@ frame_needed = 0, uses_anonymous_args = 0
 151              	.LVL8:
 152 0000 08B5     		push	{r3, lr}
 153              		.cfi_def_cfa_offset 8
 154              		.cfi_offset 3, -8
 155              		.cfi_offset 14, -4
 156              	.LBB8:
 157              		.loc 1 61 0
 158 0002 2023     		movs	r3, #32
 159              	@ 61 "../../os/various/evtimer.c" 1
 160 0004 83F31188 		msr     BASEPRI, r3
 161              	@ 0 "" 2
 162              		.thumb
 163              	.LBE8:
 164 0008 C368     		ldr	r3, [r0, #12]
 165 000a 0BB1     		cbz	r3, .L11
 166              		.loc 1 61 0 is_stmt 0 discriminator 1
 167 000c FFF7FEFF 		bl	chVTResetI
 168              	.LVL9:
 169              	.L11:
 170              	.LBB9:
 171              		.loc 1 61 0 discriminator 2
ARM GAS  /tmp/cc7PdGe6.s 			page 4


 172 0010 0023     		movs	r3, #0
 173              	@ 61 "../../os/various/evtimer.c" 1
 174 0012 83F31188 		msr     BASEPRI, r3
 175              	@ 0 "" 2
 176              		.thumb
 177 0016 08BD     		pop	{r3, pc}
 178              	.LBE9:
 179              		.cfi_endproc
 180              	.LFE9:
 181              		.size	evtStop, .-evtStop
 182              		.text
 183              	.Letext0:
 184              		.file 2 "/usr/include/newlib/machine/_default_types.h"
 185              		.file 3 "/usr/include/newlib/stdint.h"
 186              		.file 4 "../../os/ports/GCC/ARMCMx/chtypes.h"
 187              		.file 5 "../../os/kernel/include/chlists.h"
 188              		.file 6 "../../os/kernel/include/chthreads.h"
 189              		.file 7 "../../os/ports/GCC/ARMCMx/chcore_v7m.h"
 190              		.file 8 "../../os/kernel/include/chvt.h"
 191              		.file 9 "../../os/kernel/include/chmtx.h"
 192              		.file 10 "../../os/kernel/include/chevents.h"
 193              		.file 11 "../../os/various/evtimer.h"