ARM GAS  /tmp/ccJsKfuL.s 			page 1


   1              		.syntax unified
   2              		.cpu cortex-m3
   3              		.fpu softvfp
   4              		.eabi_attribute 20, 1
   5              		.eabi_attribute 21, 1
   6              		.eabi_attribute 23, 3
   7              		.eabi_attribute 24, 1
   8              		.eabi_attribute 25, 1
   9              		.eabi_attribute 26, 1
  10              		.eabi_attribute 30, 2
  11              		.eabi_attribute 34, 1
  12              		.eabi_attribute 18, 4
  13              		.thumb
  14              		.file	"hal_lld.c"
  15              		.text
  16              	.Ltext0:
  17              		.cfi_sections	.debug_frame
  18              		.section	.text.hal_lld_init,"ax",%progbits
  19              		.align	2
  20              		.global	hal_lld_init
  21              		.thumb
  22              		.thumb_func
  23              		.type	hal_lld_init, %function
  24              	hal_lld_init:
  25              	.LFB64:
  26              		.file 1 "../../os/hal/platforms/STM32F1xx/hal_lld.c"
  27              		.loc 1 99 0
  28              		.cfi_startproc
  29              		@ args = 0, pretend = 0, frame = 0
  30              		@ frame_needed = 0, uses_anonymous_args = 0
  31              		@ link register save eliminated.
  32              		.loc 1 102 0
  33 0000 154B     		ldr	r3, .L2
  34              		.loc 1 99 0
  35 0002 F0B4     		push	{r4, r5, r6, r7}
  36              		.cfi_def_cfa_offset 16
  37              		.cfi_offset 4, -16
  38              		.cfi_offset 5, -12
  39              		.cfi_offset 6, -8
  40              		.cfi_offset 7, -4
  41              		.loc 1 102 0
  42 0004 0021     		movs	r1, #0
  43              		.loc 1 106 0
  44 0006 154A     		ldr	r2, .L2+4
  45              		.loc 1 102 0
  46 0008 4FF0FF34 		mov	r4, #-1
  47 000c 1869     		ldr	r0, [r3, #16]
  48              		.loc 1 106 0
  49 000e 45F6BF56 		movw	r6, #23999
  50              		.loc 1 102 0
  51 0012 1C61     		str	r4, [r3, #16]
  52              		.loc 1 113 0
  53 0014 1248     		ldr	r0, .L2+8
  54              		.loc 1 102 0
  55 0016 1961     		str	r1, [r3, #16]
  56              		.loc 1 108 0
  57 0018 0725     		movs	r5, #7
ARM GAS  /tmp/ccJsKfuL.s 			page 2


  58              		.loc 1 103 0
  59 001a DF68     		ldr	r7, [r3, #12]
  60 001c DC60     		str	r4, [r3, #12]
  61 001e D960     		str	r1, [r3, #12]
  62              		.loc 1 106 0
  63 0020 5660     		str	r6, [r2, #4]
  64              		.loc 1 107 0
  65 0022 9160     		str	r1, [r2, #8]
  66              		.loc 1 108 0
  67 0024 1560     		str	r5, [r2]
  68              		.loc 1 113 0
  69 0026 C268     		ldr	r2, [r0, #12]
  70              		.loc 1 114 0
  71 0028 0E49     		ldr	r1, .L2+12
  72              		.loc 1 113 0
  73 002a 42F08072 		orr	r2, r2, #16777216
  74 002e C260     		str	r2, [r0, #12]
  75              		.loc 1 114 0
  76 0030 0868     		ldr	r0, [r1]
  77              	.LBB4:
  78              	.LBB5:
  79              		.loc 1 52 0
  80 0032 0D4A     		ldr	r2, .L2+16
  81              	.LBE5:
  82              	.LBE4:
  83              		.loc 1 114 0
  84 0034 40F00100 		orr	r0, r0, #1
  85 0038 0860     		str	r0, [r1]
  86              		.loc 1 117 0
  87 003a D969     		ldr	r1, [r3, #28]
  88              		.loc 1 131 0
  89 003c F0BC     		pop	{r4, r5, r6, r7}
  90              		.loc 1 117 0
  91 003e 41F08051 		orr	r1, r1, #268435456
  92 0042 D961     		str	r1, [r3, #28]
  93              		.loc 1 118 0
  94 0044 D969     		ldr	r1, [r3, #28]
  95 0046 41F00061 		orr	r1, r1, #134217728
  96 004a D961     		str	r1, [r3, #28]
  97              	.LBB7:
  98              	.LBB6:
  99              		.loc 1 52 0
 100 004c 1368     		ldr	r3, [r2]
 101 004e 43F48073 		orr	r3, r3, #256
 102 0052 1360     		str	r3, [r2]
 103              	.LBE6:
 104              	.LBE7:
 105              		.loc 1 131 0
 106 0054 7047     		bx	lr
 107              	.L3:
 108 0056 00BF     		.align	2
 109              	.L2:
 110 0058 00100240 		.word	1073876992
 111 005c 10E000E0 		.word	-536813552
 112 0060 F0ED00E0 		.word	-536810000
 113 0064 001000E0 		.word	-536866816
 114 0068 00700040 		.word	1073770496
ARM GAS  /tmp/ccJsKfuL.s 			page 3


 115              		.cfi_endproc
 116              	.LFE64:
 117              		.size	hal_lld_init, .-hal_lld_init
 118              		.section	.text.stm32_clock_init,"ax",%progbits
 119              		.align	2
 120              		.global	stm32_clock_init
 121              		.thumb
 122              		.thumb_func
 123              		.type	stm32_clock_init, %function
 124              	stm32_clock_init:
 125              	.LFB65:
 126              		.loc 1 147 0
 127              		.cfi_startproc
 128              		@ args = 0, pretend = 0, frame = 0
 129              		@ frame_needed = 0, uses_anonymous_args = 0
 130              		@ link register save eliminated.
 131              		.loc 1 152 0
 132 0000 1E4B     		ldr	r3, .L16
 133 0002 1A68     		ldr	r2, [r3]
 134              		.loc 1 153 0
 135 0004 1946     		mov	r1, r3
 136              		.loc 1 152 0
 137 0006 42F00102 		orr	r2, r2, #1
 138 000a 1A60     		str	r2, [r3]
 139              	.L6:
 140              		.loc 1 153 0 discriminator 1
 141 000c 0B68     		ldr	r3, [r1]
 142 000e 1B4A     		ldr	r2, .L16
 143 0010 9B07     		lsls	r3, r3, #30
 144 0012 FBD5     		bpl	.L6
 145              		.loc 1 155 0
 146 0014 1168     		ldr	r1, [r2]
 147              		.loc 1 156 0
 148 0016 0023     		movs	r3, #0
 149              		.loc 1 155 0
 150 0018 01F0F901 		and	r1, r1, #249
 151 001c 1160     		str	r1, [r2]
 152              		.loc 1 157 0
 153 001e 1146     		mov	r1, r2
 154              		.loc 1 156 0
 155 0020 5360     		str	r3, [r2, #4]
 156              	.L8:
 157              		.loc 1 157 0 discriminator 1
 158 0022 4B68     		ldr	r3, [r1, #4]
 159 0024 154A     		ldr	r2, .L16
 160 0026 13F00C0F 		tst	r3, #12
 161 002a FAD1     		bne	.L8
 162              		.loc 1 166 0
 163 002c 1368     		ldr	r3, [r2]
 164              		.loc 1 167 0
 165 002e 1146     		mov	r1, r2
 166              		.loc 1 166 0
 167 0030 43F48033 		orr	r3, r3, #65536
 168 0034 1360     		str	r3, [r2]
 169              	.L10:
 170              		.loc 1 167 0 discriminator 1
 171 0036 0B68     		ldr	r3, [r1]
ARM GAS  /tmp/ccJsKfuL.s 			page 4


 172 0038 104A     		ldr	r2, .L16
 173 003a 9803     		lsls	r0, r3, #14
 174 003c FBD5     		bpl	.L10
 175              		.loc 1 180 0
 176 003e 5368     		ldr	r3, [r2, #4]
 177              		.loc 1 182 0
 178 0040 1146     		mov	r1, r2
 179              		.loc 1 180 0
 180 0042 43F4A023 		orr	r3, r3, #327680
 181 0046 5360     		str	r3, [r2, #4]
 182              		.loc 1 181 0
 183 0048 1368     		ldr	r3, [r2]
 184 004a 43F08073 		orr	r3, r3, #16777216
 185 004e 1360     		str	r3, [r2]
 186              	.L12:
 187              		.loc 1 182 0 discriminator 1
 188 0050 0B68     		ldr	r3, [r1]
 189 0052 0A4A     		ldr	r2, .L16
 190 0054 9B01     		lsls	r3, r3, #6
 191 0056 FBD5     		bpl	.L12
 192              		.loc 1 198 0
 193 0058 094B     		ldr	r3, .L16+4
 194 005a 1021     		movs	r1, #16
 195              		.loc 1 192 0
 196 005c 4FF4A020 		mov	r0, #327680
 197 0060 5060     		str	r0, [r2, #4]
 198              		.loc 1 198 0
 199 0062 1960     		str	r1, [r3]
 200              		.loc 1 203 0
 201 0064 5368     		ldr	r3, [r2, #4]
 202              		.loc 1 204 0
 203 0066 1146     		mov	r1, r2
 204              		.loc 1 203 0
 205 0068 43F00203 		orr	r3, r3, #2
 206 006c 5360     		str	r3, [r2, #4]
 207              	.L14:
 208              		.loc 1 204 0 discriminator 1
 209 006e 4B68     		ldr	r3, [r1, #4]
 210 0070 03F00C03 		and	r3, r3, #12
 211 0074 082B     		cmp	r3, #8
 212 0076 FAD1     		bne	.L14
 213              		.loc 1 212 0
 214 0078 7047     		bx	lr
 215              	.L17:
 216 007a 00BF     		.align	2
 217              	.L16:
 218 007c 00100240 		.word	1073876992
 219 0080 00200240 		.word	1073881088
 220              		.cfi_endproc
 221              	.LFE65:
 222              		.size	stm32_clock_init, .-stm32_clock_init
 223              		.text
 224              	.Letext0:
 225              		.file 2 "/usr/include/newlib/machine/_default_types.h"
 226              		.file 3 "/usr/include/newlib/stdint.h"
 227              		.file 4 "../../os/ports/common/ARMCMx/nvic.h"
 228              		.file 5 "../../os/ports/common/ARMCMx/CMSIS/include/core_cm3.h"
ARM GAS  /tmp/ccJsKfuL.s 			page 5


 229              		.file 6 "../../os/hal/platforms/STM32F1xx/stm32f10x.h"
 230              		.section	.debug_info,"",%progbits
 231              	.Ldebug_info0:
 232 0000 97030000 		.4byte	0x397
 233 0004 0400     		.2byte	0x4
 234 0006 00000000 		.4byte	.Ldebug_abbrev0
 235 000a 04       		.byte	0x4
 236 000b 01       		.uleb128 0x1
 237 000c 39020000 		.4byte	.LASF52
 238 0010 01       		.byte	0x1
 239 0011 5C010000 		.4byte	.LASF53
 240 0015 65000000 		.4byte	.LASF54
 241 0019 18000000 		.4byte	.Ldebug_ranges0+0x18
 242 001d 00000000 		.4byte	0
 243 0021 00000000 		.4byte	.Ldebug_line0
 244 0025 02       		.uleb128 0x2
 245 0026 04       		.byte	0x4
 246 0027 05       		.byte	0x5
 247 0028 696E7400 		.ascii	"int\000"
 248 002c 03       		.uleb128 0x3
 249 002d 04       		.byte	0x4
 250 002e 07       		.byte	0x7
 251 002f A7010000 		.4byte	.LASF0
 252 0033 03       		.uleb128 0x3
 253 0034 01       		.byte	0x1
 254 0035 06       		.byte	0x6
 255 0036 D2000000 		.4byte	.LASF1
 256 003a 03       		.uleb128 0x3
 257 003b 01       		.byte	0x1
 258 003c 08       		.byte	0x8
 259 003d 46010000 		.4byte	.LASF2
 260 0041 03       		.uleb128 0x3
 261 0042 02       		.byte	0x2
 262 0043 05       		.byte	0x5
 263 0044 0F000000 		.4byte	.LASF3
 264 0048 04       		.uleb128 0x4
 265 0049 4B000000 		.4byte	.LASF5
 266 004d 02       		.byte	0x2
 267 004e 2B       		.byte	0x2b
 268 004f 53000000 		.4byte	0x53
 269 0053 03       		.uleb128 0x3
 270 0054 02       		.byte	0x2
 271 0055 07       		.byte	0x7
 272 0056 D7010000 		.4byte	.LASF4
 273 005a 04       		.uleb128 0x4
 274 005b D2020000 		.4byte	.LASF6
 275 005f 02       		.byte	0x2
 276 0060 3F       		.byte	0x3f
 277 0061 65000000 		.4byte	0x65
 278 0065 03       		.uleb128 0x3
 279 0066 04       		.byte	0x4
 280 0067 05       		.byte	0x5
 281 0068 0F010000 		.4byte	.LASF7
 282 006c 04       		.uleb128 0x4
 283 006d 40000000 		.4byte	.LASF8
 284 0071 02       		.byte	0x2
 285 0072 41       		.byte	0x41
ARM GAS  /tmp/ccJsKfuL.s 			page 6


 286 0073 77000000 		.4byte	0x77
 287 0077 03       		.uleb128 0x3
 288 0078 04       		.byte	0x4
 289 0079 07       		.byte	0x7
 290 007a 1E020000 		.4byte	.LASF9
 291 007e 03       		.uleb128 0x3
 292 007f 08       		.byte	0x8
 293 0080 05       		.byte	0x5
 294 0081 EE000000 		.4byte	.LASF10
 295 0085 03       		.uleb128 0x3
 296 0086 08       		.byte	0x8
 297 0087 07       		.byte	0x7
 298 0088 87010000 		.4byte	.LASF11
 299 008c 04       		.uleb128 0x4
 300 008d B4010000 		.4byte	.LASF12
 301 0091 03       		.byte	0x3
 302 0092 36       		.byte	0x36
 303 0093 48000000 		.4byte	0x48
 304 0097 04       		.uleb128 0x4
 305 0098 F7010000 		.4byte	.LASF13
 306 009c 03       		.byte	0x3
 307 009d 41       		.byte	0x41
 308 009e 5A000000 		.4byte	0x5a
 309 00a2 04       		.uleb128 0x4
 310 00a3 9E010000 		.4byte	.LASF14
 311 00a7 03       		.byte	0x3
 312 00a8 42       		.byte	0x42
 313 00a9 6C000000 		.4byte	0x6c
 314 00ad 03       		.uleb128 0x3
 315 00ae 01       		.byte	0x1
 316 00af 02       		.byte	0x2
 317 00b0 FF010000 		.4byte	.LASF15
 318 00b4 04       		.uleb128 0x4
 319 00b5 DE000000 		.4byte	.LASF16
 320 00b9 04       		.byte	0x4
 321 00ba 3A       		.byte	0x3a
 322 00bb BF000000 		.4byte	0xbf
 323 00bf 05       		.uleb128 0x5
 324 00c0 A2000000 		.4byte	0xa2
 325 00c4 03       		.uleb128 0x3
 326 00c5 04       		.byte	0x4
 327 00c6 07       		.byte	0x7
 328 00c7 19000000 		.4byte	.LASF17
 329 00cb 06       		.uleb128 0x6
 330 00cc 10       		.byte	0x10
 331 00cd 04       		.byte	0x4
 332 00ce F1       		.byte	0xf1
 333 00cf 04010000 		.4byte	0x104
 334 00d3 07       		.uleb128 0x7
 335 00d4 09010000 		.4byte	.LASF18
 336 00d8 04       		.byte	0x4
 337 00d9 F2       		.byte	0xf2
 338 00da B4000000 		.4byte	0xb4
 339 00de 00       		.byte	0
 340 00df 07       		.uleb128 0x7
 341 00e0 AB000000 		.4byte	.LASF19
 342 00e4 04       		.byte	0x4
ARM GAS  /tmp/ccJsKfuL.s 			page 7


 343 00e5 F3       		.byte	0xf3
 344 00e6 B4000000 		.4byte	0xb4
 345 00ea 04       		.byte	0x4
 346 00eb 07       		.uleb128 0x7
 347 00ec CC000000 		.4byte	.LASF20
 348 00f0 04       		.byte	0x4
 349 00f1 F4       		.byte	0xf4
 350 00f2 B4000000 		.4byte	0xb4
 351 00f6 08       		.byte	0x8
 352 00f7 07       		.uleb128 0x7
 353 00f8 09000000 		.4byte	.LASF21
 354 00fc 04       		.byte	0x4
 355 00fd F5       		.byte	0xf5
 356 00fe B4000000 		.4byte	0xb4
 357 0102 0C       		.byte	0xc
 358 0103 00       		.byte	0
 359 0104 04       		.uleb128 0x4
 360 0105 EF010000 		.4byte	.LASF22
 361 0109 04       		.byte	0x4
 362 010a F6       		.byte	0xf6
 363 010b CB000000 		.4byte	0xcb
 364 010f 08       		.uleb128 0x8
 365 0110 20       		.byte	0x20
 366 0111 04       		.byte	0x4
 367 0112 0601     		.2byte	0x106
 368 0114 81010000 		.4byte	0x181
 369 0118 09       		.uleb128 0x9
 370 0119 56000000 		.4byte	.LASF23
 371 011d 04       		.byte	0x4
 372 011e 0701     		.2byte	0x107
 373 0120 B4000000 		.4byte	0xb4
 374 0124 00       		.byte	0
 375 0125 09       		.uleb128 0x9
 376 0126 FC000000 		.4byte	.LASF24
 377 012a 04       		.byte	0x4
 378 012b 0801     		.2byte	0x108
 379 012d B4000000 		.4byte	0xb4
 380 0131 04       		.byte	0x4
 381 0132 09       		.uleb128 0x9
 382 0133 17020000 		.4byte	.LASF25
 383 0137 04       		.byte	0x4
 384 0138 0901     		.2byte	0x109
 385 013a B4000000 		.4byte	0xb4
 386 013e 08       		.byte	0x8
 387 013f 09       		.uleb128 0x9
 388 0140 3F010000 		.4byte	.LASF26
 389 0144 04       		.byte	0x4
 390 0145 0A01     		.2byte	0x10a
 391 0147 B4000000 		.4byte	0xb4
 392 014b 0C       		.byte	0xc
 393 014c 09       		.uleb128 0x9
 394 014d 30020000 		.4byte	.LASF27
 395 0151 04       		.byte	0x4
 396 0152 0B01     		.2byte	0x10b
 397 0154 B4000000 		.4byte	0xb4
 398 0158 10       		.byte	0x10
 399 0159 09       		.uleb128 0x9
ARM GAS  /tmp/ccJsKfuL.s 			page 8


 400 015a DC020000 		.4byte	.LASF28
 401 015e 04       		.byte	0x4
 402 015f 0C01     		.2byte	0x10c
 403 0161 B4000000 		.4byte	0xb4
 404 0165 14       		.byte	0x14
 405 0166 09       		.uleb128 0x9
 406 0167 2C000000 		.4byte	.LASF29
 407 016b 04       		.byte	0x4
 408 016c 0D01     		.2byte	0x10d
 409 016e B4000000 		.4byte	0xb4
 410 0172 18       		.byte	0x18
 411 0173 09       		.uleb128 0x9
 412 0174 27000000 		.4byte	.LASF30
 413 0178 04       		.byte	0x4
 414 0179 0E01     		.2byte	0x10e
 415 017b B4000000 		.4byte	0xb4
 416 017f 1C       		.byte	0x1c
 417 0180 00       		.byte	0
 418 0181 0A       		.uleb128 0xa
 419 0182 05020000 		.4byte	.LASF31
 420 0186 04       		.byte	0x4
 421 0187 0F01     		.2byte	0x10f
 422 0189 0F010000 		.4byte	0x10f
 423 018d 03       		.uleb128 0x3
 424 018e 01       		.byte	0x1
 425 018f 08       		.byte	0x8
 426 0190 EA010000 		.4byte	.LASF32
 427 0194 0B       		.uleb128 0xb
 428 0195 BF000000 		.4byte	0xbf
 429 0199 08       		.uleb128 0x8
 430 019a 10       		.byte	0x10
 431 019b 05       		.byte	0x5
 432 019c 3F02     		.2byte	0x23f
 433 019e D7010000 		.4byte	0x1d7
 434 01a2 09       		.uleb128 0x9
 435 01a3 56000000 		.4byte	.LASF23
 436 01a7 05       		.byte	0x5
 437 01a8 4102     		.2byte	0x241
 438 01aa BF000000 		.4byte	0xbf
 439 01ae 00       		.byte	0
 440 01af 09       		.uleb128 0x9
 441 01b0 E3020000 		.4byte	.LASF33
 442 01b4 05       		.byte	0x5
 443 01b5 4202     		.2byte	0x242
 444 01b7 BF000000 		.4byte	0xbf
 445 01bb 04       		.byte	0x4
 446 01bc 0C       		.uleb128 0xc
 447 01bd 56414C00 		.ascii	"VAL\000"
 448 01c1 05       		.byte	0x5
 449 01c2 4302     		.2byte	0x243
 450 01c4 BF000000 		.4byte	0xbf
 451 01c8 08       		.byte	0x8
 452 01c9 09       		.uleb128 0x9
 453 01ca 03010000 		.4byte	.LASF34
 454 01ce 05       		.byte	0x5
 455 01cf 4402     		.2byte	0x244
 456 01d1 94010000 		.4byte	0x194
ARM GAS  /tmp/ccJsKfuL.s 			page 9


 457 01d5 0C       		.byte	0xc
 458 01d6 00       		.byte	0
 459 01d7 0A       		.uleb128 0xa
 460 01d8 CA010000 		.4byte	.LASF35
 461 01dc 05       		.byte	0x5
 462 01dd 4502     		.2byte	0x245
 463 01df 99010000 		.4byte	0x199
 464 01e3 05       		.uleb128 0x5
 465 01e4 97000000 		.4byte	0x97
 466 01e8 08       		.uleb128 0x8
 467 01e9 24       		.byte	0x24
 468 01ea 06       		.byte	0x6
 469 01eb 9403     		.2byte	0x394
 470 01ed 64020000 		.4byte	0x264
 471 01f1 0C       		.uleb128 0xc
 472 01f2 41435200 		.ascii	"ACR\000"
 473 01f6 06       		.byte	0x6
 474 01f7 9603     		.2byte	0x396
 475 01f9 BF000000 		.4byte	0xbf
 476 01fd 00       		.byte	0
 477 01fe 09       		.uleb128 0x9
 478 01ff 5B000000 		.4byte	.LASF36
 479 0203 06       		.byte	0x6
 480 0204 9703     		.2byte	0x397
 481 0206 BF000000 		.4byte	0xbf
 482 020a 04       		.byte	0x4
 483 020b 09       		.uleb128 0x9
 484 020c E6000000 		.4byte	.LASF37
 485 0210 06       		.byte	0x6
 486 0211 9803     		.2byte	0x398
 487 0213 BF000000 		.4byte	0xbf
 488 0217 08       		.byte	0x8
 489 0218 0C       		.uleb128 0xc
 490 0219 535200   		.ascii	"SR\000"
 491 021c 06       		.byte	0x6
 492 021d 9903     		.2byte	0x399
 493 021f BF000000 		.4byte	0xbf
 494 0223 0C       		.byte	0xc
 495 0224 0C       		.uleb128 0xc
 496 0225 435200   		.ascii	"CR\000"
 497 0228 06       		.byte	0x6
 498 0229 9A03     		.2byte	0x39a
 499 022b BF000000 		.4byte	0xbf
 500 022f 10       		.byte	0x10
 501 0230 0C       		.uleb128 0xc
 502 0231 415200   		.ascii	"AR\000"
 503 0234 06       		.byte	0x6
 504 0235 9B03     		.2byte	0x39b
 505 0237 BF000000 		.4byte	0xbf
 506 023b 14       		.byte	0x14
 507 023c 09       		.uleb128 0x9
 508 023d E8020000 		.4byte	.LASF38
 509 0241 06       		.byte	0x6
 510 0242 9C03     		.2byte	0x39c
 511 0244 BF000000 		.4byte	0xbf
 512 0248 18       		.byte	0x18
 513 0249 0C       		.uleb128 0xc
ARM GAS  /tmp/ccJsKfuL.s 			page 10


 514 024a 4F425200 		.ascii	"OBR\000"
 515 024e 06       		.byte	0x6
 516 024f 9D03     		.2byte	0x39d
 517 0251 BF000000 		.4byte	0xbf
 518 0255 1C       		.byte	0x1c
 519 0256 09       		.uleb128 0x9
 520 0257 3A010000 		.4byte	.LASF39
 521 025b 06       		.byte	0x6
 522 025c 9E03     		.2byte	0x39e
 523 025e BF000000 		.4byte	0xbf
 524 0262 20       		.byte	0x20
 525 0263 00       		.byte	0
 526 0264 0A       		.uleb128 0xa
 527 0265 F1020000 		.4byte	.LASF40
 528 0269 06       		.byte	0x6
 529 026a A703     		.2byte	0x3a7
 530 026c E8010000 		.4byte	0x1e8
 531 0270 08       		.uleb128 0x8
 532 0271 08       		.byte	0x8
 533 0272 06       		.byte	0x6
 534 0273 3904     		.2byte	0x439
 535 0275 93020000 		.4byte	0x293
 536 0279 0C       		.uleb128 0xc
 537 027a 435200   		.ascii	"CR\000"
 538 027d 06       		.byte	0x6
 539 027e 3B04     		.2byte	0x43b
 540 0280 BF000000 		.4byte	0xbf
 541 0284 00       		.byte	0
 542 0285 0C       		.uleb128 0xc
 543 0286 43535200 		.ascii	"CSR\000"
 544 028a 06       		.byte	0x6
 545 028b 3C04     		.2byte	0x43c
 546 028d BF000000 		.4byte	0xbf
 547 0291 04       		.byte	0x4
 548 0292 00       		.byte	0
 549 0293 0A       		.uleb128 0xa
 550 0294 34000000 		.4byte	.LASF41
 551 0298 06       		.byte	0x6
 552 0299 3D04     		.2byte	0x43d
 553 029b 70020000 		.4byte	0x270
 554 029f 08       		.uleb128 0x8
 555 02a0 30       		.byte	0x30
 556 02a1 06       		.byte	0x6
 557 02a2 4304     		.2byte	0x443
 558 02a4 44030000 		.4byte	0x344
 559 02a8 0C       		.uleb128 0xc
 560 02a9 435200   		.ascii	"CR\000"
 561 02ac 06       		.byte	0x6
 562 02ad 4504     		.2byte	0x445
 563 02af BF000000 		.4byte	0xbf
 564 02b3 00       		.byte	0
 565 02b4 09       		.uleb128 0x9
 566 02b5 60000000 		.4byte	.LASF42
 567 02b9 06       		.byte	0x6
 568 02ba 4604     		.2byte	0x446
 569 02bc BF000000 		.4byte	0xbf
 570 02c0 04       		.byte	0x4
ARM GAS  /tmp/ccJsKfuL.s 			page 11


 571 02c1 0C       		.uleb128 0xc
 572 02c2 43495200 		.ascii	"CIR\000"
 573 02c6 06       		.byte	0x6
 574 02c7 4704     		.2byte	0x447
 575 02c9 BF000000 		.4byte	0xbf
 576 02cd 08       		.byte	0x8
 577 02ce 09       		.uleb128 0x9
 578 02cf 31010000 		.4byte	.LASF43
 579 02d3 06       		.byte	0x6
 580 02d4 4804     		.2byte	0x448
 581 02d6 BF000000 		.4byte	0xbf
 582 02da 0C       		.byte	0xc
 583 02db 09       		.uleb128 0x9
 584 02dc 00000000 		.4byte	.LASF44
 585 02e0 06       		.byte	0x6
 586 02e1 4904     		.2byte	0x449
 587 02e3 BF000000 		.4byte	0xbf
 588 02e7 10       		.byte	0x10
 589 02e8 09       		.uleb128 0x9
 590 02e9 2A010000 		.4byte	.LASF45
 591 02ed 06       		.byte	0x6
 592 02ee 4A04     		.2byte	0x44a
 593 02f0 BF000000 		.4byte	0xbf
 594 02f4 14       		.byte	0x14
 595 02f5 09       		.uleb128 0x9
 596 02f6 54010000 		.4byte	.LASF46
 597 02fa 06       		.byte	0x6
 598 02fb 4B04     		.2byte	0x44b
 599 02fd BF000000 		.4byte	0xbf
 600 0301 18       		.byte	0x18
 601 0302 09       		.uleb128 0x9
 602 0303 A3000000 		.4byte	.LASF47
 603 0307 06       		.byte	0x6
 604 0308 4C04     		.2byte	0x44c
 605 030a BF000000 		.4byte	0xbf
 606 030e 1C       		.byte	0x1c
 607 030f 09       		.uleb128 0x9
 608 0310 22000000 		.4byte	.LASF48
 609 0314 06       		.byte	0x6
 610 0315 4D04     		.2byte	0x44d
 611 0317 BF000000 		.4byte	0xbf
 612 031b 20       		.byte	0x20
 613 031c 0C       		.uleb128 0xc
 614 031d 43535200 		.ascii	"CSR\000"
 615 0321 06       		.byte	0x6
 616 0322 4E04     		.2byte	0x44e
 617 0324 BF000000 		.4byte	0xbf
 618 0328 24       		.byte	0x24
 619 0329 09       		.uleb128 0x9
 620 032a 0D020000 		.4byte	.LASF49
 621 032e 06       		.byte	0x6
 622 032f 5604     		.2byte	0x456
 623 0331 A2000000 		.4byte	0xa2
 624 0335 28       		.byte	0x28
 625 0336 09       		.uleb128 0x9
 626 0337 18010000 		.4byte	.LASF50
 627 033b 06       		.byte	0x6
ARM GAS  /tmp/ccJsKfuL.s 			page 12


 628 033c 5704     		.2byte	0x457
 629 033e BF000000 		.4byte	0xbf
 630 0342 2C       		.byte	0x2c
 631 0343 00       		.byte	0
 632 0344 0A       		.uleb128 0xa
 633 0345 1E010000 		.4byte	.LASF51
 634 0349 06       		.byte	0x6
 635 034a 5904     		.2byte	0x459
 636 034c 9F020000 		.4byte	0x29f
 637 0350 0D       		.uleb128 0xd
 638 0351 B1000000 		.4byte	.LASF55
 639 0355 01       		.byte	0x1
 640 0356 31       		.byte	0x31
 641 0357 01       		.byte	0x1
 642 0358 0E       		.uleb128 0xe
 643 0359 BD010000 		.4byte	.LASF56
 644 035d 01       		.byte	0x1
 645 035e 63       		.byte	0x63
 646 035f 00000000 		.4byte	.LFB64
 647 0363 6C000000 		.4byte	.LFE64-.LFB64
 648 0367 01       		.uleb128 0x1
 649 0368 9C       		.byte	0x9c
 650 0369 7D030000 		.4byte	0x37d
 651 036d 0F       		.uleb128 0xf
 652 036e 50030000 		.4byte	0x350
 653 0372 32000000 		.4byte	.LBB4
 654 0376 00000000 		.4byte	.Ldebug_ranges0+0
 655 037a 01       		.byte	0x1
 656 037b 79       		.byte	0x79
 657 037c 00       		.byte	0
 658 037d 10       		.uleb128 0x10
 659 037e C1020000 		.4byte	.LASF57
 660 0382 01       		.byte	0x1
 661 0383 93       		.byte	0x93
 662 0384 00000000 		.4byte	.LFB65
 663 0388 84000000 		.4byte	.LFE65-.LFB65
 664 038c 01       		.uleb128 0x1
 665 038d 9C       		.byte	0x9c
 666 038e 11       		.uleb128 0x11
 667 038f FF020000 		.4byte	.LASF58
 668 0393 05       		.byte	0x5
 669 0394 0706     		.2byte	0x607
 670 0396 E3010000 		.4byte	0x1e3
 671 039a 00       		.byte	0
 672              		.section	.debug_abbrev,"",%progbits
 673              	.Ldebug_abbrev0:
 674 0000 01       		.uleb128 0x1
 675 0001 11       		.uleb128 0x11
 676 0002 01       		.byte	0x1
 677 0003 25       		.uleb128 0x25
 678 0004 0E       		.uleb128 0xe
 679 0005 13       		.uleb128 0x13
 680 0006 0B       		.uleb128 0xb
 681 0007 03       		.uleb128 0x3
 682 0008 0E       		.uleb128 0xe
 683 0009 1B       		.uleb128 0x1b
 684 000a 0E       		.uleb128 0xe
ARM GAS  /tmp/ccJsKfuL.s 			page 13


 685 000b 55       		.uleb128 0x55
 686 000c 17       		.uleb128 0x17
 687 000d 11       		.uleb128 0x11
 688 000e 01       		.uleb128 0x1
 689 000f 10       		.uleb128 0x10
 690 0010 17       		.uleb128 0x17
 691 0011 00       		.byte	0
 692 0012 00       		.byte	0
 693 0013 02       		.uleb128 0x2
 694 0014 24       		.uleb128 0x24
 695 0015 00       		.byte	0
 696 0016 0B       		.uleb128 0xb
 697 0017 0B       		.uleb128 0xb
 698 0018 3E       		.uleb128 0x3e
 699 0019 0B       		.uleb128 0xb
 700 001a 03       		.uleb128 0x3
 701 001b 08       		.uleb128 0x8
 702 001c 00       		.byte	0
 703 001d 00       		.byte	0
 704 001e 03       		.uleb128 0x3
 705 001f 24       		.uleb128 0x24
 706 0020 00       		.byte	0
 707 0021 0B       		.uleb128 0xb
 708 0022 0B       		.uleb128 0xb
 709 0023 3E       		.uleb128 0x3e
 710 0024 0B       		.uleb128 0xb
 711 0025 03       		.uleb128 0x3
 712 0026 0E       		.uleb128 0xe
 713 0027 00       		.byte	0
 714 0028 00       		.byte	0
 715 0029 04       		.uleb128 0x4
 716 002a 16       		.uleb128 0x16
 717 002b 00       		.byte	0
 718 002c 03       		.uleb128 0x3
 719 002d 0E       		.uleb128 0xe
 720 002e 3A       		.uleb128 0x3a
 721 002f 0B       		.uleb128 0xb
 722 0030 3B       		.uleb128 0x3b
 723 0031 0B       		.uleb128 0xb
 724 0032 49       		.uleb128 0x49
 725 0033 13       		.uleb128 0x13
 726 0034 00       		.byte	0
 727 0035 00       		.byte	0
 728 0036 05       		.uleb128 0x5
 729 0037 35       		.uleb128 0x35
 730 0038 00       		.byte	0
 731 0039 49       		.uleb128 0x49
 732 003a 13       		.uleb128 0x13
 733 003b 00       		.byte	0
 734 003c 00       		.byte	0
 735 003d 06       		.uleb128 0x6
 736 003e 13       		.uleb128 0x13
 737 003f 01       		.byte	0x1
 738 0040 0B       		.uleb128 0xb
 739 0041 0B       		.uleb128 0xb
 740 0042 3A       		.uleb128 0x3a
 741 0043 0B       		.uleb128 0xb
ARM GAS  /tmp/ccJsKfuL.s 			page 14


 742 0044 3B       		.uleb128 0x3b
 743 0045 0B       		.uleb128 0xb
 744 0046 01       		.uleb128 0x1
 745 0047 13       		.uleb128 0x13
 746 0048 00       		.byte	0
 747 0049 00       		.byte	0
 748 004a 07       		.uleb128 0x7
 749 004b 0D       		.uleb128 0xd
 750 004c 00       		.byte	0
 751 004d 03       		.uleb128 0x3
 752 004e 0E       		.uleb128 0xe
 753 004f 3A       		.uleb128 0x3a
 754 0050 0B       		.uleb128 0xb
 755 0051 3B       		.uleb128 0x3b
 756 0052 0B       		.uleb128 0xb
 757 0053 49       		.uleb128 0x49
 758 0054 13       		.uleb128 0x13
 759 0055 38       		.uleb128 0x38
 760 0056 0B       		.uleb128 0xb
 761 0057 00       		.byte	0
 762 0058 00       		.byte	0
 763 0059 08       		.uleb128 0x8
 764 005a 13       		.uleb128 0x13
 765 005b 01       		.byte	0x1
 766 005c 0B       		.uleb128 0xb
 767 005d 0B       		.uleb128 0xb
 768 005e 3A       		.uleb128 0x3a
 769 005f 0B       		.uleb128 0xb
 770 0060 3B       		.uleb128 0x3b
 771 0061 05       		.uleb128 0x5
 772 0062 01       		.uleb128 0x1
 773 0063 13       		.uleb128 0x13
 774 0064 00       		.byte	0
 775 0065 00       		.byte	0
 776 0066 09       		.uleb128 0x9
 777 0067 0D       		.uleb128 0xd
 778 0068 00       		.byte	0
 779 0069 03       		.uleb128 0x3
 780 006a 0E       		.uleb128 0xe
 781 006b 3A       		.uleb128 0x3a
 782 006c 0B       		.uleb128 0xb
 783 006d 3B       		.uleb128 0x3b
 784 006e 05       		.uleb128 0x5
 785 006f 49       		.uleb128 0x49
 786 0070 13       		.uleb128 0x13
 787 0071 38       		.uleb128 0x38
 788 0072 0B       		.uleb128 0xb
 789 0073 00       		.byte	0
 790 0074 00       		.byte	0
 791 0075 0A       		.uleb128 0xa
 792 0076 16       		.uleb128 0x16
 793 0077 00       		.byte	0
 794 0078 03       		.uleb128 0x3
 795 0079 0E       		.uleb128 0xe
 796 007a 3A       		.uleb128 0x3a
 797 007b 0B       		.uleb128 0xb
 798 007c 3B       		.uleb128 0x3b
ARM GAS  /tmp/ccJsKfuL.s 			page 15


 799 007d 05       		.uleb128 0x5
 800 007e 49       		.uleb128 0x49
 801 007f 13       		.uleb128 0x13
 802 0080 00       		.byte	0
 803 0081 00       		.byte	0
 804 0082 0B       		.uleb128 0xb
 805 0083 26       		.uleb128 0x26
 806 0084 00       		.byte	0
 807 0085 49       		.uleb128 0x49
 808 0086 13       		.uleb128 0x13
 809 0087 00       		.byte	0
 810 0088 00       		.byte	0
 811 0089 0C       		.uleb128 0xc
 812 008a 0D       		.uleb128 0xd
 813 008b 00       		.byte	0
 814 008c 03       		.uleb128 0x3
 815 008d 08       		.uleb128 0x8
 816 008e 3A       		.uleb128 0x3a
 817 008f 0B       		.uleb128 0xb
 818 0090 3B       		.uleb128 0x3b
 819 0091 05       		.uleb128 0x5
 820 0092 49       		.uleb128 0x49
 821 0093 13       		.uleb128 0x13
 822 0094 38       		.uleb128 0x38
 823 0095 0B       		.uleb128 0xb
 824 0096 00       		.byte	0
 825 0097 00       		.byte	0
 826 0098 0D       		.uleb128 0xd
 827 0099 2E       		.uleb128 0x2e
 828 009a 00       		.byte	0
 829 009b 03       		.uleb128 0x3
 830 009c 0E       		.uleb128 0xe
 831 009d 3A       		.uleb128 0x3a
 832 009e 0B       		.uleb128 0xb
 833 009f 3B       		.uleb128 0x3b
 834 00a0 0B       		.uleb128 0xb
 835 00a1 27       		.uleb128 0x27
 836 00a2 19       		.uleb128 0x19
 837 00a3 20       		.uleb128 0x20
 838 00a4 0B       		.uleb128 0xb
 839 00a5 00       		.byte	0
 840 00a6 00       		.byte	0
 841 00a7 0E       		.uleb128 0xe
 842 00a8 2E       		.uleb128 0x2e
 843 00a9 01       		.byte	0x1
 844 00aa 3F       		.uleb128 0x3f
 845 00ab 19       		.uleb128 0x19
 846 00ac 03       		.uleb128 0x3
 847 00ad 0E       		.uleb128 0xe
 848 00ae 3A       		.uleb128 0x3a
 849 00af 0B       		.uleb128 0xb
 850 00b0 3B       		.uleb128 0x3b
 851 00b1 0B       		.uleb128 0xb
 852 00b2 27       		.uleb128 0x27
 853 00b3 19       		.uleb128 0x19
 854 00b4 11       		.uleb128 0x11
 855 00b5 01       		.uleb128 0x1
ARM GAS  /tmp/ccJsKfuL.s 			page 16


 856 00b6 12       		.uleb128 0x12
 857 00b7 06       		.uleb128 0x6
 858 00b8 40       		.uleb128 0x40
 859 00b9 18       		.uleb128 0x18
 860 00ba 9742     		.uleb128 0x2117
 861 00bc 19       		.uleb128 0x19
 862 00bd 01       		.uleb128 0x1
 863 00be 13       		.uleb128 0x13
 864 00bf 00       		.byte	0
 865 00c0 00       		.byte	0
 866 00c1 0F       		.uleb128 0xf
 867 00c2 1D       		.uleb128 0x1d
 868 00c3 00       		.byte	0
 869 00c4 31       		.uleb128 0x31
 870 00c5 13       		.uleb128 0x13
 871 00c6 52       		.uleb128 0x52
 872 00c7 01       		.uleb128 0x1
 873 00c8 55       		.uleb128 0x55
 874 00c9 17       		.uleb128 0x17
 875 00ca 58       		.uleb128 0x58
 876 00cb 0B       		.uleb128 0xb
 877 00cc 59       		.uleb128 0x59
 878 00cd 0B       		.uleb128 0xb
 879 00ce 00       		.byte	0
 880 00cf 00       		.byte	0
 881 00d0 10       		.uleb128 0x10
 882 00d1 2E       		.uleb128 0x2e
 883 00d2 00       		.byte	0
 884 00d3 3F       		.uleb128 0x3f
 885 00d4 19       		.uleb128 0x19
 886 00d5 03       		.uleb128 0x3
 887 00d6 0E       		.uleb128 0xe
 888 00d7 3A       		.uleb128 0x3a
 889 00d8 0B       		.uleb128 0xb
 890 00d9 3B       		.uleb128 0x3b
 891 00da 0B       		.uleb128 0xb
 892 00db 27       		.uleb128 0x27
 893 00dc 19       		.uleb128 0x19
 894 00dd 11       		.uleb128 0x11
 895 00de 01       		.uleb128 0x1
 896 00df 12       		.uleb128 0x12
 897 00e0 06       		.uleb128 0x6
 898 00e1 40       		.uleb128 0x40
 899 00e2 18       		.uleb128 0x18
 900 00e3 9742     		.uleb128 0x2117
 901 00e5 19       		.uleb128 0x19
 902 00e6 00       		.byte	0
 903 00e7 00       		.byte	0
 904 00e8 11       		.uleb128 0x11
 905 00e9 34       		.uleb128 0x34
 906 00ea 00       		.byte	0
 907 00eb 03       		.uleb128 0x3
 908 00ec 0E       		.uleb128 0xe
 909 00ed 3A       		.uleb128 0x3a
 910 00ee 0B       		.uleb128 0xb
 911 00ef 3B       		.uleb128 0x3b
 912 00f0 05       		.uleb128 0x5
ARM GAS  /tmp/ccJsKfuL.s 			page 17


 913 00f1 49       		.uleb128 0x49
 914 00f2 13       		.uleb128 0x13
 915 00f3 3F       		.uleb128 0x3f
 916 00f4 19       		.uleb128 0x19
 917 00f5 3C       		.uleb128 0x3c
 918 00f6 19       		.uleb128 0x19
 919 00f7 00       		.byte	0
 920 00f8 00       		.byte	0
 921 00f9 00       		.byte	0
 922              		.section	.debug_aranges,"",%progbits
 923 0000 24000000 		.4byte	0x24
 924 0004 0200     		.2byte	0x2
 925 0006 00000000 		.4byte	.Ldebug_info0
 926 000a 04       		.byte	0x4
 927 000b 00       		.byte	0
 928 000c 0000     		.2byte	0
 929 000e 0000     		.2byte	0
 930 0010 00000000 		.4byte	.LFB64
 931 0014 6C000000 		.4byte	.LFE64-.LFB64
 932 0018 00000000 		.4byte	.LFB65
 933 001c 84000000 		.4byte	.LFE65-.LFB65
 934 0020 00000000 		.4byte	0
 935 0024 00000000 		.4byte	0
 936              		.section	.debug_ranges,"",%progbits
 937              	.Ldebug_ranges0:
 938 0000 32000000 		.4byte	.LBB4
 939 0004 34000000 		.4byte	.LBE4
 940 0008 4C000000 		.4byte	.LBB7
 941 000c 54000000 		.4byte	.LBE7
 942 0010 00000000 		.4byte	0
 943 0014 00000000 		.4byte	0
 944 0018 00000000 		.4byte	.LFB64
 945 001c 6C000000 		.4byte	.LFE64
 946 0020 00000000 		.4byte	.LFB65
 947 0024 84000000 		.4byte	.LFE65
 948 0028 00000000 		.4byte	0
 949 002c 00000000 		.4byte	0
 950              		.section	.debug_line,"",%progbits
 951              	.Ldebug_line0:
 952 0000 89010000 		.section	.debug_str,"MS",%progbits,1
 952      02000001 
 952      00000201 
 952      FB0E0D00 
 952      01010101 
 953              	.LASF44:
 954 0000 41504231 		.ascii	"APB1RSTR\000"
 954      52535452 
 954      00
 955              	.LASF21:
 956 0009 44454D43 		.ascii	"DEMCR\000"
 956      5200
 957              	.LASF3:
 958 000f 73686F72 		.ascii	"short int\000"
 958      7420696E 
 958      7400
 959              	.LASF17:
 960 0019 73697A65 		.ascii	"sizetype\000"
ARM GAS  /tmp/ccJsKfuL.s 			page 18


 960      74797065 
 960      00
 961              	.LASF48:
 962 0022 42444352 		.ascii	"BDCR\000"
 962      00
 963              	.LASF30:
 964 0027 50435352 		.ascii	"PCSR\000"
 964      00
 965              	.LASF29:
 966 002c 464F4C44 		.ascii	"FOLDCNT\000"
 966      434E5400 
 967              	.LASF41:
 968 0034 5057525F 		.ascii	"PWR_TypeDef\000"
 968      54797065 
 968      44656600 
 969              	.LASF8:
 970 0040 5F5F7569 		.ascii	"__uint32_t\000"
 970      6E743332 
 970      5F7400
 971              	.LASF5:
 972 004b 5F5F7569 		.ascii	"__uint16_t\000"
 972      6E743136 
 972      5F7400
 973              	.LASF23:
 974 0056 4354524C 		.ascii	"CTRL\000"
 974      00
 975              	.LASF36:
 976 005b 4B455952 		.ascii	"KEYR\000"
 976      00
 977              	.LASF42:
 978 0060 43464752 		.ascii	"CFGR\000"
 978      00
 979              	.LASF54:
 980 0065 2F686F6D 		.ascii	"/home/development/Projects/openpv/TF_OSC_ChibiOS/jo"
 980      652F6465 
 980      76656C6F 
 980      706D656E 
 980      742F5072 
 981 0098 6D626C6F 		.ascii	"mblo/BASIC\000"
 981      2F424153 
 981      494300
 982              	.LASF47:
 983 00a3 41504231 		.ascii	"APB1ENR\000"
 983      454E5200 
 984              	.LASF19:
 985 00ab 44435253 		.ascii	"DCRSR\000"
 985      5200
 986              	.LASF55:
 987 00b1 68616C5F 		.ascii	"hal_lld_backup_domain_init\000"
 987      6C6C645F 
 987      6261636B 
 987      75705F64 
 987      6F6D6169 
 988              	.LASF20:
 989 00cc 44435244 		.ascii	"DCRDR\000"
 989      5200
 990              	.LASF1:
ARM GAS  /tmp/ccJsKfuL.s 			page 19


 991 00d2 7369676E 		.ascii	"signed char\000"
 991      65642063 
 991      68617200 
 992              	.LASF16:
 993 00de 494F5245 		.ascii	"IOREG32\000"
 993      47333200 
 994              	.LASF37:
 995 00e6 4F50544B 		.ascii	"OPTKEYR\000"
 995      45595200 
 996              	.LASF10:
 997 00ee 6C6F6E67 		.ascii	"long long int\000"
 997      206C6F6E 
 997      6720696E 
 997      7400
 998              	.LASF24:
 999 00fc 43594343 		.ascii	"CYCCNT\000"
 999      4E5400
 1000              	.LASF34:
 1001 0103 43414C49 		.ascii	"CALIB\000"
 1001      4200
 1002              	.LASF18:
 1003 0109 44484353 		.ascii	"DHCSR\000"
 1003      5200
 1004              	.LASF7:
 1005 010f 6C6F6E67 		.ascii	"long int\000"
 1005      20696E74 
 1005      00
 1006              	.LASF50:
 1007 0118 43464752 		.ascii	"CFGR2\000"
 1007      3200
 1008              	.LASF51:
 1009 011e 5243435F 		.ascii	"RCC_TypeDef\000"
 1009      54797065 
 1009      44656600 
 1010              	.LASF45:
 1011 012a 41484245 		.ascii	"AHBENR\000"
 1011      4E5200
 1012              	.LASF43:
 1013 0131 41504232 		.ascii	"APB2RSTR\000"
 1013      52535452 
 1013      00
 1014              	.LASF39:
 1015 013a 57525052 		.ascii	"WRPR\000"
 1015      00
 1016              	.LASF26:
 1017 013f 45584343 		.ascii	"EXCCNT\000"
 1017      4E5400
 1018              	.LASF2:
 1019 0146 756E7369 		.ascii	"unsigned char\000"
 1019      676E6564 
 1019      20636861 
 1019      7200
 1020              	.LASF46:
 1021 0154 41504232 		.ascii	"APB2ENR\000"
 1021      454E5200 
 1022              	.LASF53:
 1023 015c 2E2E2F2E 		.ascii	"../../os/hal/platforms/STM32F1xx/hal_lld.c\000"
ARM GAS  /tmp/ccJsKfuL.s 			page 20


 1023      2E2F6F73 
 1023      2F68616C 
 1023      2F706C61 
 1023      74666F72 
 1024              	.LASF11:
 1025 0187 6C6F6E67 		.ascii	"long long unsigned int\000"
 1025      206C6F6E 
 1025      6720756E 
 1025      7369676E 
 1025      65642069 
 1026              	.LASF14:
 1027 019e 75696E74 		.ascii	"uint32_t\000"
 1027      33325F74 
 1027      00
 1028              	.LASF0:
 1029 01a7 756E7369 		.ascii	"unsigned int\000"
 1029      676E6564 
 1029      20696E74 
 1029      00
 1030              	.LASF12:
 1031 01b4 75696E74 		.ascii	"uint16_t\000"
 1031      31365F74 
 1031      00
 1032              	.LASF56:
 1033 01bd 68616C5F 		.ascii	"hal_lld_init\000"
 1033      6C6C645F 
 1033      696E6974 
 1033      00
 1034              	.LASF35:
 1035 01ca 53797354 		.ascii	"SysTick_Type\000"
 1035      69636B5F 
 1035      54797065 
 1035      00
 1036              	.LASF4:
 1037 01d7 73686F72 		.ascii	"short unsigned int\000"
 1037      7420756E 
 1037      7369676E 
 1037      65642069 
 1037      6E7400
 1038              	.LASF32:
 1039 01ea 63686172 		.ascii	"char\000"
 1039      00
 1040              	.LASF22:
 1041 01ef 434D785F 		.ascii	"CMx_SCS\000"
 1041      53435300 
 1042              	.LASF13:
 1043 01f7 696E7433 		.ascii	"int32_t\000"
 1043      325F7400 
 1044              	.LASF15:
 1045 01ff 5F426F6F 		.ascii	"_Bool\000"
 1045      6C00
 1046              	.LASF31:
 1047 0205 434D785F 		.ascii	"CMx_DWT\000"
 1047      44575400 
 1048              	.LASF49:
 1049 020d 52455345 		.ascii	"RESERVED0\000"
 1049      52564544 
ARM GAS  /tmp/ccJsKfuL.s 			page 21


 1049      3000
 1050              	.LASF25:
 1051 0217 43504943 		.ascii	"CPICNT\000"
 1051      4E5400
 1052              	.LASF9:
 1053 021e 6C6F6E67 		.ascii	"long unsigned int\000"
 1053      20756E73 
 1053      69676E65 
 1053      6420696E 
 1053      7400
 1054              	.LASF27:
 1055 0230 534C4545 		.ascii	"SLEEPCNT\000"
 1055      50434E54 
 1055      00
 1056              	.LASF52:
 1057 0239 474E5520 		.ascii	"GNU C 4.8.3 -mcpu=cortex-m3 -mno-thumb-interwork -m"
 1057      4320342E 
 1057      382E3320 
 1057      2D6D6370 
 1057      753D636F 
 1058 026c 7468756D 		.ascii	"thumb -ggdb -O2 -fomit-frame-pointer -ffunction-sec"
 1058      62202D67 
 1058      67646220 
 1058      2D4F3220 
 1058      2D666F6D 
 1059 029f 74696F6E 		.ascii	"tions -fdata-sections -fno-common\000"
 1059      73202D66 
 1059      64617461 
 1059      2D736563 
 1059      74696F6E 
 1060              	.LASF57:
 1061 02c1 73746D33 		.ascii	"stm32_clock_init\000"
 1061      325F636C 
 1061      6F636B5F 
 1061      696E6974 
 1061      00
 1062              	.LASF6:
 1063 02d2 5F5F696E 		.ascii	"__int32_t\000"
 1063      7433325F 
 1063      7400
 1064              	.LASF28:
 1065 02dc 4C535543 		.ascii	"LSUCNT\000"
 1065      4E5400
 1066              	.LASF33:
 1067 02e3 4C4F4144 		.ascii	"LOAD\000"
 1067      00
 1068              	.LASF38:
 1069 02e8 52455345 		.ascii	"RESERVED\000"
 1069      52564544 
 1069      00
 1070              	.LASF40:
 1071 02f1 464C4153 		.ascii	"FLASH_TypeDef\000"
 1071      485F5479 
 1071      70654465 
 1071      6600
 1072              	.LASF58:
 1073 02ff 49544D5F 		.ascii	"ITM_RxBuffer\000"
ARM GAS  /tmp/ccJsKfuL.s 			page 22


 1073      52784275 
 1073      66666572 
 1073      00
 1074              		.ident	"GCC: (4.8.3-18ubuntu2+12) 4.8.3"
ARM GAS  /tmp/ccJsKfuL.s 			page 23


DEFINED SYMBOLS
                            *ABS*:00000000 hal_lld.c
     /tmp/ccJsKfuL.s:19     .text.hal_lld_init:00000000 $t
     /tmp/ccJsKfuL.s:24     .text.hal_lld_init:00000000 hal_lld_init
     /tmp/ccJsKfuL.s:110    .text.hal_lld_init:00000058 $d
     /tmp/ccJsKfuL.s:119    .text.stm32_clock_init:00000000 $t
     /tmp/ccJsKfuL.s:124    .text.stm32_clock_init:00000000 stm32_clock_init
     /tmp/ccJsKfuL.s:218    .text.stm32_clock_init:0000007c $d
                     .debug_frame:00000010 $d

NO UNDEFINED SYMBOLS
