ARM GAS  /tmp/ccJsKfuL.s 			page 1


   1              		.syntax unified
   2              		.cpu cortex-m3
   3              		.fpu softvfp
   4              		.eabi_attribute 20, 1
   5              		.eabi_attribute 21, 1
   6              		.eabi_attribute 23, 3
   7              		.eabi_attribute 24, 1
   8              		.eabi_attribute 25, 1
   9              		.eabi_attribute 26, 1
  10              		.eabi_attribute 30, 2
  11              		.eabi_attribute 34, 1
  12              		.eabi_attribute 18, 4
  13              		.thumb
  14              		.file	"hal_lld.c"
  15              		.text
  16              	.Ltext0:
  17              		.cfi_sections	.debug_frame
  18              		.section	.text.hal_lld_init,"ax",%progbits
  19              		.align	2
  20              		.global	hal_lld_init
  21              		.thumb
  22              		.thumb_func
  23              		.type	hal_lld_init, %function
  24              	hal_lld_init:
  25              	.LFB64:
  26              		.file 1 "../../os/hal/platforms/STM32F1xx/hal_lld.c"
  27              		.loc 1 99 0
  28              		.cfi_startproc
  29              		@ args = 0, pretend = 0, frame = 0
  30              		@ frame_needed = 0, uses_anonymous_args = 0
  31              		@ link register save eliminated.
  32              		.loc 1 102 0
  33 0000 154B     		ldr	r3, .L2
  34              		.loc 1 99 0
  35 0002 F0B4     		push	{r4, r5, r6, r7}
  36              		.cfi_def_cfa_offset 16
  37              		.cfi_offset 4, -16
  38              		.cfi_offset 5, -12
  39              		.cfi_offset 6, -8
  40              		.cfi_offset 7, -4
  41              		.loc 1 102 0
  42 0004 0021     		movs	r1, #0
  43              		.loc 1 106 0
  44 0006 154A     		ldr	r2, .L2+4
  45              		.loc 1 102 0
  46 0008 4FF0FF34 		mov	r4, #-1
  47 000c 1869     		ldr	r0, [r3, #16]
  48              		.loc 1 106 0
  49 000e 45F6BF56 		movw	r6, #23999
  50              		.loc 1 102 0
  51 0012 1C61     		str	r4, [r3, #16]
  52              		.loc 1 113 0
  53 0014 1248     		ldr	r0, .L2+8
  54              		.loc 1 102 0
  55 0016 1961     		str	r1, [r3, #16]
  56              		.loc 1 108 0
  57 0018 0725     		movs	r5, #7
ARM GAS  /tmp/ccJsKfuL.s 			page 2


  58              		.loc 1 103 0
  59 001a DF68     		ldr	r7, [r3, #12]
  60 001c DC60     		str	r4, [r3, #12]
  61 001e D960     		str	r1, [r3, #12]
  62              		.loc 1 106 0
  63 0020 5660     		str	r6, [r2, #4]
  64              		.loc 1 107 0
  65 0022 9160     		str	r1, [r2, #8]
  66              		.loc 1 108 0
  67 0024 1560     		str	r5, [r2]
  68              		.loc 1 113 0
  69 0026 C268     		ldr	r2, [r0, #12]
  70              		.loc 1 114 0
  71 0028 0E49     		ldr	r1, .L2+12
  72              		.loc 1 113 0
  73 002a 42F08072 		orr	r2, r2, #16777216
  74 002e C260     		str	r2, [r0, #12]
  75              		.loc 1 114 0
  76 0030 0868     		ldr	r0, [r1]
  77              	.LBB4:
  78              	.LBB5:
  79              		.loc 1 52 0
  80 0032 0D4A     		ldr	r2, .L2+16
  81              	.LBE5:
  82              	.LBE4:
  83              		.loc 1 114 0
  84 0034 40F00100 		orr	r0, r0, #1
  85 0038 0860     		str	r0, [r1]
  86              		.loc 1 117 0
  87 003a D969     		ldr	r1, [r3, #28]
  88              		.loc 1 131 0
  89 003c F0BC     		pop	{r4, r5, r6, r7}
  90              		.loc 1 117 0
  91 003e 41F08051 		orr	r1, r1, #268435456
  92 0042 D961     		str	r1, [r3, #28]
  93              		.loc 1 118 0
  94 0044 D969     		ldr	r1, [r3, #28]
  95 0046 41F00061 		orr	r1, r1, #134217728
  96 004a D961     		str	r1, [r3, #28]
  97              	.LBB7:
  98              	.LBB6:
  99              		.loc 1 52 0
 100 004c 1368     		ldr	r3, [r2]
 101 004e 43F48073 		orr	r3, r3, #256
 102 0052 1360     		str	r3, [r2]
 103              	.LBE6:
 104              	.LBE7:
 105              		.loc 1 131 0
 106 0054 7047     		bx	lr
 107              	.L3:
 108 0056 00BF     		.align	2
 109              	.L2:
 110 0058 00100240 		.word	1073876992
 111 005c 10E000E0 		.word	-536813552
 112 0060 F0ED00E0 		.word	-536810000
 113 0064 001000E0 		.word	-536866816
 114 0068 00700040 		.word	1073770496
ARM GAS  /tmp/ccJsKfuL.s 			page 3


 115              		.cfi_endproc
 116              	.LFE64:
 117              		.size	hal_lld_init, .-hal_lld_init
 118              		.section	.text.stm32_clock_init,"ax",%progbits
 119              		.align	2
 120              		.global	stm32_clock_init
 121              		.thumb
 122              		.thumb_func
 123              		.type	stm32_clock_init, %function
 124              	stm32_clock_init:
 125              	.LFB65:
 126              		.loc 1 147 0
 127              		.cfi_startproc
 128              		@ args = 0, pretend = 0, frame = 0
 129              		@ frame_needed = 0, uses_anonymous_args = 0
 130              		@ link register save eliminated.
 131              		.loc 1 152 0
 132 0000 1E4B     		ldr	r3, .L16
 133 0002 1A68     		ldr	r2, [r3]
 134              		.loc 1 153 0
 135 0004 1946     		mov	r1, r3
 136              		.loc 1 152 0
 137 0006 42F00102 		orr	r2, r2, #1
 138 000a 1A60     		str	r2, [r3]
 139              	.L6:
 140              		.loc 1 153 0 discriminator 1
 141 000c 0B68     		ldr	r3, [r1]
 142 000e 1B4A     		ldr	r2, .L16
 143 0010 9B07     		lsls	r3, r3, #30
 144 0012 FBD5     		bpl	.L6
 145              		.loc 1 155 0
 146 0014 1168     		ldr	r1, [r2]
 147              		.loc 1 156 0
 148 0016 0023     		movs	r3, #0
 149              		.loc 1 155 0
 150 0018 01F0F901 		and	r1, r1, #249
 151 001c 1160     		str	r1, [r2]
 152              		.loc 1 157 0
 153 001e 1146     		mov	r1, r2
 154              		.loc 1 156 0
 155 0020 5360     		str	r3, [r2, #4]
 156              	.L8:
 157              		.loc 1 157 0 discriminator 1
 158 0022 4B68     		ldr	r3, [r1, #4]
 159 0024 154A     		ldr	r2, .L16
 160 0026 13F00C0F 		tst	r3, #12
 161 002a FAD1     		bne	.L8
 162              		.loc 1 166 0
 163 002c 1368     		ldr	r3, [r2]
 164              		.loc 1 167 0
 165 002e 1146     		mov	r1, r2
 166              		.loc 1 166 0
 167 0030 43F48033 		orr	r3, r3, #65536
 168 0034 1360     		str	r3, [r2]
 169              	.L10:
 170              		.loc 1 167 0 discriminator 1
 171 0036 0B68     		ldr	r3, [r1]
ARM GAS  /tmp/ccJsKfuL.s 			page 4


 172 0038 104A     		ldr	r2, .L16
 173 003a 9803     		lsls	r0, r3, #14
 174 003c FBD5     		bpl	.L10
 175              		.loc 1 180 0
 176 003e 5368     		ldr	r3, [r2, #4]
 177              		.loc 1 182 0
 178 0040 1146     		mov	r1, r2
 179              		.loc 1 180 0
 180 0042 43F4A023 		orr	r3, r3, #327680
 181 0046 5360     		str	r3, [r2, #4]
 182              		.loc 1 181 0
 183 0048 1368     		ldr	r3, [r2]
 184 004a 43F08073 		orr	r3, r3, #16777216
 185 004e 1360     		str	r3, [r2]
 186              	.L12:
 187              		.loc 1 182 0 discriminator 1
 188 0050 0B68     		ldr	r3, [r1]
 189 0052 0A4A     		ldr	r2, .L16
 190 0054 9B01     		lsls	r3, r3, #6
 191 0056 FBD5     		bpl	.L12
 192              		.loc 1 198 0
 193 0058 094B     		ldr	r3, .L16+4
 194 005a 1021     		movs	r1, #16
 195              		.loc 1 192 0
 196 005c 4FF4A020 		mov	r0, #327680
 197 0060 5060     		str	r0, [r2, #4]
 198              		.loc 1 198 0
 199 0062 1960     		str	r1, [r3]
 200              		.loc 1 203 0
 201 0064 5368     		ldr	r3, [r2, #4]
 202              		.loc 1 204 0
 203 0066 1146     		mov	r1, r2
 204              		.loc 1 203 0
 205 0068 43F00203 		orr	r3, r3, #2
 206 006c 5360     		str	r3, [r2, #4]
 207              	.L14:
 208              		.loc 1 204 0 discriminator 1
 209 006e 4B68     		ldr	r3, [r1, #4]
 210 0070 03F00C03 		and	r3, r3, #12
 211 0074 082B     		cmp	r3, #8
 212 0076 FAD1     		bne	.L14
 213              		.loc 1 212 0
 214 0078 7047     		bx	lr
 215              	.L17:
 216 007a 00BF     		.align	2
 217              	.L16:
 218 007c 00100240 		.word	1073876992
 219 0080 00200240 		.word	1073881088
 220              		.cfi_endproc
 221              	.LFE65:
 222              		.size	stm32_clock_init, .-stm32_clock_init
 223              		.text
 224              	.Letext0:
 225              		.file 2 "/usr/include/newlib/machine/_default_types.h"
 226              		.file 3 "/usr/include/newlib/stdint.h"
 227              		.file 4 "../../os/ports/common/ARMCMx/nvic.h"
 228              		.file 5 "../../os/ports/common/ARMCMx/CMSIS/include/core_cm3.h"
ARM GAS  /tmp/ccJsKfuL.s 			page 5


 229              		.file 6 "../../os/hal/platforms/STM32F1xx/stm32f10x.h"