ARM GAS  /tmp/cc9INjUq.s 			page 1


   1              		.syntax unified
   2              		.cpu cortex-m3
   3              		.fpu softvfp
   4              		.eabi_attribute 20, 1
   5              		.eabi_attribute 21, 1
   6              		.eabi_attribute 23, 3
   7              		.eabi_attribute 24, 1
   8              		.eabi_attribute 25, 1
   9              		.eabi_attribute 26, 1
  10              		.eabi_attribute 30, 2
  11              		.eabi_attribute 34, 1
  12              		.eabi_attribute 18, 4
  13              		.thumb
  14              		.file	"memstreams.c"
  15              		.text
  16              	.Ltext0:
  17              		.cfi_sections	.debug_frame
  18              		.section	.text.put,"ax",%progbits
  19              		.align	2
  20              		.thumb
  21              		.thumb_func
  22              		.type	put, %function
  23              	put:
  24              	.LFB9:
  25              		.file 1 "../../os/various/memstreams.c"
  26              		.loc 1 66 0
  27              		.cfi_startproc
  28              		@ args = 0, pretend = 0, frame = 0
  29              		@ frame_needed = 0, uses_anonymous_args = 0
  30              		@ link register save eliminated.
  31              	.LVL0:
  32              		.loc 1 69 0
  33 0000 C268     		ldr	r2, [r0, #12]
  34              		.loc 1 66 0
  35 0002 0346     		mov	r3, r0
  36              	.LVL1:
  37              		.loc 1 69 0
  38 0004 8068     		ldr	r0, [r0, #8]
  39              	.LVL2:
  40              		.loc 1 66 0
  41 0006 10B4     		push	{r4}
  42              		.cfi_def_cfa_offset 4
  43              		.cfi_offset 4, -4
  44              		.loc 1 69 0
  45 0008 9042     		cmp	r0, r2
  46 000a 08D0     		beq	.L3
  47              		.loc 1 71 0
  48 000c 5C68     		ldr	r4, [r3, #4]
  49              		.loc 1 73 0
  50 000e 0020     		movs	r0, #0
  51              		.loc 1 71 0
  52 0010 A154     		strb	r1, [r4, r2]
  53              		.loc 1 72 0
  54 0012 DA68     		ldr	r2, [r3, #12]
  55 0014 0132     		adds	r2, r2, #1
  56 0016 DA60     		str	r2, [r3, #12]
  57              	.L2:
ARM GAS  /tmp/cc9INjUq.s 			page 2


  58              		.loc 1 74 0
  59 0018 5DF8044B 		ldr	r4, [sp], #4
  60 001c 7047     		bx	lr
  61              	.L3:
  62              		.loc 1 70 0
  63 001e 6FF00100 		mvn	r0, #1
  64 0022 F9E7     		b	.L2
  65              		.cfi_endproc
  66              	.LFE9:
  67              		.size	put, .-put
  68              		.section	.text.get,"ax",%progbits
  69              		.align	2
  70              		.thumb
  71              		.thumb_func
  72              		.type	get, %function
  73              	get:
  74              	.LFB10:
  75              		.loc 1 76 0
  76              		.cfi_startproc
  77              		@ args = 0, pretend = 0, frame = 0
  78              		@ frame_needed = 0, uses_anonymous_args = 0
  79              		@ link register save eliminated.
  80              	.LVL3:
  81              		.loc 1 80 0
  82 0000 0369     		ldr	r3, [r0, #16]
  83 0002 C268     		ldr	r2, [r0, #12]
  84 0004 9A42     		cmp	r2, r3
  85 0006 05D0     		beq	.L7
  86              		.loc 1 82 0
  87 0008 4268     		ldr	r2, [r0, #4]
  88              		.loc 1 83 0
  89 000a 591C     		adds	r1, r3, #1
  90              		.loc 1 82 0
  91 000c D35C     		ldrb	r3, [r2, r3]	@ zero_extendqisi2
  92              	.LVL4:
  93              		.loc 1 83 0
  94 000e 0161     		str	r1, [r0, #16]
  95              	.LVL5:
  96              		.loc 1 84 0
  97 0010 1846     		mov	r0, r3
  98              	.LVL6:
  99 0012 7047     		bx	lr
 100              	.LVL7:
 101              	.L7:
 102              		.loc 1 81 0
 103 0014 6FF00100 		mvn	r0, #1
 104              	.LVL8:
 105              		.loc 1 85 0
 106 0018 7047     		bx	lr
 107              		.cfi_endproc
 108              	.LFE10:
 109              		.size	get, .-get
 110 001a 00BF     		.section	.text.reads,"ax",%progbits
 111              		.align	2
 112              		.thumb
 113              		.thumb_func
 114              		.type	reads, %function
ARM GAS  /tmp/cc9INjUq.s 			page 3


 115              	reads:
 116              	.LFB8:
 117              		.loc 1 56 0
 118              		.cfi_startproc
 119              		@ args = 0, pretend = 0, frame = 0
 120              		@ frame_needed = 0, uses_anonymous_args = 0
 121              	.LVL9:
 122 0000 70B5     		push	{r4, r5, r6, lr}
 123              		.cfi_def_cfa_offset 16
 124              		.cfi_offset 4, -16
 125              		.cfi_offset 5, -12
 126              		.cfi_offset 6, -8
 127              		.cfi_offset 14, -4
 128              		.loc 1 59 0
 129 0002 0369     		ldr	r3, [r0, #16]
 130 0004 C568     		ldr	r5, [r0, #12]
 131              		.loc 1 61 0
 132 0006 4668     		ldr	r6, [r0, #4]
 133              		.loc 1 59 0
 134 0008 ED1A     		subs	r5, r5, r3
 135 000a AA42     		cmp	r2, r5
 136 000c 38BF     		it	cc
 137 000e 1546     		movcc	r5, r2
 138              		.loc 1 56 0
 139 0010 0446     		mov	r4, r0
 140              	.LVL10:
 141              		.loc 1 61 0
 142 0012 2A46     		mov	r2, r5
 143 0014 0846     		mov	r0, r1
 144              	.LVL11:
 145 0016 F118     		adds	r1, r6, r3
 146              	.LVL12:
 147 0018 FFF7FEFF 		bl	memcpy
 148              	.LVL13:
 149              		.loc 1 62 0
 150 001c 2369     		ldr	r3, [r4, #16]
 151              		.loc 1 64 0
 152 001e 2846     		mov	r0, r5
 153              		.loc 1 62 0
 154 0020 1D44     		add	r5, r5, r3
 155              	.LVL14:
 156 0022 2561     		str	r5, [r4, #16]
 157              		.loc 1 64 0
 158 0024 70BD     		pop	{r4, r5, r6, pc}
 159              		.cfi_endproc
 160              	.LFE8:
 161              		.size	reads, .-reads
 162 0026 00BF     		.section	.text.writes,"ax",%progbits
 163              		.align	2
 164              		.thumb
 165              		.thumb_func
 166              		.type	writes, %function
 167              	writes:
 168              	.LFB7:
 169              		.loc 1 46 0
 170              		.cfi_startproc
 171              		@ args = 0, pretend = 0, frame = 0
ARM GAS  /tmp/cc9INjUq.s 			page 4


 172              		@ frame_needed = 0, uses_anonymous_args = 0
 173              	.LVL15:
 174 0000 38B5     		push	{r3, r4, r5, lr}
 175              		.cfi_def_cfa_offset 16
 176              		.cfi_offset 3, -16
 177              		.cfi_offset 4, -12
 178              		.cfi_offset 5, -8
 179              		.cfi_offset 14, -4
 180              		.loc 1 49 0
 181 0002 C368     		ldr	r3, [r0, #12]
 182 0004 8568     		ldr	r5, [r0, #8]
 183              		.loc 1 46 0
 184 0006 0446     		mov	r4, r0
 185              	.LVL16:
 186              		.loc 1 49 0
 187 0008 ED1A     		subs	r5, r5, r3
 188              		.loc 1 51 0
 189 000a 4068     		ldr	r0, [r0, #4]
 190              	.LVL17:
 191 000c AA42     		cmp	r2, r5
 192 000e 38BF     		it	cc
 193 0010 1546     		movcc	r5, r2
 194              	.LVL18:
 195 0012 2A46     		mov	r2, r5
 196 0014 1844     		add	r0, r0, r3
 197 0016 FFF7FEFF 		bl	memcpy
 198              	.LVL19:
 199              		.loc 1 52 0
 200 001a E368     		ldr	r3, [r4, #12]
 201              		.loc 1 54 0
 202 001c 2846     		mov	r0, r5
 203              		.loc 1 52 0
 204 001e 1D44     		add	r5, r5, r3
 205              	.LVL20:
 206 0020 E560     		str	r5, [r4, #12]
 207              		.loc 1 54 0
 208 0022 38BD     		pop	{r3, r4, r5, pc}
 209              		.cfi_endproc
 210              	.LFE7:
 211              		.size	writes, .-writes
 212              		.section	.text.msObjectInit,"ax",%progbits
 213              		.align	2
 214              		.global	msObjectInit
 215              		.thumb
 216              		.thumb_func
 217              		.type	msObjectInit, %function
 218              	msObjectInit:
 219              	.LFB11:
 220              		.loc 1 104 0
 221              		.cfi_startproc
 222              		@ args = 0, pretend = 0, frame = 0
 223              		@ frame_needed = 0, uses_anonymous_args = 0
 224              		@ link register save eliminated.
 225              	.LVL21:
 226 0000 30B4     		push	{r4, r5}
 227              		.cfi_def_cfa_offset 8
 228              		.cfi_offset 4, -8
ARM GAS  /tmp/cc9INjUq.s 			page 5


 229              		.cfi_offset 5, -4
 230              		.loc 1 106 0
 231 0002 044C     		ldr	r4, .L11
 232              		.loc 1 110 0
 233 0004 0025     		movs	r5, #0
 234              		.loc 1 106 0
 235 0006 0460     		str	r4, [r0]
 236              		.loc 1 110 0
 237 0008 0561     		str	r5, [r0, #16]
 238              		.loc 1 107 0
 239 000a 4160     		str	r1, [r0, #4]
 240              		.loc 1 108 0
 241 000c 8260     		str	r2, [r0, #8]
 242              		.loc 1 109 0
 243 000e C360     		str	r3, [r0, #12]
 244              		.loc 1 111 0
 245 0010 30BC     		pop	{r4, r5}
 246 0012 7047     		bx	lr
 247              	.L12:
 248              		.align	2
 249              	.L11:
 250 0014 00000000 		.word	.LANCHOR0
 251              		.cfi_endproc
 252              	.LFE11:
 253              		.size	msObjectInit, .-msObjectInit
 254              		.section	.rodata.vmt,"a",%progbits
 255              		.align	2
 256              		.set	.LANCHOR0,. + 0
 257              		.type	vmt, %object
 258              		.size	vmt, 16
 259              	vmt:
 260 0000 00000000 		.word	writes
 261 0004 00000000 		.word	reads
 262 0008 00000000 		.word	put
 263 000c 00000000 		.word	get
 264              		.text
 265              	.Letext0:
 266              		.file 2 "/usr/lib/gcc/arm-none-eabi/4.8/include/stddef.h"
 267              		.file 3 "/usr/include/newlib/machine/_default_types.h"
 268              		.file 4 "/usr/include/newlib/stdint.h"
 269              		.file 5 "../../os/ports/GCC/ARMCMx/chtypes.h"
 270              		.file 6 "../../os/various/memstreams.h"