ARM GAS  /tmp/cc9INjUq.s 			page 1


   1              		.syntax unified
   2              		.cpu cortex-m3
   3              		.fpu softvfp
   4              		.eabi_attribute 20, 1
   5              		.eabi_attribute 21, 1
   6              		.eabi_attribute 23, 3
   7              		.eabi_attribute 24, 1
   8              		.eabi_attribute 25, 1
   9              		.eabi_attribute 26, 1
  10              		.eabi_attribute 30, 2
  11              		.eabi_attribute 34, 1
  12              		.eabi_attribute 18, 4
  13              		.thumb
  14              		.file	"memstreams.c"
  15              		.text
  16              	.Ltext0:
  17              		.cfi_sections	.debug_frame
  18              		.section	.text.put,"ax",%progbits
  19              		.align	2
  20              		.thumb
  21              		.thumb_func
  22              		.type	put, %function
  23              	put:
  24              	.LFB9:
  25              		.file 1 "../../os/various/memstreams.c"
  26              		.loc 1 66 0
  27              		.cfi_startproc
  28              		@ args = 0, pretend = 0, frame = 0
  29              		@ frame_needed = 0, uses_anonymous_args = 0
  30              		@ link register save eliminated.
  31              	.LVL0:
  32              		.loc 1 69 0
  33 0000 C268     		ldr	r2, [r0, #12]
  34              		.loc 1 66 0
  35 0002 0346     		mov	r3, r0
  36              	.LVL1:
  37              		.loc 1 69 0
  38 0004 8068     		ldr	r0, [r0, #8]
  39              	.LVL2:
  40              		.loc 1 66 0
  41 0006 10B4     		push	{r4}
  42              		.cfi_def_cfa_offset 4
  43              		.cfi_offset 4, -4
  44              		.loc 1 69 0
  45 0008 9042     		cmp	r0, r2
  46 000a 08D0     		beq	.L3
  47              		.loc 1 71 0
  48 000c 5C68     		ldr	r4, [r3, #4]
  49              		.loc 1 73 0
  50 000e 0020     		movs	r0, #0
  51              		.loc 1 71 0
  52 0010 A154     		strb	r1, [r4, r2]
  53              		.loc 1 72 0
  54 0012 DA68     		ldr	r2, [r3, #12]
  55 0014 0132     		adds	r2, r2, #1
  56 0016 DA60     		str	r2, [r3, #12]
  57              	.L2:
ARM GAS  /tmp/cc9INjUq.s 			page 2


  58              		.loc 1 74 0
  59 0018 5DF8044B 		ldr	r4, [sp], #4
  60 001c 7047     		bx	lr
  61              	.L3:
  62              		.loc 1 70 0
  63 001e 6FF00100 		mvn	r0, #1
  64 0022 F9E7     		b	.L2
  65              		.cfi_endproc
  66              	.LFE9:
  67              		.size	put, .-put
  68              		.section	.text.get,"ax",%progbits
  69              		.align	2
  70              		.thumb
  71              		.thumb_func
  72              		.type	get, %function
  73              	get:
  74              	.LFB10:
  75              		.loc 1 76 0
  76              		.cfi_startproc
  77              		@ args = 0, pretend = 0, frame = 0
  78              		@ frame_needed = 0, uses_anonymous_args = 0
  79              		@ link register save eliminated.
  80              	.LVL3:
  81              		.loc 1 80 0
  82 0000 0369     		ldr	r3, [r0, #16]
  83 0002 C268     		ldr	r2, [r0, #12]
  84 0004 9A42     		cmp	r2, r3
  85 0006 05D0     		beq	.L7
  86              		.loc 1 82 0
  87 0008 4268     		ldr	r2, [r0, #4]
  88              		.loc 1 83 0
  89 000a 591C     		adds	r1, r3, #1
  90              		.loc 1 82 0
  91 000c D35C     		ldrb	r3, [r2, r3]	@ zero_extendqisi2
  92              	.LVL4:
  93              		.loc 1 83 0
  94 000e 0161     		str	r1, [r0, #16]
  95              	.LVL5:
  96              		.loc 1 84 0
  97 0010 1846     		mov	r0, r3
  98              	.LVL6:
  99 0012 7047     		bx	lr
 100              	.LVL7:
 101              	.L7:
 102              		.loc 1 81 0
 103 0014 6FF00100 		mvn	r0, #1
 104              	.LVL8:
 105              		.loc 1 85 0
 106 0018 7047     		bx	lr
 107              		.cfi_endproc
 108              	.LFE10:
 109              		.size	get, .-get
 110 001a 00BF     		.section	.text.reads,"ax",%progbits
 111              		.align	2
 112              		.thumb
 113              		.thumb_func
 114              		.type	reads, %function
ARM GAS  /tmp/cc9INjUq.s 			page 3


 115              	reads:
 116              	.LFB8:
 117              		.loc 1 56 0
 118              		.cfi_startproc
 119              		@ args = 0, pretend = 0, frame = 0
 120              		@ frame_needed = 0, uses_anonymous_args = 0
 121              	.LVL9:
 122 0000 70B5     		push	{r4, r5, r6, lr}
 123              		.cfi_def_cfa_offset 16
 124              		.cfi_offset 4, -16
 125              		.cfi_offset 5, -12
 126              		.cfi_offset 6, -8
 127              		.cfi_offset 14, -4
 128              		.loc 1 59 0
 129 0002 0369     		ldr	r3, [r0, #16]
 130 0004 C568     		ldr	r5, [r0, #12]
 131              		.loc 1 61 0
 132 0006 4668     		ldr	r6, [r0, #4]
 133              		.loc 1 59 0
 134 0008 ED1A     		subs	r5, r5, r3
 135 000a AA42     		cmp	r2, r5
 136 000c 38BF     		it	cc
 137 000e 1546     		movcc	r5, r2
 138              		.loc 1 56 0
 139 0010 0446     		mov	r4, r0
 140              	.LVL10:
 141              		.loc 1 61 0
 142 0012 2A46     		mov	r2, r5
 143 0014 0846     		mov	r0, r1
 144              	.LVL11:
 145 0016 F118     		adds	r1, r6, r3
 146              	.LVL12:
 147 0018 FFF7FEFF 		bl	memcpy
 148              	.LVL13:
 149              		.loc 1 62 0
 150 001c 2369     		ldr	r3, [r4, #16]
 151              		.loc 1 64 0
 152 001e 2846     		mov	r0, r5
 153              		.loc 1 62 0
 154 0020 1D44     		add	r5, r5, r3
 155              	.LVL14:
 156 0022 2561     		str	r5, [r4, #16]
 157              		.loc 1 64 0
 158 0024 70BD     		pop	{r4, r5, r6, pc}
 159              		.cfi_endproc
 160              	.LFE8:
 161              		.size	reads, .-reads
 162 0026 00BF     		.section	.text.writes,"ax",%progbits
 163              		.align	2
 164              		.thumb
 165              		.thumb_func
 166              		.type	writes, %function
 167              	writes:
 168              	.LFB7:
 169              		.loc 1 46 0
 170              		.cfi_startproc
 171              		@ args = 0, pretend = 0, frame = 0
ARM GAS  /tmp/cc9INjUq.s 			page 4


 172              		@ frame_needed = 0, uses_anonymous_args = 0
 173              	.LVL15:
 174 0000 38B5     		push	{r3, r4, r5, lr}
 175              		.cfi_def_cfa_offset 16
 176              		.cfi_offset 3, -16
 177              		.cfi_offset 4, -12
 178              		.cfi_offset 5, -8
 179              		.cfi_offset 14, -4
 180              		.loc 1 49 0
 181 0002 C368     		ldr	r3, [r0, #12]
 182 0004 8568     		ldr	r5, [r0, #8]
 183              		.loc 1 46 0
 184 0006 0446     		mov	r4, r0
 185              	.LVL16:
 186              		.loc 1 49 0
 187 0008 ED1A     		subs	r5, r5, r3
 188              		.loc 1 51 0
 189 000a 4068     		ldr	r0, [r0, #4]
 190              	.LVL17:
 191 000c AA42     		cmp	r2, r5
 192 000e 38BF     		it	cc
 193 0010 1546     		movcc	r5, r2
 194              	.LVL18:
 195 0012 2A46     		mov	r2, r5
 196 0014 1844     		add	r0, r0, r3
 197 0016 FFF7FEFF 		bl	memcpy
 198              	.LVL19:
 199              		.loc 1 52 0
 200 001a E368     		ldr	r3, [r4, #12]
 201              		.loc 1 54 0
 202 001c 2846     		mov	r0, r5
 203              		.loc 1 52 0
 204 001e 1D44     		add	r5, r5, r3
 205              	.LVL20:
 206 0020 E560     		str	r5, [r4, #12]
 207              		.loc 1 54 0
 208 0022 38BD     		pop	{r3, r4, r5, pc}
 209              		.cfi_endproc
 210              	.LFE7:
 211              		.size	writes, .-writes
 212              		.section	.text.msObjectInit,"ax",%progbits
 213              		.align	2
 214              		.global	msObjectInit
 215              		.thumb
 216              		.thumb_func
 217              		.type	msObjectInit, %function
 218              	msObjectInit:
 219              	.LFB11:
 220              		.loc 1 104 0
 221              		.cfi_startproc
 222              		@ args = 0, pretend = 0, frame = 0
 223              		@ frame_needed = 0, uses_anonymous_args = 0
 224              		@ link register save eliminated.
 225              	.LVL21:
 226 0000 30B4     		push	{r4, r5}
 227              		.cfi_def_cfa_offset 8
 228              		.cfi_offset 4, -8
ARM GAS  /tmp/cc9INjUq.s 			page 5


 229              		.cfi_offset 5, -4
 230              		.loc 1 106 0
 231 0002 044C     		ldr	r4, .L11
 232              		.loc 1 110 0
 233 0004 0025     		movs	r5, #0
 234              		.loc 1 106 0
 235 0006 0460     		str	r4, [r0]
 236              		.loc 1 110 0
 237 0008 0561     		str	r5, [r0, #16]
 238              		.loc 1 107 0
 239 000a 4160     		str	r1, [r0, #4]
 240              		.loc 1 108 0
 241 000c 8260     		str	r2, [r0, #8]
 242              		.loc 1 109 0
 243 000e C360     		str	r3, [r0, #12]
 244              		.loc 1 111 0
 245 0010 30BC     		pop	{r4, r5}
 246 0012 7047     		bx	lr
 247              	.L12:
 248              		.align	2
 249              	.L11:
 250 0014 00000000 		.word	.LANCHOR0
 251              		.cfi_endproc
 252              	.LFE11:
 253              		.size	msObjectInit, .-msObjectInit
 254              		.section	.rodata.vmt,"a",%progbits
 255              		.align	2
 256              		.set	.LANCHOR0,. + 0
 257              		.type	vmt, %object
 258              		.size	vmt, 16
 259              	vmt:
 260 0000 00000000 		.word	writes
 261 0004 00000000 		.word	reads
 262 0008 00000000 		.word	put
 263 000c 00000000 		.word	get
 264              		.text
 265              	.Letext0:
 266              		.file 2 "/usr/lib/gcc/arm-none-eabi/4.8/include/stddef.h"
 267              		.file 3 "/usr/include/newlib/machine/_default_types.h"
 268              		.file 4 "/usr/include/newlib/stdint.h"
 269              		.file 5 "../../os/ports/GCC/ARMCMx/chtypes.h"
 270              		.file 6 "../../os/various/memstreams.h"
 271              		.section	.debug_info,"",%progbits
 272              	.Ldebug_info0:
 273 0000 B4030000 		.4byte	0x3b4
 274 0004 0400     		.2byte	0x4
 275 0006 00000000 		.4byte	.Ldebug_abbrev0
 276 000a 04       		.byte	0x4
 277 000b 01       		.uleb128 0x1
 278 000c 39010000 		.4byte	.LASF26
 279 0010 01       		.byte	0x1
 280 0011 7A000000 		.4byte	.LASF27
 281 0015 98000000 		.4byte	.LASF28
 282 0019 00000000 		.4byte	.Ldebug_ranges0+0
 283 001d 00000000 		.4byte	0
 284 0021 00000000 		.4byte	.Ldebug_line0
 285 0025 02       		.uleb128 0x2
ARM GAS  /tmp/cc9INjUq.s 			page 6


 286 0026 04       		.byte	0x4
 287 0027 05       		.byte	0x5
 288 0028 696E7400 		.ascii	"int\000"
 289 002c 03       		.uleb128 0x3
 290 002d 0A000000 		.4byte	.LASF2
 291 0031 02       		.byte	0x2
 292 0032 D4       		.byte	0xd4
 293 0033 37000000 		.4byte	0x37
 294 0037 04       		.uleb128 0x4
 295 0038 04       		.byte	0x4
 296 0039 07       		.byte	0x7
 297 003a E8000000 		.4byte	.LASF0
 298 003e 04       		.uleb128 0x4
 299 003f 01       		.byte	0x1
 300 0040 06       		.byte	0x6
 301 0041 22000000 		.4byte	.LASF1
 302 0045 03       		.uleb128 0x3
 303 0046 00000000 		.4byte	.LASF3
 304 004a 03       		.byte	0x3
 305 004b 1D       		.byte	0x1d
 306 004c 50000000 		.4byte	0x50
 307 0050 04       		.uleb128 0x4
 308 0051 01       		.byte	0x1
 309 0052 08       		.byte	0x8
 310 0053 5A000000 		.4byte	.LASF4
 311 0057 04       		.uleb128 0x4
 312 0058 02       		.byte	0x2
 313 0059 05       		.byte	0x5
 314 005a CD010000 		.4byte	.LASF5
 315 005e 04       		.uleb128 0x4
 316 005f 02       		.byte	0x2
 317 0060 07       		.byte	0x7
 318 0061 34000000 		.4byte	.LASF6
 319 0065 03       		.uleb128 0x3
 320 0066 11000000 		.4byte	.LASF7
 321 006a 03       		.byte	0x3
 322 006b 3F       		.byte	0x3f
 323 006c 70000000 		.4byte	0x70
 324 0070 04       		.uleb128 0x4
 325 0071 04       		.byte	0x4
 326 0072 05       		.byte	0x5
 327 0073 E5010000 		.4byte	.LASF8
 328 0077 04       		.uleb128 0x4
 329 0078 04       		.byte	0x4
 330 0079 07       		.byte	0x7
 331 007a D6000000 		.4byte	.LASF9
 332 007e 04       		.uleb128 0x4
 333 007f 08       		.byte	0x8
 334 0080 05       		.byte	0x5
 335 0081 2B010000 		.4byte	.LASF10
 336 0085 04       		.uleb128 0x4
 337 0086 08       		.byte	0x8
 338 0087 07       		.byte	0x7
 339 0088 F5000000 		.4byte	.LASF11
 340 008c 04       		.uleb128 0x4
 341 008d 04       		.byte	0x4
 342 008e 07       		.byte	0x7
ARM GAS  /tmp/cc9INjUq.s 			page 7


 343 008f 22010000 		.4byte	.LASF12
 344 0093 05       		.uleb128 0x5
 345 0094 04       		.byte	0x4
 346 0095 04       		.uleb128 0x4
 347 0096 01       		.byte	0x1
 348 0097 08       		.byte	0x8
 349 0098 C1010000 		.4byte	.LASF13
 350 009c 03       		.uleb128 0x3
 351 009d 0C010000 		.4byte	.LASF14
 352 00a1 04       		.byte	0x4
 353 00a2 2A       		.byte	0x2a
 354 00a3 45000000 		.4byte	0x45
 355 00a7 03       		.uleb128 0x3
 356 00a8 1A010000 		.4byte	.LASF15
 357 00ac 04       		.byte	0x4
 358 00ad 41       		.byte	0x41
 359 00ae 65000000 		.4byte	0x65
 360 00b2 04       		.uleb128 0x4
 361 00b3 01       		.byte	0x1
 362 00b4 02       		.byte	0x2
 363 00b5 00020000 		.4byte	.LASF16
 364 00b9 03       		.uleb128 0x3
 365 00ba 14010000 		.4byte	.LASF17
 366 00be 05       		.byte	0x5
 367 00bf 31       		.byte	0x31
 368 00c0 A7000000 		.4byte	0xa7
 369 00c4 06       		.uleb128 0x6
 370 00c5 04       		.byte	0x4
 371 00c6 CA000000 		.4byte	0xca
 372 00ca 07       		.uleb128 0x7
 373 00cb B9000000 		.4byte	0xb9
 374 00cf D9000000 		.4byte	0xd9
 375 00d3 08       		.uleb128 0x8
 376 00d4 93000000 		.4byte	0x93
 377 00d8 00       		.byte	0
 378 00d9 06       		.uleb128 0x6
 379 00da 04       		.byte	0x4
 380 00db 9C000000 		.4byte	0x9c
 381 00df 07       		.uleb128 0x7
 382 00e0 2C000000 		.4byte	0x2c
 383 00e4 F8000000 		.4byte	0xf8
 384 00e8 08       		.uleb128 0x8
 385 00e9 93000000 		.4byte	0x93
 386 00ed 08       		.uleb128 0x8
 387 00ee F8000000 		.4byte	0xf8
 388 00f2 08       		.uleb128 0x8
 389 00f3 2C000000 		.4byte	0x2c
 390 00f7 00       		.byte	0
 391 00f8 06       		.uleb128 0x6
 392 00f9 04       		.byte	0x4
 393 00fa FE000000 		.4byte	0xfe
 394 00fe 09       		.uleb128 0x9
 395 00ff 9C000000 		.4byte	0x9c
 396 0103 06       		.uleb128 0x6
 397 0104 04       		.byte	0x4
 398 0105 DF000000 		.4byte	0xdf
 399 0109 07       		.uleb128 0x7
ARM GAS  /tmp/cc9INjUq.s 			page 8


 400 010a 2C000000 		.4byte	0x2c
 401 010e 22010000 		.4byte	0x122
 402 0112 08       		.uleb128 0x8
 403 0113 93000000 		.4byte	0x93
 404 0117 08       		.uleb128 0x8
 405 0118 D9000000 		.4byte	0xd9
 406 011c 08       		.uleb128 0x8
 407 011d 2C000000 		.4byte	0x2c
 408 0121 00       		.byte	0
 409 0122 06       		.uleb128 0x6
 410 0123 04       		.byte	0x4
 411 0124 09010000 		.4byte	0x109
 412 0128 07       		.uleb128 0x7
 413 0129 B9000000 		.4byte	0xb9
 414 012d 3C010000 		.4byte	0x13c
 415 0131 08       		.uleb128 0x8
 416 0132 93000000 		.4byte	0x93
 417 0136 08       		.uleb128 0x8
 418 0137 9C000000 		.4byte	0x9c
 419 013b 00       		.byte	0
 420 013c 06       		.uleb128 0x6
 421 013d 04       		.byte	0x4
 422 013e 28010000 		.4byte	0x128
 423 0142 0A       		.uleb128 0xa
 424 0143 4D000000 		.4byte	.LASF29
 425 0147 10       		.byte	0x10
 426 0148 06       		.byte	0x6
 427 0149 3D       		.byte	0x3d
 428 014a 7F010000 		.4byte	0x17f
 429 014e 0B       		.uleb128 0xb
 430 014f 47000000 		.4byte	.LASF18
 431 0153 06       		.byte	0x6
 432 0154 3E       		.byte	0x3e
 433 0155 03010000 		.4byte	0x103
 434 0159 00       		.byte	0
 435 015a 0B       		.uleb128 0xb
 436 015b 75000000 		.4byte	.LASF19
 437 015f 06       		.byte	0x6
 438 0160 3E       		.byte	0x3e
 439 0161 22010000 		.4byte	0x122
 440 0165 04       		.byte	0x4
 441 0166 0C       		.uleb128 0xc
 442 0167 70757400 		.ascii	"put\000"
 443 016b 06       		.byte	0x6
 444 016c 3E       		.byte	0x3e
 445 016d 3C010000 		.4byte	0x13c
 446 0171 08       		.byte	0x8
 447 0172 0C       		.uleb128 0xc
 448 0173 67657400 		.ascii	"get\000"
 449 0177 06       		.byte	0x6
 450 0178 3E       		.byte	0x3e
 451 0179 C4000000 		.4byte	0xc4
 452 017d 0C       		.byte	0xc
 453 017e 00       		.byte	0
 454 017f 0D       		.uleb128 0xd
 455 0180 14       		.byte	0x14
 456 0181 06       		.byte	0x6
ARM GAS  /tmp/cc9INjUq.s 			page 9


 457 0182 46       		.byte	0x46
 458 0183 C4010000 		.4byte	0x1c4
 459 0187 0C       		.uleb128 0xc
 460 0188 766D7400 		.ascii	"vmt\000"
 461 018c 06       		.byte	0x6
 462 018d 48       		.byte	0x48
 463 018e C4010000 		.4byte	0x1c4
 464 0192 00       		.byte	0
 465 0193 0B       		.uleb128 0xb
 466 0194 D7010000 		.4byte	.LASF20
 467 0198 06       		.byte	0x6
 468 0199 49       		.byte	0x49
 469 019a D9000000 		.4byte	0xd9
 470 019e 04       		.byte	0x4
 471 019f 0B       		.uleb128 0xb
 472 01a0 FB010000 		.4byte	.LASF21
 473 01a4 06       		.byte	0x6
 474 01a5 49       		.byte	0x49
 475 01a6 2C000000 		.4byte	0x2c
 476 01aa 08       		.byte	0x8
 477 01ab 0C       		.uleb128 0xc
 478 01ac 656F7300 		.ascii	"eos\000"
 479 01b0 06       		.byte	0x6
 480 01b1 49       		.byte	0x49
 481 01b2 2C000000 		.4byte	0x2c
 482 01b6 0C       		.byte	0xc
 483 01b7 0B       		.uleb128 0xb
 484 01b8 C6010000 		.4byte	.LASF22
 485 01bc 06       		.byte	0x6
 486 01bd 49       		.byte	0x49
 487 01be 2C000000 		.4byte	0x2c
 488 01c2 10       		.byte	0x10
 489 01c3 00       		.byte	0
 490 01c4 06       		.uleb128 0x6
 491 01c5 04       		.byte	0x4
 492 01c6 CA010000 		.4byte	0x1ca
 493 01ca 09       		.uleb128 0x9
 494 01cb 42010000 		.4byte	0x142
 495 01cf 03       		.uleb128 0x3
 496 01d0 EE010000 		.4byte	.LASF23
 497 01d4 06       		.byte	0x6
 498 01d5 4A       		.byte	0x4a
 499 01d6 7F010000 		.4byte	0x17f
 500 01da 0E       		.uleb128 0xe
 501 01db 70757400 		.ascii	"put\000"
 502 01df 01       		.byte	0x1
 503 01e0 42       		.byte	0x42
 504 01e1 B9000000 		.4byte	0xb9
 505 01e5 00000000 		.4byte	.LFB9
 506 01e9 24000000 		.4byte	.LFE9-.LFB9
 507 01ed 01       		.uleb128 0x1
 508 01ee 9C       		.byte	0x9c
 509 01ef 1C020000 		.4byte	0x21c
 510 01f3 0F       		.uleb128 0xf
 511 01f4 697000   		.ascii	"ip\000"
 512 01f7 01       		.byte	0x1
 513 01f8 42       		.byte	0x42
ARM GAS  /tmp/cc9INjUq.s 			page 10


 514 01f9 93000000 		.4byte	0x93
 515 01fd 00000000 		.4byte	.LLST0
 516 0201 10       		.uleb128 0x10
 517 0202 6200     		.ascii	"b\000"
 518 0204 01       		.byte	0x1
 519 0205 42       		.byte	0x42
 520 0206 9C000000 		.4byte	0x9c
 521 020a 01       		.uleb128 0x1
 522 020b 51       		.byte	0x51
 523 020c 11       		.uleb128 0x11
 524 020d 6D737000 		.ascii	"msp\000"
 525 0211 01       		.byte	0x1
 526 0212 43       		.byte	0x43
 527 0213 1C020000 		.4byte	0x21c
 528 0217 1E000000 		.4byte	.LLST1
 529 021b 00       		.byte	0
 530 021c 06       		.uleb128 0x6
 531 021d 04       		.byte	0x4
 532 021e CF010000 		.4byte	0x1cf
 533 0222 0E       		.uleb128 0xe
 534 0223 67657400 		.ascii	"get\000"
 535 0227 01       		.byte	0x1
 536 0228 4C       		.byte	0x4c
 537 0229 B9000000 		.4byte	0xb9
 538 022d 00000000 		.4byte	.LFB10
 539 0231 1A000000 		.4byte	.LFE10-.LFB10
 540 0235 01       		.uleb128 0x1
 541 0236 9C       		.byte	0x9c
 542 0237 66020000 		.4byte	0x266
 543 023b 0F       		.uleb128 0xf
 544 023c 697000   		.ascii	"ip\000"
 545 023f 01       		.byte	0x1
 546 0240 4C       		.byte	0x4c
 547 0241 93000000 		.4byte	0x93
 548 0245 3C000000 		.4byte	.LLST2
 549 0249 11       		.uleb128 0x11
 550 024a 6200     		.ascii	"b\000"
 551 024c 01       		.byte	0x1
 552 024d 4D       		.byte	0x4d
 553 024e 9C000000 		.4byte	0x9c
 554 0252 76000000 		.4byte	.LLST3
 555 0256 11       		.uleb128 0x11
 556 0257 6D737000 		.ascii	"msp\000"
 557 025b 01       		.byte	0x1
 558 025c 4E       		.byte	0x4e
 559 025d 1C020000 		.4byte	0x21c
 560 0261 3C000000 		.4byte	.LLST2
 561 0265 00       		.byte	0
 562 0266 12       		.uleb128 0x12
 563 0267 2E000000 		.4byte	.LASF24
 564 026b 01       		.byte	0x1
 565 026c 38       		.byte	0x38
 566 026d 2C000000 		.4byte	0x2c
 567 0271 00000000 		.4byte	.LFB8
 568 0275 26000000 		.4byte	.LFE8-.LFB8
 569 0279 01       		.uleb128 0x1
 570 027a 9C       		.byte	0x9c
ARM GAS  /tmp/cc9INjUq.s 			page 11


 571 027b CF020000 		.4byte	0x2cf
 572 027f 0F       		.uleb128 0xf
 573 0280 697000   		.ascii	"ip\000"
 574 0283 01       		.byte	0x1
 575 0284 38       		.byte	0x38
 576 0285 93000000 		.4byte	0x93
 577 0289 99000000 		.4byte	.LLST5
 578 028d 0F       		.uleb128 0xf
 579 028e 627000   		.ascii	"bp\000"
 580 0291 01       		.byte	0x1
 581 0292 38       		.byte	0x38
 582 0293 D9000000 		.4byte	0xd9
 583 0297 B7000000 		.4byte	.LLST6
 584 029b 0F       		.uleb128 0xf
 585 029c 6E00     		.ascii	"n\000"
 586 029e 01       		.byte	0x1
 587 029f 38       		.byte	0x38
 588 02a0 2C000000 		.4byte	0x2c
 589 02a4 E3000000 		.4byte	.LLST7
 590 02a8 11       		.uleb128 0x11
 591 02a9 6D737000 		.ascii	"msp\000"
 592 02ad 01       		.byte	0x1
 593 02ae 39       		.byte	0x39
 594 02af 1C020000 		.4byte	0x21c
 595 02b3 0C010000 		.4byte	.LLST8
 596 02b7 13       		.uleb128 0x13
 597 02b8 1C000000 		.4byte	.LVL13
 598 02bc 93030000 		.4byte	0x393
 599 02c0 14       		.uleb128 0x14
 600 02c1 01       		.uleb128 0x1
 601 02c2 52       		.byte	0x52
 602 02c3 02       		.uleb128 0x2
 603 02c4 75       		.byte	0x75
 604 02c5 00       		.sleb128 0
 605 02c6 14       		.uleb128 0x14
 606 02c7 01       		.uleb128 0x1
 607 02c8 50       		.byte	0x50
 608 02c9 03       		.uleb128 0x3
 609 02ca F3       		.byte	0xf3
 610 02cb 01       		.uleb128 0x1
 611 02cc 51       		.byte	0x51
 612 02cd 00       		.byte	0
 613 02ce 00       		.byte	0
 614 02cf 12       		.uleb128 0x12
 615 02d0 1B000000 		.4byte	.LASF25
 616 02d4 01       		.byte	0x1
 617 02d5 2E       		.byte	0x2e
 618 02d6 2C000000 		.4byte	0x2c
 619 02da 00000000 		.4byte	.LFB7
 620 02de 24000000 		.4byte	.LFE7-.LFB7
 621 02e2 01       		.uleb128 0x1
 622 02e3 9C       		.byte	0x9c
 623 02e4 38030000 		.4byte	0x338
 624 02e8 0F       		.uleb128 0xf
 625 02e9 697000   		.ascii	"ip\000"
 626 02ec 01       		.byte	0x1
 627 02ed 2E       		.byte	0x2e
ARM GAS  /tmp/cc9INjUq.s 			page 12


 628 02ee 93000000 		.4byte	0x93
 629 02f2 2A010000 		.4byte	.LLST9
 630 02f6 0F       		.uleb128 0xf
 631 02f7 627000   		.ascii	"bp\000"
 632 02fa 01       		.byte	0x1
 633 02fb 2E       		.byte	0x2e
 634 02fc F8000000 		.4byte	0xf8
 635 0300 48010000 		.4byte	.LLST10
 636 0304 0F       		.uleb128 0xf
 637 0305 6E00     		.ascii	"n\000"
 638 0307 01       		.byte	0x1
 639 0308 2E       		.byte	0x2e
 640 0309 2C000000 		.4byte	0x2c
 641 030d 69010000 		.4byte	.LLST11
 642 0311 11       		.uleb128 0x11
 643 0312 6D737000 		.ascii	"msp\000"
 644 0316 01       		.byte	0x1
 645 0317 2F       		.byte	0x2f
 646 0318 1C020000 		.4byte	0x21c
 647 031c 92010000 		.4byte	.LLST12
 648 0320 13       		.uleb128 0x13
 649 0321 1A000000 		.4byte	.LVL19
 650 0325 93030000 		.4byte	0x393
 651 0329 14       		.uleb128 0x14
 652 032a 01       		.uleb128 0x1
 653 032b 52       		.byte	0x52
 654 032c 02       		.uleb128 0x2
 655 032d 75       		.byte	0x75
 656 032e 00       		.sleb128 0
 657 032f 14       		.uleb128 0x14
 658 0330 01       		.uleb128 0x1
 659 0331 51       		.byte	0x51
 660 0332 03       		.uleb128 0x3
 661 0333 F3       		.byte	0xf3
 662 0334 01       		.uleb128 0x1
 663 0335 51       		.byte	0x51
 664 0336 00       		.byte	0
 665 0337 00       		.byte	0
 666 0338 15       		.uleb128 0x15
 667 0339 68000000 		.4byte	.LASF30
 668 033d 01       		.byte	0x1
 669 033e 67       		.byte	0x67
 670 033f 00000000 		.4byte	.LFB11
 671 0343 18000000 		.4byte	.LFE11-.LFB11
 672 0347 01       		.uleb128 0x1
 673 0348 9C       		.byte	0x9c
 674 0349 82030000 		.4byte	0x382
 675 034d 10       		.uleb128 0x10
 676 034e 6D737000 		.ascii	"msp\000"
 677 0352 01       		.byte	0x1
 678 0353 67       		.byte	0x67
 679 0354 1C020000 		.4byte	0x21c
 680 0358 01       		.uleb128 0x1
 681 0359 50       		.byte	0x50
 682 035a 16       		.uleb128 0x16
 683 035b D7010000 		.4byte	.LASF20
 684 035f 01       		.byte	0x1
ARM GAS  /tmp/cc9INjUq.s 			page 13


 685 0360 67       		.byte	0x67
 686 0361 D9000000 		.4byte	0xd9
 687 0365 01       		.uleb128 0x1
 688 0366 51       		.byte	0x51
 689 0367 16       		.uleb128 0x16
 690 0368 FB010000 		.4byte	.LASF21
 691 036c 01       		.byte	0x1
 692 036d 68       		.byte	0x68
 693 036e 2C000000 		.4byte	0x2c
 694 0372 01       		.uleb128 0x1
 695 0373 52       		.byte	0x52
 696 0374 10       		.uleb128 0x10
 697 0375 656F7300 		.ascii	"eos\000"
 698 0379 01       		.byte	0x1
 699 037a 68       		.byte	0x68
 700 037b 2C000000 		.4byte	0x2c
 701 037f 01       		.uleb128 0x1
 702 0380 53       		.byte	0x53
 703 0381 00       		.byte	0
 704 0382 17       		.uleb128 0x17
 705 0383 766D7400 		.ascii	"vmt\000"
 706 0387 01       		.byte	0x1
 707 0388 57       		.byte	0x57
 708 0389 CA010000 		.4byte	0x1ca
 709 038d 05       		.uleb128 0x5
 710 038e 03       		.byte	0x3
 711 038f 00000000 		.4byte	vmt
 712 0393 18       		.uleb128 0x18
 713 0394 DE010000 		.4byte	.LASF31
 714 0398 93000000 		.4byte	0x93
 715 039c B0030000 		.4byte	0x3b0
 716 03a0 08       		.uleb128 0x8
 717 03a1 93000000 		.4byte	0x93
 718 03a5 08       		.uleb128 0x8
 719 03a6 B0030000 		.4byte	0x3b0
 720 03aa 08       		.uleb128 0x8
 721 03ab 8C000000 		.4byte	0x8c
 722 03af 00       		.byte	0
 723 03b0 06       		.uleb128 0x6
 724 03b1 04       		.byte	0x4
 725 03b2 B6030000 		.4byte	0x3b6
 726 03b6 19       		.uleb128 0x19
 727 03b7 00       		.byte	0
 728              		.section	.debug_abbrev,"",%progbits
 729              	.Ldebug_abbrev0:
 730 0000 01       		.uleb128 0x1
 731 0001 11       		.uleb128 0x11
 732 0002 01       		.byte	0x1
 733 0003 25       		.uleb128 0x25
 734 0004 0E       		.uleb128 0xe
 735 0005 13       		.uleb128 0x13
 736 0006 0B       		.uleb128 0xb
 737 0007 03       		.uleb128 0x3
 738 0008 0E       		.uleb128 0xe
 739 0009 1B       		.uleb128 0x1b
 740 000a 0E       		.uleb128 0xe
 741 000b 55       		.uleb128 0x55
ARM GAS  /tmp/cc9INjUq.s 			page 14


 742 000c 17       		.uleb128 0x17
 743 000d 11       		.uleb128 0x11
 744 000e 01       		.uleb128 0x1
 745 000f 10       		.uleb128 0x10
 746 0010 17       		.uleb128 0x17
 747 0011 00       		.byte	0
 748 0012 00       		.byte	0
 749 0013 02       		.uleb128 0x2
 750 0014 24       		.uleb128 0x24
 751 0015 00       		.byte	0
 752 0016 0B       		.uleb128 0xb
 753 0017 0B       		.uleb128 0xb
 754 0018 3E       		.uleb128 0x3e
 755 0019 0B       		.uleb128 0xb
 756 001a 03       		.uleb128 0x3
 757 001b 08       		.uleb128 0x8
 758 001c 00       		.byte	0
 759 001d 00       		.byte	0
 760 001e 03       		.uleb128 0x3
 761 001f 16       		.uleb128 0x16
 762 0020 00       		.byte	0
 763 0021 03       		.uleb128 0x3
 764 0022 0E       		.uleb128 0xe
 765 0023 3A       		.uleb128 0x3a
 766 0024 0B       		.uleb128 0xb
 767 0025 3B       		.uleb128 0x3b
 768 0026 0B       		.uleb128 0xb
 769 0027 49       		.uleb128 0x49
 770 0028 13       		.uleb128 0x13
 771 0029 00       		.byte	0
 772 002a 00       		.byte	0
 773 002b 04       		.uleb128 0x4
 774 002c 24       		.uleb128 0x24
 775 002d 00       		.byte	0
 776 002e 0B       		.uleb128 0xb
 777 002f 0B       		.uleb128 0xb
 778 0030 3E       		.uleb128 0x3e
 779 0031 0B       		.uleb128 0xb
 780 0032 03       		.uleb128 0x3
 781 0033 0E       		.uleb128 0xe
 782 0034 00       		.byte	0
 783 0035 00       		.byte	0
 784 0036 05       		.uleb128 0x5
 785 0037 0F       		.uleb128 0xf
 786 0038 00       		.byte	0
 787 0039 0B       		.uleb128 0xb
 788 003a 0B       		.uleb128 0xb
 789 003b 00       		.byte	0
 790 003c 00       		.byte	0
 791 003d 06       		.uleb128 0x6
 792 003e 0F       		.uleb128 0xf
 793 003f 00       		.byte	0
 794 0040 0B       		.uleb128 0xb
 795 0041 0B       		.uleb128 0xb
 796 0042 49       		.uleb128 0x49
 797 0043 13       		.uleb128 0x13
 798 0044 00       		.byte	0
ARM GAS  /tmp/cc9INjUq.s 			page 15


 799 0045 00       		.byte	0
 800 0046 07       		.uleb128 0x7
 801 0047 15       		.uleb128 0x15
 802 0048 01       		.byte	0x1
 803 0049 27       		.uleb128 0x27
 804 004a 19       		.uleb128 0x19
 805 004b 49       		.uleb128 0x49
 806 004c 13       		.uleb128 0x13
 807 004d 01       		.uleb128 0x1
 808 004e 13       		.uleb128 0x13
 809 004f 00       		.byte	0
 810 0050 00       		.byte	0
 811 0051 08       		.uleb128 0x8
 812 0052 05       		.uleb128 0x5
 813 0053 00       		.byte	0
 814 0054 49       		.uleb128 0x49
 815 0055 13       		.uleb128 0x13
 816 0056 00       		.byte	0
 817 0057 00       		.byte	0
 818 0058 09       		.uleb128 0x9
 819 0059 26       		.uleb128 0x26
 820 005a 00       		.byte	0
 821 005b 49       		.uleb128 0x49
 822 005c 13       		.uleb128 0x13
 823 005d 00       		.byte	0
 824 005e 00       		.byte	0
 825 005f 0A       		.uleb128 0xa
 826 0060 13       		.uleb128 0x13
 827 0061 01       		.byte	0x1
 828 0062 03       		.uleb128 0x3
 829 0063 0E       		.uleb128 0xe
 830 0064 0B       		.uleb128 0xb
 831 0065 0B       		.uleb128 0xb
 832 0066 3A       		.uleb128 0x3a
 833 0067 0B       		.uleb128 0xb
 834 0068 3B       		.uleb128 0x3b
 835 0069 0B       		.uleb128 0xb
 836 006a 01       		.uleb128 0x1
 837 006b 13       		.uleb128 0x13
 838 006c 00       		.byte	0
 839 006d 00       		.byte	0
 840 006e 0B       		.uleb128 0xb
 841 006f 0D       		.uleb128 0xd
 842 0070 00       		.byte	0
 843 0071 03       		.uleb128 0x3
 844 0072 0E       		.uleb128 0xe
 845 0073 3A       		.uleb128 0x3a
 846 0074 0B       		.uleb128 0xb
 847 0075 3B       		.uleb128 0x3b
 848 0076 0B       		.uleb128 0xb
 849 0077 49       		.uleb128 0x49
 850 0078 13       		.uleb128 0x13
 851 0079 38       		.uleb128 0x38
 852 007a 0B       		.uleb128 0xb
 853 007b 00       		.byte	0
 854 007c 00       		.byte	0
 855 007d 0C       		.uleb128 0xc
ARM GAS  /tmp/cc9INjUq.s 			page 16


 856 007e 0D       		.uleb128 0xd
 857 007f 00       		.byte	0
 858 0080 03       		.uleb128 0x3
 859 0081 08       		.uleb128 0x8
 860 0082 3A       		.uleb128 0x3a
 861 0083 0B       		.uleb128 0xb
 862 0084 3B       		.uleb128 0x3b
 863 0085 0B       		.uleb128 0xb
 864 0086 49       		.uleb128 0x49
 865 0087 13       		.uleb128 0x13
 866 0088 38       		.uleb128 0x38
 867 0089 0B       		.uleb128 0xb
 868 008a 00       		.byte	0
 869 008b 00       		.byte	0
 870 008c 0D       		.uleb128 0xd
 871 008d 13       		.uleb128 0x13
 872 008e 01       		.byte	0x1
 873 008f 0B       		.uleb128 0xb
 874 0090 0B       		.uleb128 0xb
 875 0091 3A       		.uleb128 0x3a
 876 0092 0B       		.uleb128 0xb
 877 0093 3B       		.uleb128 0x3b
 878 0094 0B       		.uleb128 0xb
 879 0095 01       		.uleb128 0x1
 880 0096 13       		.uleb128 0x13
 881 0097 00       		.byte	0
 882 0098 00       		.byte	0
 883 0099 0E       		.uleb128 0xe
 884 009a 2E       		.uleb128 0x2e
 885 009b 01       		.byte	0x1
 886 009c 03       		.uleb128 0x3
 887 009d 08       		.uleb128 0x8
 888 009e 3A       		.uleb128 0x3a
 889 009f 0B       		.uleb128 0xb
 890 00a0 3B       		.uleb128 0x3b
 891 00a1 0B       		.uleb128 0xb
 892 00a2 27       		.uleb128 0x27
 893 00a3 19       		.uleb128 0x19
 894 00a4 49       		.uleb128 0x49
 895 00a5 13       		.uleb128 0x13
 896 00a6 11       		.uleb128 0x11
 897 00a7 01       		.uleb128 0x1
 898 00a8 12       		.uleb128 0x12
 899 00a9 06       		.uleb128 0x6
 900 00aa 40       		.uleb128 0x40
 901 00ab 18       		.uleb128 0x18
 902 00ac 9742     		.uleb128 0x2117
 903 00ae 19       		.uleb128 0x19
 904 00af 01       		.uleb128 0x1
 905 00b0 13       		.uleb128 0x13
 906 00b1 00       		.byte	0
 907 00b2 00       		.byte	0
 908 00b3 0F       		.uleb128 0xf
 909 00b4 05       		.uleb128 0x5
 910 00b5 00       		.byte	0
 911 00b6 03       		.uleb128 0x3
 912 00b7 08       		.uleb128 0x8
ARM GAS  /tmp/cc9INjUq.s 			page 17


 913 00b8 3A       		.uleb128 0x3a
 914 00b9 0B       		.uleb128 0xb
 915 00ba 3B       		.uleb128 0x3b
 916 00bb 0B       		.uleb128 0xb
 917 00bc 49       		.uleb128 0x49
 918 00bd 13       		.uleb128 0x13
 919 00be 02       		.uleb128 0x2
 920 00bf 17       		.uleb128 0x17
 921 00c0 00       		.byte	0
 922 00c1 00       		.byte	0
 923 00c2 10       		.uleb128 0x10
 924 00c3 05       		.uleb128 0x5
 925 00c4 00       		.byte	0
 926 00c5 03       		.uleb128 0x3
 927 00c6 08       		.uleb128 0x8
 928 00c7 3A       		.uleb128 0x3a
 929 00c8 0B       		.uleb128 0xb
 930 00c9 3B       		.uleb128 0x3b
 931 00ca 0B       		.uleb128 0xb
 932 00cb 49       		.uleb128 0x49
 933 00cc 13       		.uleb128 0x13
 934 00cd 02       		.uleb128 0x2
 935 00ce 18       		.uleb128 0x18
 936 00cf 00       		.byte	0
 937 00d0 00       		.byte	0
 938 00d1 11       		.uleb128 0x11
 939 00d2 34       		.uleb128 0x34
 940 00d3 00       		.byte	0
 941 00d4 03       		.uleb128 0x3
 942 00d5 08       		.uleb128 0x8
 943 00d6 3A       		.uleb128 0x3a
 944 00d7 0B       		.uleb128 0xb
 945 00d8 3B       		.uleb128 0x3b
 946 00d9 0B       		.uleb128 0xb
 947 00da 49       		.uleb128 0x49
 948 00db 13       		.uleb128 0x13
 949 00dc 02       		.uleb128 0x2
 950 00dd 17       		.uleb128 0x17
 951 00de 00       		.byte	0
 952 00df 00       		.byte	0
 953 00e0 12       		.uleb128 0x12
 954 00e1 2E       		.uleb128 0x2e
 955 00e2 01       		.byte	0x1
 956 00e3 03       		.uleb128 0x3
 957 00e4 0E       		.uleb128 0xe
 958 00e5 3A       		.uleb128 0x3a
 959 00e6 0B       		.uleb128 0xb
 960 00e7 3B       		.uleb128 0x3b
 961 00e8 0B       		.uleb128 0xb
 962 00e9 27       		.uleb128 0x27
 963 00ea 19       		.uleb128 0x19
 964 00eb 49       		.uleb128 0x49
 965 00ec 13       		.uleb128 0x13
 966 00ed 11       		.uleb128 0x11
 967 00ee 01       		.uleb128 0x1
 968 00ef 12       		.uleb128 0x12
 969 00f0 06       		.uleb128 0x6
ARM GAS  /tmp/cc9INjUq.s 			page 18


 970 00f1 40       		.uleb128 0x40
 971 00f2 18       		.uleb128 0x18
 972 00f3 9742     		.uleb128 0x2117
 973 00f5 19       		.uleb128 0x19
 974 00f6 01       		.uleb128 0x1
 975 00f7 13       		.uleb128 0x13
 976 00f8 00       		.byte	0
 977 00f9 00       		.byte	0
 978 00fa 13       		.uleb128 0x13
 979 00fb 898201   		.uleb128 0x4109
 980 00fe 01       		.byte	0x1
 981 00ff 11       		.uleb128 0x11
 982 0100 01       		.uleb128 0x1
 983 0101 31       		.uleb128 0x31
 984 0102 13       		.uleb128 0x13
 985 0103 00       		.byte	0
 986 0104 00       		.byte	0
 987 0105 14       		.uleb128 0x14
 988 0106 8A8201   		.uleb128 0x410a
 989 0109 00       		.byte	0
 990 010a 02       		.uleb128 0x2
 991 010b 18       		.uleb128 0x18
 992 010c 9142     		.uleb128 0x2111
 993 010e 18       		.uleb128 0x18
 994 010f 00       		.byte	0
 995 0110 00       		.byte	0
 996 0111 15       		.uleb128 0x15
 997 0112 2E       		.uleb128 0x2e
 998 0113 01       		.byte	0x1
 999 0114 3F       		.uleb128 0x3f
 1000 0115 19       		.uleb128 0x19
 1001 0116 03       		.uleb128 0x3
 1002 0117 0E       		.uleb128 0xe
 1003 0118 3A       		.uleb128 0x3a
 1004 0119 0B       		.uleb128 0xb
 1005 011a 3B       		.uleb128 0x3b
 1006 011b 0B       		.uleb128 0xb
 1007 011c 27       		.uleb128 0x27
 1008 011d 19       		.uleb128 0x19
 1009 011e 11       		.uleb128 0x11
 1010 011f 01       		.uleb128 0x1
 1011 0120 12       		.uleb128 0x12
 1012 0121 06       		.uleb128 0x6
 1013 0122 40       		.uleb128 0x40
 1014 0123 18       		.uleb128 0x18
 1015 0124 9742     		.uleb128 0x2117
 1016 0126 19       		.uleb128 0x19
 1017 0127 01       		.uleb128 0x1
 1018 0128 13       		.uleb128 0x13
 1019 0129 00       		.byte	0
 1020 012a 00       		.byte	0
 1021 012b 16       		.uleb128 0x16
 1022 012c 05       		.uleb128 0x5
 1023 012d 00       		.byte	0
 1024 012e 03       		.uleb128 0x3
 1025 012f 0E       		.uleb128 0xe
 1026 0130 3A       		.uleb128 0x3a
ARM GAS  /tmp/cc9INjUq.s 			page 19


 1027 0131 0B       		.uleb128 0xb
 1028 0132 3B       		.uleb128 0x3b
 1029 0133 0B       		.uleb128 0xb
 1030 0134 49       		.uleb128 0x49
 1031 0135 13       		.uleb128 0x13
 1032 0136 02       		.uleb128 0x2
 1033 0137 18       		.uleb128 0x18
 1034 0138 00       		.byte	0
 1035 0139 00       		.byte	0
 1036 013a 17       		.uleb128 0x17
 1037 013b 34       		.uleb128 0x34
 1038 013c 00       		.byte	0
 1039 013d 03       		.uleb128 0x3
 1040 013e 08       		.uleb128 0x8
 1041 013f 3A       		.uleb128 0x3a
 1042 0140 0B       		.uleb128 0xb
 1043 0141 3B       		.uleb128 0x3b
 1044 0142 0B       		.uleb128 0xb
 1045 0143 49       		.uleb128 0x49
 1046 0144 13       		.uleb128 0x13
 1047 0145 02       		.uleb128 0x2
 1048 0146 18       		.uleb128 0x18
 1049 0147 00       		.byte	0
 1050 0148 00       		.byte	0
 1051 0149 18       		.uleb128 0x18
 1052 014a 2E       		.uleb128 0x2e
 1053 014b 01       		.byte	0x1
 1054 014c 3F       		.uleb128 0x3f
 1055 014d 19       		.uleb128 0x19
 1056 014e 03       		.uleb128 0x3
 1057 014f 0E       		.uleb128 0xe
 1058 0150 27       		.uleb128 0x27
 1059 0151 19       		.uleb128 0x19
 1060 0152 49       		.uleb128 0x49
 1061 0153 13       		.uleb128 0x13
 1062 0154 34       		.uleb128 0x34
 1063 0155 19       		.uleb128 0x19
 1064 0156 3C       		.uleb128 0x3c
 1065 0157 19       		.uleb128 0x19
 1066 0158 01       		.uleb128 0x1
 1067 0159 13       		.uleb128 0x13
 1068 015a 00       		.byte	0
 1069 015b 00       		.byte	0
 1070 015c 19       		.uleb128 0x19
 1071 015d 26       		.uleb128 0x26
 1072 015e 00       		.byte	0
 1073 015f 00       		.byte	0
 1074 0160 00       		.byte	0
 1075 0161 00       		.byte	0
 1076              		.section	.debug_loc,"",%progbits
 1077              	.Ldebug_loc0:
 1078              	.LLST0:
 1079 0000 00000000 		.4byte	.LVL0
 1080 0004 06000000 		.4byte	.LVL2
 1081 0008 0100     		.2byte	0x1
 1082 000a 50       		.byte	0x50
 1083 000b 06000000 		.4byte	.LVL2
ARM GAS  /tmp/cc9INjUq.s 			page 20


 1084 000f 24000000 		.4byte	.LFE9
 1085 0013 0100     		.2byte	0x1
 1086 0015 53       		.byte	0x53
 1087 0016 00000000 		.4byte	0
 1088 001a 00000000 		.4byte	0
 1089              	.LLST1:
 1090 001e 04000000 		.4byte	.LVL1
 1091 0022 06000000 		.4byte	.LVL2
 1092 0026 0100     		.2byte	0x1
 1093 0028 50       		.byte	0x50
 1094 0029 06000000 		.4byte	.LVL2
 1095 002d 24000000 		.4byte	.LFE9
 1096 0031 0100     		.2byte	0x1
 1097 0033 53       		.byte	0x53
 1098 0034 00000000 		.4byte	0
 1099 0038 00000000 		.4byte	0
 1100              	.LLST2:
 1101 003c 00000000 		.4byte	.LVL3
 1102 0040 12000000 		.4byte	.LVL6
 1103 0044 0100     		.2byte	0x1
 1104 0046 50       		.byte	0x50
 1105 0047 12000000 		.4byte	.LVL6
 1106 004b 14000000 		.4byte	.LVL7
 1107 004f 0400     		.2byte	0x4
 1108 0051 F3       		.byte	0xf3
 1109 0052 01       		.uleb128 0x1
 1110 0053 50       		.byte	0x50
 1111 0054 9F       		.byte	0x9f
 1112 0055 14000000 		.4byte	.LVL7
 1113 0059 18000000 		.4byte	.LVL8
 1114 005d 0100     		.2byte	0x1
 1115 005f 50       		.byte	0x50
 1116 0060 18000000 		.4byte	.LVL8
 1117 0064 1A000000 		.4byte	.LFE10
 1118 0068 0400     		.2byte	0x4
 1119 006a F3       		.byte	0xf3
 1120 006b 01       		.uleb128 0x1
 1121 006c 50       		.byte	0x50
 1122 006d 9F       		.byte	0x9f
 1123 006e 00000000 		.4byte	0
 1124 0072 00000000 		.4byte	0
 1125              	.LLST3:
 1126 0076 0E000000 		.4byte	.LVL4
 1127 007a 10000000 		.4byte	.LVL5
 1128 007e 0600     		.2byte	0x6
 1129 0080 72       		.byte	0x72
 1130 0081 00       		.sleb128 0
 1131 0082 70       		.byte	0x70
 1132 0083 10       		.sleb128 16
 1133 0084 06       		.byte	0x6
 1134 0085 22       		.byte	0x22
 1135 0086 10000000 		.4byte	.LVL5
 1136 008a 14000000 		.4byte	.LVL7
 1137 008e 0100     		.2byte	0x1
 1138 0090 53       		.byte	0x53
 1139 0091 00000000 		.4byte	0
 1140 0095 00000000 		.4byte	0
ARM GAS  /tmp/cc9INjUq.s 			page 21


 1141              	.LLST5:
 1142 0099 00000000 		.4byte	.LVL9
 1143 009d 16000000 		.4byte	.LVL11
 1144 00a1 0100     		.2byte	0x1
 1145 00a3 50       		.byte	0x50
 1146 00a4 16000000 		.4byte	.LVL11
 1147 00a8 26000000 		.4byte	.LFE8
 1148 00ac 0100     		.2byte	0x1
 1149 00ae 54       		.byte	0x54
 1150 00af 00000000 		.4byte	0
 1151 00b3 00000000 		.4byte	0
 1152              	.LLST6:
 1153 00b7 00000000 		.4byte	.LVL9
 1154 00bb 18000000 		.4byte	.LVL12
 1155 00bf 0100     		.2byte	0x1
 1156 00c1 51       		.byte	0x51
 1157 00c2 18000000 		.4byte	.LVL12
 1158 00c6 1B000000 		.4byte	.LVL13-1
 1159 00ca 0100     		.2byte	0x1
 1160 00cc 50       		.byte	0x50
 1161 00cd 1B000000 		.4byte	.LVL13-1
 1162 00d1 26000000 		.4byte	.LFE8
 1163 00d5 0400     		.2byte	0x4
 1164 00d7 F3       		.byte	0xf3
 1165 00d8 01       		.uleb128 0x1
 1166 00d9 51       		.byte	0x51
 1167 00da 9F       		.byte	0x9f
 1168 00db 00000000 		.4byte	0
 1169 00df 00000000 		.4byte	0
 1170              	.LLST7:
 1171 00e3 00000000 		.4byte	.LVL9
 1172 00e7 12000000 		.4byte	.LVL10
 1173 00eb 0100     		.2byte	0x1
 1174 00ed 52       		.byte	0x52
 1175 00ee 12000000 		.4byte	.LVL10
 1176 00f2 22000000 		.4byte	.LVL14
 1177 00f6 0100     		.2byte	0x1
 1178 00f8 55       		.byte	0x55
 1179 00f9 22000000 		.4byte	.LVL14
 1180 00fd 26000000 		.4byte	.LFE8
 1181 0101 0100     		.2byte	0x1
 1182 0103 50       		.byte	0x50
 1183 0104 00000000 		.4byte	0
 1184 0108 00000000 		.4byte	0
 1185              	.LLST8:
 1186 010c 12000000 		.4byte	.LVL10
 1187 0110 16000000 		.4byte	.LVL11
 1188 0114 0100     		.2byte	0x1
 1189 0116 50       		.byte	0x50
 1190 0117 16000000 		.4byte	.LVL11
 1191 011b 26000000 		.4byte	.LFE8
 1192 011f 0100     		.2byte	0x1
 1193 0121 54       		.byte	0x54
 1194 0122 00000000 		.4byte	0
 1195 0126 00000000 		.4byte	0
 1196              	.LLST9:
 1197 012a 00000000 		.4byte	.LVL15
ARM GAS  /tmp/cc9INjUq.s 			page 22


 1198 012e 0C000000 		.4byte	.LVL17
 1199 0132 0100     		.2byte	0x1
 1200 0134 50       		.byte	0x50
 1201 0135 0C000000 		.4byte	.LVL17
 1202 0139 24000000 		.4byte	.LFE7
 1203 013d 0100     		.2byte	0x1
 1204 013f 54       		.byte	0x54
 1205 0140 00000000 		.4byte	0
 1206 0144 00000000 		.4byte	0
 1207              	.LLST10:
 1208 0148 00000000 		.4byte	.LVL15
 1209 014c 19000000 		.4byte	.LVL19-1
 1210 0150 0100     		.2byte	0x1
 1211 0152 51       		.byte	0x51
 1212 0153 19000000 		.4byte	.LVL19-1
 1213 0157 24000000 		.4byte	.LFE7
 1214 015b 0400     		.2byte	0x4
 1215 015d F3       		.byte	0xf3
 1216 015e 01       		.uleb128 0x1
 1217 015f 51       		.byte	0x51
 1218 0160 9F       		.byte	0x9f
 1219 0161 00000000 		.4byte	0
 1220 0165 00000000 		.4byte	0
 1221              	.LLST11:
 1222 0169 00000000 		.4byte	.LVL15
 1223 016d 12000000 		.4byte	.LVL18
 1224 0171 0100     		.2byte	0x1
 1225 0173 52       		.byte	0x52
 1226 0174 12000000 		.4byte	.LVL18
 1227 0178 20000000 		.4byte	.LVL20
 1228 017c 0100     		.2byte	0x1
 1229 017e 55       		.byte	0x55
 1230 017f 20000000 		.4byte	.LVL20
 1231 0183 24000000 		.4byte	.LFE7
 1232 0187 0100     		.2byte	0x1
 1233 0189 50       		.byte	0x50
 1234 018a 00000000 		.4byte	0
 1235 018e 00000000 		.4byte	0
 1236              	.LLST12:
 1237 0192 08000000 		.4byte	.LVL16
 1238 0196 0C000000 		.4byte	.LVL17
 1239 019a 0100     		.2byte	0x1
 1240 019c 50       		.byte	0x50
 1241 019d 0C000000 		.4byte	.LVL17
 1242 01a1 24000000 		.4byte	.LFE7
 1243 01a5 0100     		.2byte	0x1
 1244 01a7 54       		.byte	0x54
 1245 01a8 00000000 		.4byte	0
 1246 01ac 00000000 		.4byte	0
 1247              		.section	.debug_aranges,"",%progbits
 1248 0000 3C000000 		.4byte	0x3c
 1249 0004 0200     		.2byte	0x2
 1250 0006 00000000 		.4byte	.Ldebug_info0
 1251 000a 04       		.byte	0x4
 1252 000b 00       		.byte	0
 1253 000c 0000     		.2byte	0
 1254 000e 0000     		.2byte	0
ARM GAS  /tmp/cc9INjUq.s 			page 23


 1255 0010 00000000 		.4byte	.LFB9
 1256 0014 24000000 		.4byte	.LFE9-.LFB9
 1257 0018 00000000 		.4byte	.LFB10
 1258 001c 1A000000 		.4byte	.LFE10-.LFB10
 1259 0020 00000000 		.4byte	.LFB8
 1260 0024 26000000 		.4byte	.LFE8-.LFB8
 1261 0028 00000000 		.4byte	.LFB7
 1262 002c 24000000 		.4byte	.LFE7-.LFB7
 1263 0030 00000000 		.4byte	.LFB11
 1264 0034 18000000 		.4byte	.LFE11-.LFB11
 1265 0038 00000000 		.4byte	0
 1266 003c 00000000 		.4byte	0
 1267              		.section	.debug_ranges,"",%progbits
 1268              	.Ldebug_ranges0:
 1269 0000 00000000 		.4byte	.LFB9
 1270 0004 24000000 		.4byte	.LFE9
 1271 0008 00000000 		.4byte	.LFB10
 1272 000c 1A000000 		.4byte	.LFE10
 1273 0010 00000000 		.4byte	.LFB8
 1274 0014 26000000 		.4byte	.LFE8
 1275 0018 00000000 		.4byte	.LFB7
 1276 001c 24000000 		.4byte	.LFE7
 1277 0020 00000000 		.4byte	.LFB11
 1278 0024 18000000 		.4byte	.LFE11
 1279 0028 00000000 		.4byte	0
 1280 002c 00000000 		.4byte	0
 1281              		.section	.debug_line,"",%progbits
 1282              	.Ldebug_line0:
 1283 0000 6E010000 		.section	.debug_str,"MS",%progbits,1
 1283      0200EE00 
 1283      00000201 
 1283      FB0E0D00 
 1283      01010101 
 1284              	.LASF3:
 1285 0000 5F5F7569 		.ascii	"__uint8_t\000"
 1285      6E74385F 
 1285      7400
 1286              	.LASF2:
 1287 000a 73697A65 		.ascii	"size_t\000"
 1287      5F7400
 1288              	.LASF7:
 1289 0011 5F5F696E 		.ascii	"__int32_t\000"
 1289      7433325F 
 1289      7400
 1290              	.LASF25:
 1291 001b 77726974 		.ascii	"writes\000"
 1291      657300
 1292              	.LASF1:
 1293 0022 7369676E 		.ascii	"signed char\000"
 1293      65642063 
 1293      68617200 
 1294              	.LASF24:
 1295 002e 72656164 		.ascii	"reads\000"
 1295      7300
 1296              	.LASF6:
 1297 0034 73686F72 		.ascii	"short unsigned int\000"
 1297      7420756E 
ARM GAS  /tmp/cc9INjUq.s 			page 24


 1297      7369676E 
 1297      65642069 
 1297      6E7400
 1298              	.LASF18:
 1299 0047 77726974 		.ascii	"write\000"
 1299      6500
 1300              	.LASF29:
 1301 004d 4D656D53 		.ascii	"MemStreamVMT\000"
 1301      74726561 
 1301      6D564D54 
 1301      00
 1302              	.LASF4:
 1303 005a 756E7369 		.ascii	"unsigned char\000"
 1303      676E6564 
 1303      20636861 
 1303      7200
 1304              	.LASF30:
 1305 0068 6D734F62 		.ascii	"msObjectInit\000"
 1305      6A656374 
 1305      496E6974 
 1305      00
 1306              	.LASF19:
 1307 0075 72656164 		.ascii	"read\000"
 1307      00
 1308              	.LASF27:
 1309 007a 2E2E2F2E 		.ascii	"../../os/various/memstreams.c\000"
 1309      2E2F6F73 
 1309      2F766172 
 1309      696F7573 
 1309      2F6D656D 
 1310              	.LASF28:
 1311 0098 2F686F6D 		.ascii	"/home/development/Projects/openpv/TF_OSC_ChibiOS/jo"
 1311      652F6465 
 1311      76656C6F 
 1311      706D656E 
 1311      742F5072 
 1312 00cb 6D626C6F 		.ascii	"mblo/BASIC\000"
 1312      2F424153 
 1312      494300
 1313              	.LASF9:
 1314 00d6 6C6F6E67 		.ascii	"long unsigned int\000"
 1314      20756E73 
 1314      69676E65 
 1314      6420696E 
 1314      7400
 1315              	.LASF0:
 1316 00e8 756E7369 		.ascii	"unsigned int\000"
 1316      676E6564 
 1316      20696E74 
 1316      00
 1317              	.LASF11:
 1318 00f5 6C6F6E67 		.ascii	"long long unsigned int\000"
 1318      206C6F6E 
 1318      6720756E 
 1318      7369676E 
 1318      65642069 
 1319              	.LASF14:
ARM GAS  /tmp/cc9INjUq.s 			page 25


 1320 010c 75696E74 		.ascii	"uint8_t\000"
 1320      385F7400 
 1321              	.LASF17:
 1322 0114 6D73675F 		.ascii	"msg_t\000"
 1322      7400
 1323              	.LASF15:
 1324 011a 696E7433 		.ascii	"int32_t\000"
 1324      325F7400 
 1325              	.LASF12:
 1326 0122 73697A65 		.ascii	"sizetype\000"
 1326      74797065 
 1326      00
 1327              	.LASF10:
 1328 012b 6C6F6E67 		.ascii	"long long int\000"
 1328      206C6F6E 
 1328      6720696E 
 1328      7400
 1329              	.LASF26:
 1330 0139 474E5520 		.ascii	"GNU C 4.8.3 -mcpu=cortex-m3 -mno-thumb-interwork -m"
 1330      4320342E 
 1330      382E3320 
 1330      2D6D6370 
 1330      753D636F 
 1331 016c 7468756D 		.ascii	"thumb -ggdb -O2 -fomit-frame-pointer -ffunction-sec"
 1331      62202D67 
 1331      67646220 
 1331      2D4F3220 
 1331      2D666F6D 
 1332 019f 74696F6E 		.ascii	"tions -fdata-sections -fno-common\000"
 1332      73202D66 
 1332      64617461 
 1332      2D736563 
 1332      74696F6E 
 1333              	.LASF13:
 1334 01c1 63686172 		.ascii	"char\000"
 1334      00
 1335              	.LASF22:
 1336 01c6 6F666673 		.ascii	"offset\000"
 1336      657400
 1337              	.LASF5:
 1338 01cd 73686F72 		.ascii	"short int\000"
 1338      7420696E 
 1338      7400
 1339              	.LASF20:
 1340 01d7 62756666 		.ascii	"buffer\000"
 1340      657200
 1341              	.LASF31:
 1342 01de 6D656D63 		.ascii	"memcpy\000"
 1342      707900
 1343              	.LASF8:
 1344 01e5 6C6F6E67 		.ascii	"long int\000"
 1344      20696E74 
 1344      00
 1345              	.LASF23:
 1346 01ee 4D656D6F 		.ascii	"MemoryStream\000"
 1346      72795374 
 1346      7265616D 
ARM GAS  /tmp/cc9INjUq.s 			page 26


 1346      00
 1347              	.LASF21:
 1348 01fb 73697A65 		.ascii	"size\000"
 1348      00
 1349              	.LASF16:
 1350 0200 5F426F6F 		.ascii	"_Bool\000"
 1350      6C00
 1351              		.ident	"GCC: (4.8.3-18ubuntu2+12) 4.8.3"
ARM GAS  /tmp/cc9INjUq.s 			page 27


DEFINED SYMBOLS
                            *ABS*:00000000 memstreams.c
     /tmp/cc9INjUq.s:19     .text.put:00000000 $t
     /tmp/cc9INjUq.s:23     .text.put:00000000 put
     /tmp/cc9INjUq.s:69     .text.get:00000000 $t
     /tmp/cc9INjUq.s:73     .text.get:00000000 get
     /tmp/cc9INjUq.s:111    .text.reads:00000000 $t
     /tmp/cc9INjUq.s:115    .text.reads:00000000 reads
     /tmp/cc9INjUq.s:163    .text.writes:00000000 $t
     /tmp/cc9INjUq.s:167    .text.writes:00000000 writes
     /tmp/cc9INjUq.s:213    .text.msObjectInit:00000000 $t
     /tmp/cc9INjUq.s:218    .text.msObjectInit:00000000 msObjectInit
     /tmp/cc9INjUq.s:250    .text.msObjectInit:00000014 $d
     /tmp/cc9INjUq.s:255    .rodata.vmt:00000000 $d
     /tmp/cc9INjUq.s:259    .rodata.vmt:00000000 vmt
                     .debug_frame:00000010 $d

UNDEFINED SYMBOLS
memcpy
