ARM GAS  /tmp/ccPjub5B.s 			page 1


   1              		.syntax unified
   2              		.cpu cortex-m3
   3              		.fpu softvfp
   4              		.eabi_attribute 20, 1
   5              		.eabi_attribute 21, 1
   6              		.eabi_attribute 23, 3
   7              		.eabi_attribute 24, 1
   8              		.eabi_attribute 25, 1
   9              		.eabi_attribute 26, 1
  10              		.eabi_attribute 30, 2
  11              		.eabi_attribute 34, 1
  12              		.eabi_attribute 18, 4
  13              		.thumb
  14              		.file	"nvic.c"
  15              		.text
  16              	.Ltext0:
  17              		.cfi_sections	.debug_frame
  18              		.section	.text.nvicEnableVector,"ax",%progbits
  19              		.align	2
  20              		.global	nvicEnableVector
  21              		.thumb
  22              		.thumb_func
  23              		.type	nvicEnableVector, %function
  24              	nvicEnableVector:
  25              	.LFB7:
  26              		.file 1 "../../os/ports/common/ARMCMx/nvic.c"
  27              		.loc 1 46 0
  28              		.cfi_startproc
  29              		@ args = 0, pretend = 0, frame = 0
  30              		@ frame_needed = 0, uses_anonymous_args = 0
  31              		@ link register save eliminated.
  32              	.LVL0:
  33              		.loc 1 47 0
  34 0000 00F00303 		and	r3, r0, #3
  35              		.loc 1 46 0
  36 0004 30B4     		push	{r4, r5}
  37              		.cfi_def_cfa_offset 8
  38              		.cfi_offset 4, -8
  39              		.cfi_offset 5, -4
  40              		.loc 1 47 0
  41 0006 DB00     		lsls	r3, r3, #3
  42              	.LVL1:
  43              		.loc 1 49 0
  44 0008 FF24     		movs	r4, #255
  45 000a 9C40     		lsls	r4, r4, r3
  46 000c 9940     		lsls	r1, r1, r3
  47              	.LVL2:
  48              		.loc 1 50 0
  49 000e 0122     		movs	r2, #1
  50 0010 00F01F03 		and	r3, r0, #31
  51              	.LVL3:
  52 0014 9A40     		lsls	r2, r2, r3
  53 0016 20F00303 		bic	r3, r0, #3
  54 001a 03F16043 		add	r3, r3, #-536870912
  55 001e 03F56143 		add	r3, r3, #57600
  56              		.loc 1 49 0
  57 0022 D3F80053 		ldr	r5, [r3, #768]
ARM GAS  /tmp/ccPjub5B.s 			page 2


  58              		.loc 1 50 0
  59 0026 4009     		lsrs	r0, r0, #5
  60              	.LVL4:
  61 0028 8000     		lsls	r0, r0, #2
  62              		.loc 1 49 0
  63 002a 25EA0404 		bic	r4, r5, r4
  64 002e 00F16040 		add	r0, r0, #-536870912
  65 0032 0C43     		orrs	r4, r4, r1
  66 0034 00F56140 		add	r0, r0, #57600
  67 0038 C3F80043 		str	r4, [r3, #768]
  68              		.loc 1 50 0
  69 003c C0F88021 		str	r2, [r0, #384]
  70              		.loc 1 52 0
  71 0040 30BC     		pop	{r4, r5}
  72              		.loc 1 51 0
  73 0042 0260     		str	r2, [r0]
  74              		.loc 1 52 0
  75 0044 7047     		bx	lr
  76              		.cfi_endproc
  77              	.LFE7:
  78              		.size	nvicEnableVector, .-nvicEnableVector
  79 0046 00BF     		.section	.text.nvicDisableVector,"ax",%progbits
  80              		.align	2
  81              		.global	nvicDisableVector
  82              		.thumb
  83              		.thumb_func
  84              		.type	nvicDisableVector, %function
  85              	nvicDisableVector:
  86              	.LFB8:
  87              		.loc 1 60 0
  88              		.cfi_startproc
  89              		@ args = 0, pretend = 0, frame = 0
  90              		@ frame_needed = 0, uses_anonymous_args = 0
  91              		@ link register save eliminated.
  92              	.LVL5:
  93 0000 10B4     		push	{r4}
  94              		.cfi_def_cfa_offset 4
  95              		.cfi_offset 4, -4
  96              		.loc 1 63 0
  97 0002 00F01F03 		and	r3, r0, #31
  98 0006 0124     		movs	r4, #1
  99 0008 9C40     		lsls	r4, r4, r3
 100              		.loc 1 61 0
 101 000a 00F00303 		and	r3, r0, #3
 102              		.loc 1 64 0
 103 000e FF22     		movs	r2, #255
 104              		.loc 1 61 0
 105 0010 DB00     		lsls	r3, r3, #3
 106              	.LVL6:
 107              		.loc 1 64 0
 108 0012 02FA03F3 		lsl	r3, r2, r3
 109              	.LVL7:
 110              		.loc 1 63 0
 111 0016 4109     		lsrs	r1, r0, #5
 112 0018 094A     		ldr	r2, .L3
 113 001a 20F00300 		bic	r0, r0, #3
 114              	.LVL8:
ARM GAS  /tmp/ccPjub5B.s 			page 3


 115 001e 2031     		adds	r1, r1, #32
 116 0020 00F16040 		add	r0, r0, #-536870912
 117 0024 42F82140 		str	r4, [r2, r1, lsl #2]
 118 0028 00F56140 		add	r0, r0, #57600
 119              		.loc 1 64 0
 120 002c D0F80023 		ldr	r2, [r0, #768]
 121              		.loc 1 65 0
 122 0030 5DF8044B 		ldr	r4, [sp], #4
 123              		.loc 1 64 0
 124 0034 22EA0303 		bic	r3, r2, r3
 125 0038 C0F80033 		str	r3, [r0, #768]
 126              		.loc 1 65 0
 127 003c 7047     		bx	lr
 128              	.L4:
 129 003e 00BF     		.align	2
 130              	.L3:
 131 0040 00E100E0 		.word	-536813312
 132              		.cfi_endproc
 133              	.LFE8:
 134              		.size	nvicDisableVector, .-nvicDisableVector
 135              		.section	.text.nvicSetSystemHandlerPriority,"ax",%progbits
 136              		.align	2
 137              		.global	nvicSetSystemHandlerPriority
 138              		.thumb
 139              		.thumb_func
 140              		.type	nvicSetSystemHandlerPriority, %function
 141              	nvicSetSystemHandlerPriority:
 142              	.LFB9:
 143              		.loc 1 74 0
 144              		.cfi_startproc
 145              		@ args = 0, pretend = 0, frame = 0
 146              		@ frame_needed = 0, uses_anonymous_args = 0
 147              		@ link register save eliminated.
 148              	.LVL9:
 149              		.loc 1 75 0
 150 0000 00F00303 		and	r3, r0, #3
 151 0004 DB00     		lsls	r3, r3, #3
 152              	.LVL10:
 153              		.loc 1 78 0
 154 0006 FF22     		movs	r2, #255
 155 0008 9A40     		lsls	r2, r2, r3
 156 000a 9940     		lsls	r1, r1, r3
 157              	.LVL11:
 158 000c 20F00300 		bic	r0, r0, #3
 159              	.LVL12:
 160 0010 00F16040 		add	r0, r0, #-536870912
 161 0014 00F56D40 		add	r0, r0, #60672
 162              		.loc 1 77 0
 163 0018 8369     		ldr	r3, [r0, #24]
 164              	.LVL13:
 165 001a 23EA0203 		bic	r3, r3, r2
 166              		.loc 1 78 0
 167 001e 0B43     		orrs	r3, r3, r1
 168              		.loc 1 77 0
 169 0020 8361     		str	r3, [r0, #24]
 170 0022 7047     		bx	lr
 171              		.cfi_endproc
ARM GAS  /tmp/ccPjub5B.s 			page 4


 172              	.LFE9:
 173              		.size	nvicSetSystemHandlerPriority, .-nvicSetSystemHandlerPriority
 174              		.text
 175              	.Letext0:
 176              		.file 2 "/usr/include/newlib/machine/_default_types.h"
 177              		.file 3 "/usr/include/newlib/stdint.h"
 178              		.file 4 "../../os/ports/common/ARMCMx/nvic.h"