ARM GAS  /tmp/ccy0rCKe.s 			page 1


   1              		.syntax unified
   2              		.cpu cortex-m3
   3              		.fpu softvfp
   4              		.eabi_attribute 20, 1
   5              		.eabi_attribute 21, 1
   6              		.eabi_attribute 23, 3
   7              		.eabi_attribute 24, 1
   8              		.eabi_attribute 25, 1
   9              		.eabi_attribute 26, 1
  10              		.eabi_attribute 30, 2
  11              		.eabi_attribute 34, 1
  12              		.eabi_attribute 18, 4
  13              		.thumb
  14              		.file	"pal_lld.c"
  15              		.text
  16              	.Ltext0:
  17              		.cfi_sections	.debug_frame
  18              		.section	.text._pal_lld_init,"ax",%progbits
  19              		.align	2
  20              		.global	_pal_lld_init
  21              		.thumb
  22              		.thumb_func
  23              		.type	_pal_lld_init, %function
  24              	_pal_lld_init:
  25              	.LFB63:
  26              		.file 1 "../../os/hal/platforms/STM32/GPIOv1/pal_lld.c"
  27              		.loc 1 77 0
  28              		.cfi_startproc
  29              		@ args = 0, pretend = 0, frame = 0
  30              		@ frame_needed = 0, uses_anonymous_args = 0
  31              		@ link register save eliminated.
  32              	.LVL0:
  33              		.loc 1 82 0
  34 0000 114B     		ldr	r3, .L2
  35              		.loc 1 77 0
  36 0002 30B4     		push	{r4, r5}
  37              		.cfi_def_cfa_offset 8
  38              		.cfi_offset 4, -8
  39              		.cfi_offset 5, -4
  40              		.loc 1 82 0
  41 0004 9A69     		ldr	r2, [r3, #24]
  42              		.loc 1 87 0
  43 0006 114C     		ldr	r4, .L2+4
  44              		.loc 1 82 0
  45 0008 42F03D02 		orr	r2, r2, #61
  46 000c 9A61     		str	r2, [r3, #24]
  47              		.loc 1 87 0
  48 000e 0368     		ldr	r3, [r0]
  49              		.loc 1 90 0
  50 0010 0F49     		ldr	r1, .L2+8
  51              		.loc 1 87 0
  52 0012 E360     		str	r3, [r4, #12]
  53              		.loc 1 88 0
  54 0014 8368     		ldr	r3, [r0, #8]
  55              		.loc 1 93 0
  56 0016 0F4A     		ldr	r2, .L2+12
  57              		.loc 1 88 0
ARM GAS  /tmp/ccy0rCKe.s 			page 2


  58 0018 6360     		str	r3, [r4, #4]
  59              		.loc 1 89 0
  60 001a 4568     		ldr	r5, [r0, #4]
  61              		.loc 1 96 0
  62 001c 0E4B     		ldr	r3, .L2+16
  63              		.loc 1 89 0
  64 001e 2560     		str	r5, [r4]
  65              		.loc 1 90 0
  66 0020 C468     		ldr	r4, [r0, #12]
  67 0022 CC60     		str	r4, [r1, #12]
  68              		.loc 1 91 0
  69 0024 4469     		ldr	r4, [r0, #20]
  70 0026 4C60     		str	r4, [r1, #4]
  71              		.loc 1 92 0
  72 0028 0469     		ldr	r4, [r0, #16]
  73 002a 0C60     		str	r4, [r1]
  74              		.loc 1 93 0
  75 002c 8169     		ldr	r1, [r0, #24]
  76              		.loc 1 114 0
  77 002e 30BC     		pop	{r4, r5}
  78              		.loc 1 93 0
  79 0030 D160     		str	r1, [r2, #12]
  80              		.loc 1 94 0
  81 0032 016A     		ldr	r1, [r0, #32]
  82 0034 5160     		str	r1, [r2, #4]
  83              		.loc 1 95 0
  84 0036 C169     		ldr	r1, [r0, #28]
  85 0038 1160     		str	r1, [r2]
  86              		.loc 1 96 0
  87 003a 426A     		ldr	r2, [r0, #36]
  88 003c DA60     		str	r2, [r3, #12]
  89              		.loc 1 97 0
  90 003e C26A     		ldr	r2, [r0, #44]
  91 0040 5A60     		str	r2, [r3, #4]
  92              		.loc 1 98 0
  93 0042 826A     		ldr	r2, [r0, #40]
  94 0044 1A60     		str	r2, [r3]
  95              		.loc 1 114 0
  96 0046 7047     		bx	lr
  97              	.L3:
  98              		.align	2
  99              	.L2:
 100 0048 00100240 		.word	1073876992
 101 004c 00080140 		.word	1073809408
 102 0050 000C0140 		.word	1073810432
 103 0054 00100140 		.word	1073811456
 104 0058 00140140 		.word	1073812480
 105              		.cfi_endproc
 106              	.LFE63:
 107              		.size	_pal_lld_init, .-_pal_lld_init
 108              		.section	.text._pal_lld_setgroupmode,"ax",%progbits
 109              		.align	2
 110              		.global	_pal_lld_setgroupmode
 111              		.thumb
 112              		.thumb_func
 113              		.type	_pal_lld_setgroupmode, %function
 114              	_pal_lld_setgroupmode:
ARM GAS  /tmp/ccy0rCKe.s 			page 3


 115              	.LFB64:
 116              		.loc 1 133 0
 117              		.cfi_startproc
 118              		@ args = 0, pretend = 0, frame = 0
 119              		@ frame_needed = 0, uses_anonymous_args = 0
 120              		@ link register save eliminated.
 121              	.LVL1:
 122              		.loc 1 157 0
 123 0000 032A     		cmp	r2, #3
 124              		.loc 1 133 0
 125 0002 F0B4     		push	{r4, r5, r6, r7}
 126              		.cfi_def_cfa_offset 16
 127              		.cfi_offset 4, -16
 128              		.cfi_offset 5, -12
 129              		.cfi_offset 6, -8
 130              		.cfi_offset 7, -4
 131              		.loc 1 157 0
 132 0004 2BD0     		beq	.L15
 133              		.loc 1 159 0
 134 0006 042A     		cmp	r2, #4
 135              		.loc 1 160 0
 136 0008 08BF     		it	eq
 137 000a 4161     		streq	r1, [r0, #20]
 138              	.L6:
 139              		.loc 1 161 0
 140 000c 154C     		ldr	r4, .L16
 141              		.loc 1 162 0
 142 000e 0023     		movs	r3, #0
 143              		.loc 1 161 0
 144 0010 A75C     		ldrb	r7, [r4, r2]	@ zero_extendqisi2
 145              	.LVL2:
 146              		.loc 1 162 0
 147 0012 1D46     		mov	r5, r3
 148 0014 1C46     		mov	r4, r3
 149 0016 1A46     		mov	r2, r3
 150              	.LVL3:
 151              		.loc 1 161 0
 152 0018 0826     		movs	r6, #8
 153              	.LVL4:
 154              	.L12:
 155              		.loc 1 168 0
 156 001a 11F0800F 		tst	r1, #128
 157              		.loc 1 164 0
 158 001e 4FEA0212 		lsl	r2, r2, #4
 159              	.LVL5:
 160              		.loc 1 166 0
 161 0022 4FEA0313 		lsl	r3, r3, #4
 162              	.LVL6:
 163              		.loc 1 165 0
 164 0026 4FEA0515 		lsl	r5, r5, #4
 165              	.LVL7:
 166              		.loc 1 167 0
 167 002a 4FEA0414 		lsl	r4, r4, #4
 168              	.LVL8:
 169              		.loc 1 169 0
 170 002e 0CBF     		ite	eq
 171 0030 42F00F02 		orreq	r2, r2, #15
ARM GAS  /tmp/ccy0rCKe.s 			page 4


 172              	.LVL9:
 173              		.loc 1 171 0
 174 0034 3B43     		orrne	r3, r3, r7
 175              	.LVL10:
 176              		.loc 1 172 0
 177 0036 11F4004F 		tst	r1, #32768
 178              		.loc 1 173 0
 179 003a 0CBF     		ite	eq
 180 003c 45F00F05 		orreq	r5, r5, #15
 181              	.LVL11:
 182              		.loc 1 175 0
 183 0040 3C43     		orrne	r4, r4, r7
 184              	.LVL12:
 185              		.loc 1 163 0
 186 0042 013E     		subs	r6, r6, #1
 187              	.LVL13:
 188              		.loc 1 176 0
 189 0044 4FEA4101 		lsl	r1, r1, #1
 190              	.LVL14:
 191              		.loc 1 163 0
 192 0048 E7D1     		bne	.L12
 193              		.loc 1 178 0
 194 004a 4168     		ldr	r1, [r0, #4]
 195              	.LVL15:
 196 004c 0D40     		ands	r5, r5, r1
 197              	.LVL16:
 198 004e 2C43     		orrs	r4, r4, r5
 199              	.LVL17:
 200 0050 4460     		str	r4, [r0, #4]
 201              		.loc 1 179 0
 202 0052 0168     		ldr	r1, [r0]
 203              		.loc 1 180 0
 204 0054 F0BC     		pop	{r4, r5, r6, r7}
 205              	.LVL18:
 206              		.loc 1 179 0
 207 0056 0A40     		ands	r2, r2, r1
 208              	.LVL19:
 209 0058 1343     		orrs	r3, r3, r2
 210              	.LVL20:
 211 005a 0360     		str	r3, [r0]
 212              		.loc 1 180 0
 213 005c 7047     		bx	lr
 214              	.LVL21:
 215              	.L15:
 216              		.loc 1 158 0
 217 005e 0161     		str	r1, [r0, #16]
 218 0060 D4E7     		b	.L6
 219              	.L17:
 220 0062 00BF     		.align	2
 221              	.L16:
 222 0064 00000000 		.word	.LANCHOR0
 223              		.cfi_endproc
 224              	.LFE64:
 225              		.size	_pal_lld_setgroupmode, .-_pal_lld_setgroupmode
 226              		.section	.rodata.cfgtab.6057,"a",%progbits
 227              		.align	2
 228              		.set	.LANCHOR0,. + 0
ARM GAS  /tmp/ccy0rCKe.s 			page 5


 229              		.type	cfgtab.6057, %object
 230              		.size	cfgtab.6057, 18
 231              	cfgtab.6057:
 232 0000 04       		.byte	4
 233 0001 02       		.byte	2
 234 0002 04       		.byte	4
 235 0003 08       		.byte	8
 236 0004 08       		.byte	8
 237 0005 00       		.byte	0
 238 0006 03       		.byte	3
 239 0007 07       		.byte	7
 240 0008 08       		.byte	8
 241 0009 08       		.byte	8
 242 000a 08       		.byte	8
 243 000b 08       		.byte	8
 244 000c 08       		.byte	8
 245 000d 08       		.byte	8
 246 000e 08       		.byte	8
 247 000f 08       		.byte	8
 248 0010 0B       		.byte	11
 249 0011 0F       		.byte	15
 250 0012 0000     		.text
 251              	.Letext0:
 252              		.file 2 "/usr/include/newlib/machine/_default_types.h"
 253              		.file 3 "/usr/include/newlib/stdint.h"
 254              		.file 4 "../../os/hal/platforms/STM32F1xx/stm32f10x.h"
 255              		.file 5 "../../os/hal/platforms/STM32/GPIOv1/pal_lld.h"
 256              		.file 6 "../../os/ports/common/ARMCMx/CMSIS/include/core_cm3.h"