ARM GAS  /tmp/ccLZ29M4.s 			page 1


   1              		.syntax unified
   2              		.cpu cortex-m3
   3              		.fpu softvfp
   4              		.eabi_attribute 20, 1
   5              		.eabi_attribute 21, 1
   6              		.eabi_attribute 23, 3
   7              		.eabi_attribute 24, 1
   8              		.eabi_attribute 25, 1
   9              		.eabi_attribute 26, 1
  10              		.eabi_attribute 30, 2
  11              		.eabi_attribute 34, 1
  12              		.eabi_attribute 18, 4
  13              		.thumb
  14              		.file	"serial.c"
  15              		.text
  16              	.Ltext0:
  17              		.cfi_sections	.debug_frame
  18              		.section	.text.readt,"ax",%progbits
  19              		.align	2
  20              		.thumb
  21              		.thumb_func
  22              		.type	readt, %function
  23              	readt:
  24              	.LFB70:
  25              		.file 1 "../../os/hal/src/serial.c"
  26              		.loc 1 99 0
  27              		.cfi_startproc
  28              		@ args = 0, pretend = 0, frame = 0
  29              		@ frame_needed = 0, uses_anonymous_args = 0
  30              		@ link register save eliminated.
  31              	.LVL0:
  32              		.loc 1 101 0
  33 0000 0C30     		adds	r0, r0, #12
  34              	.LVL1:
  35 0002 FFF7FEBF 		b	chIQReadTimeout
  36              	.LVL2:
  37              		.cfi_endproc
  38              	.LFE70:
  39              		.size	readt, .-readt
  40 0006 00BF     		.section	.text.read,"ax",%progbits
  41              		.align	2
  42              		.thumb
  43              		.thumb_func
  44              		.type	read, %function
  45              	read:
  46              	.LFB64:
  47              		.loc 1 68 0
  48              		.cfi_startproc
  49              		@ args = 0, pretend = 0, frame = 0
  50              		@ frame_needed = 0, uses_anonymous_args = 0
  51              		@ link register save eliminated.
  52              	.LVL3:
  53              		.loc 1 70 0
  54 0000 0C30     		adds	r0, r0, #12
  55              	.LVL4:
  56 0002 4FF0FF33 		mov	r3, #-1
  57 0006 FFF7FEBF 		b	chIQReadTimeout
ARM GAS  /tmp/ccLZ29M4.s 			page 2


  58              	.LVL5:
  59              		.cfi_endproc
  60              	.LFE64:
  61              		.size	read, .-read
  62 000a 00BF     		.section	.text.writet,"ax",%progbits
  63              		.align	2
  64              		.thumb
  65              		.thumb_func
  66              		.type	writet, %function
  67              	writet:
  68              	.LFB69:
  69              		.loc 1 94 0
  70              		.cfi_startproc
  71              		@ args = 0, pretend = 0, frame = 0
  72              		@ frame_needed = 0, uses_anonymous_args = 0
  73              		@ link register save eliminated.
  74              	.LVL6:
  75              		.loc 1 96 0
  76 0000 3030     		adds	r0, r0, #48
  77              	.LVL7:
  78 0002 FFF7FEBF 		b	chOQWriteTimeout
  79              	.LVL8:
  80              		.cfi_endproc
  81              	.LFE69:
  82              		.size	writet, .-writet
  83 0006 00BF     		.section	.text.write,"ax",%progbits
  84              		.align	2
  85              		.thumb
  86              		.thumb_func
  87              		.type	write, %function
  88              	write:
  89              	.LFB63:
  90              		.loc 1 62 0
  91              		.cfi_startproc
  92              		@ args = 0, pretend = 0, frame = 0
  93              		@ frame_needed = 0, uses_anonymous_args = 0
  94              		@ link register save eliminated.
  95              	.LVL9:
  96              		.loc 1 64 0
  97 0000 3030     		adds	r0, r0, #48
  98              	.LVL10:
  99 0002 4FF0FF33 		mov	r3, #-1
 100 0006 FFF7FEBF 		b	chOQWriteTimeout
 101              	.LVL11:
 102              		.cfi_endproc
 103              	.LFE63:
 104              		.size	write, .-write
 105 000a 00BF     		.section	.text.gett,"ax",%progbits
 106              		.align	2
 107              		.thumb
 108              		.thumb_func
 109              		.type	gett, %function
 110              	gett:
 111              	.LFB68:
 112              		.loc 1 89 0
 113              		.cfi_startproc
 114              		@ args = 0, pretend = 0, frame = 0
ARM GAS  /tmp/ccLZ29M4.s 			page 3


 115              		@ frame_needed = 0, uses_anonymous_args = 0
 116              		@ link register save eliminated.
 117              	.LVL12:
 118              		.loc 1 91 0
 119 0000 0C30     		adds	r0, r0, #12
 120              	.LVL13:
 121 0002 FFF7FEBF 		b	chIQGetTimeout
 122              	.LVL14:
 123              		.cfi_endproc
 124              	.LFE68:
 125              		.size	gett, .-gett
 126 0006 00BF     		.section	.text.get,"ax",%progbits
 127              		.align	2
 128              		.thumb
 129              		.thumb_func
 130              		.type	get, %function
 131              	get:
 132              	.LFB66:
 133              		.loc 1 79 0
 134              		.cfi_startproc
 135              		@ args = 0, pretend = 0, frame = 0
 136              		@ frame_needed = 0, uses_anonymous_args = 0
 137              		@ link register save eliminated.
 138              	.LVL15:
 139              		.loc 1 81 0
 140 0000 0C30     		adds	r0, r0, #12
 141              	.LVL16:
 142 0002 4FF0FF31 		mov	r1, #-1
 143 0006 FFF7FEBF 		b	chIQGetTimeout
 144              	.LVL17:
 145              		.cfi_endproc
 146              	.LFE66:
 147              		.size	get, .-get
 148 000a 00BF     		.section	.text.putt,"ax",%progbits
 149              		.align	2
 150              		.thumb
 151              		.thumb_func
 152              		.type	putt, %function
 153              	putt:
 154              	.LFB67:
 155              		.loc 1 84 0
 156              		.cfi_startproc
 157              		@ args = 0, pretend = 0, frame = 0
 158              		@ frame_needed = 0, uses_anonymous_args = 0
 159              		@ link register save eliminated.
 160              	.LVL18:
 161              		.loc 1 86 0
 162 0000 3030     		adds	r0, r0, #48
 163              	.LVL19:
 164 0002 FFF7FEBF 		b	chOQPutTimeout
 165              	.LVL20:
 166              		.cfi_endproc
 167              	.LFE67:
 168              		.size	putt, .-putt
 169 0006 00BF     		.section	.text.put,"ax",%progbits
 170              		.align	2
 171              		.thumb
ARM GAS  /tmp/ccLZ29M4.s 			page 4


 172              		.thumb_func
 173              		.type	put, %function
 174              	put:
 175              	.LFB65:
 176              		.loc 1 74 0
 177              		.cfi_startproc
 178              		@ args = 0, pretend = 0, frame = 0
 179              		@ frame_needed = 0, uses_anonymous_args = 0
 180              		@ link register save eliminated.
 181              	.LVL21:
 182              		.loc 1 76 0
 183 0000 3030     		adds	r0, r0, #48
 184              	.LVL22:
 185 0002 4FF0FF32 		mov	r2, #-1
 186 0006 FFF7FEBF 		b	chOQPutTimeout
 187              	.LVL23:
 188              		.cfi_endproc
 189              	.LFE65:
 190              		.size	put, .-put
 191 000a 00BF     		.section	.text.sdInit,"ax",%progbits
 192              		.align	2
 193              		.global	sdInit
 194              		.thumb
 195              		.thumb_func
 196              		.type	sdInit, %function
 197              	sdInit:
 198              	.LFB71:
 199              		.loc 1 120 0
 200              		.cfi_startproc
 201              		@ args = 0, pretend = 0, frame = 0
 202              		@ frame_needed = 0, uses_anonymous_args = 0
 203              		@ link register save eliminated.
 204              		.loc 1 122 0
 205 0000 FFF7FEBF 		b	sd_lld_init
 206              	.LVL24:
 207              		.cfi_endproc
 208              	.LFE71:
 209              		.size	sdInit, .-sdInit
 210              		.section	.text.sdObjectInit,"ax",%progbits
 211              		.align	2
 212              		.global	sdObjectInit
 213              		.thumb
 214              		.thumb_func
 215              		.type	sdObjectInit, %function
 216              	sdObjectInit:
 217              	.LFB72:
 218              		.loc 1 140 0
 219              		.cfi_startproc
 220              		@ args = 0, pretend = 0, frame = 0
 221              		@ frame_needed = 0, uses_anonymous_args = 0
 222              	.LVL25:
 223 0000 70B5     		push	{r4, r5, r6, lr}
 224              		.cfi_def_cfa_offset 16
 225              		.cfi_offset 4, -16
 226              		.cfi_offset 5, -12
 227              		.cfi_offset 6, -8
 228              		.cfi_offset 14, -4
ARM GAS  /tmp/ccLZ29M4.s 			page 5


 229              		.loc 1 142 0
 230 0002 0E4D     		ldr	r5, .L11
 231              		.loc 1 140 0
 232 0004 0446     		mov	r4, r0
 233 0006 82B0     		sub	sp, sp, #8
 234              		.cfi_def_cfa_offset 24
 235              		.loc 1 142 0
 236 0008 40F8045B 		str	r5, [r0], #4
 237              	.LVL26:
 238              		.loc 1 144 0
 239 000c 0126     		movs	r6, #1
 240              		.loc 1 145 0
 241 000e 0094     		str	r4, [sp]
 242              		.loc 1 140 0
 243 0010 0B46     		mov	r3, r1
 244 0012 1546     		mov	r5, r2
 245              		.loc 1 143 0
 246 0014 6060     		str	r0, [r4, #4]
 247              		.loc 1 145 0
 248 0016 04F15401 		add	r1, r4, #84
 249              	.LVL27:
 250 001a 04F10C00 		add	r0, r4, #12
 251              		.loc 1 144 0
 252 001e 2672     		strb	r6, [r4, #8]
 253              		.loc 1 145 0
 254 0020 4022     		movs	r2, #64
 255              	.LVL28:
 256 0022 FFF7FEFF 		bl	chIQInit
 257              	.LVL29:
 258              		.loc 1 146 0
 259 0026 0094     		str	r4, [sp]
 260 0028 2B46     		mov	r3, r5
 261 002a 04F13000 		add	r0, r4, #48
 262 002e 04F19401 		add	r1, r4, #148
 263 0032 4022     		movs	r2, #64
 264 0034 FFF7FEFF 		bl	chOQInit
 265              	.LVL30:
 266              		.loc 1 147 0
 267 0038 02B0     		add	sp, sp, #8
 268              		@ sp needed
 269 003a 70BD     		pop	{r4, r5, r6, pc}
 270              	.LVL31:
 271              	.L12:
 272              		.align	2
 273              	.L11:
 274 003c 00000000 		.word	.LANCHOR0
 275              		.cfi_endproc
 276              	.LFE72:
 277              		.size	sdObjectInit, .-sdObjectInit
 278              		.section	.text.sdStart,"ax",%progbits
 279              		.align	2
 280              		.global	sdStart
 281              		.thumb
 282              		.thumb_func
 283              		.type	sdStart, %function
 284              	sdStart:
 285              	.LFB73:
ARM GAS  /tmp/ccLZ29M4.s 			page 6


 286              		.loc 1 159 0
 287              		.cfi_startproc
 288              		@ args = 0, pretend = 0, frame = 0
 289              		@ frame_needed = 0, uses_anonymous_args = 0
 290              	.LVL32:
 291 0000 10B5     		push	{r4, lr}
 292              		.cfi_def_cfa_offset 8
 293              		.cfi_offset 4, -8
 294              		.cfi_offset 14, -4
 295              	.LBB2:
 296              		.loc 1 163 0
 297 0002 2023     		movs	r3, #32
 298              	.LBE2:
 299              		.loc 1 159 0
 300 0004 0446     		mov	r4, r0
 301              	.LBB3:
 302              		.loc 1 163 0
 303              	@ 163 "../../os/hal/src/serial.c" 1
 304 0006 83F31188 		msr     BASEPRI, r3
 305              	@ 0 "" 2
 306              		.thumb
 307              	.LBE3:
 308              		.loc 1 167 0
 309 000a FFF7FEFF 		bl	sd_lld_start
 310              	.LVL33:
 311              		.loc 1 168 0
 312 000e 0223     		movs	r3, #2
 313 0010 2372     		strb	r3, [r4, #8]
 314              	.LBB4:
 315              		.loc 1 169 0
 316 0012 0023     		movs	r3, #0
 317              	@ 169 "../../os/hal/src/serial.c" 1
 318 0014 83F31188 		msr     BASEPRI, r3
 319              	@ 0 "" 2
 320              		.thumb
 321 0018 10BD     		pop	{r4, pc}
 322              	.LBE4:
 323              		.cfi_endproc
 324              	.LFE73:
 325              		.size	sdStart, .-sdStart
 326 001a 00BF     		.section	.text.sdStop,"ax",%progbits
 327              		.align	2
 328              		.global	sdStop
 329              		.thumb
 330              		.thumb_func
 331              		.type	sdStop, %function
 332              	sdStop:
 333              	.LFB74:
 334              		.loc 1 181 0
 335              		.cfi_startproc
 336              		@ args = 0, pretend = 0, frame = 0
 337              		@ frame_needed = 0, uses_anonymous_args = 0
 338              	.LVL34:
 339 0000 10B5     		push	{r4, lr}
 340              		.cfi_def_cfa_offset 8
 341              		.cfi_offset 4, -8
 342              		.cfi_offset 14, -4
ARM GAS  /tmp/ccLZ29M4.s 			page 7


 343              	.LBB5:
 344              		.loc 1 185 0
 345 0002 2023     		movs	r3, #32
 346              	.LBE5:
 347              		.loc 1 181 0
 348 0004 0446     		mov	r4, r0
 349              	.LBB6:
 350              		.loc 1 185 0
 351              	@ 185 "../../os/hal/src/serial.c" 1
 352 0006 83F31188 		msr     BASEPRI, r3
 353              	@ 0 "" 2
 354              		.thumb
 355              	.LBE6:
 356              		.loc 1 189 0
 357 000a FFF7FEFF 		bl	sd_lld_stop
 358              	.LVL35:
 359              		.loc 1 190 0
 360 000e 0123     		movs	r3, #1
 361 0010 2372     		strb	r3, [r4, #8]
 362              		.loc 1 191 0
 363 0012 04F13000 		add	r0, r4, #48
 364 0016 FFF7FEFF 		bl	chOQResetI
 365              	.LVL36:
 366              		.loc 1 192 0
 367 001a 04F10C00 		add	r0, r4, #12
 368 001e FFF7FEFF 		bl	chIQResetI
 369              	.LVL37:
 370              		.loc 1 193 0
 371 0022 FFF7FEFF 		bl	chSchRescheduleS
 372              	.LVL38:
 373              	.LBB7:
 374              		.loc 1 194 0
 375 0026 0023     		movs	r3, #0
 376              	@ 194 "../../os/hal/src/serial.c" 1
 377 0028 83F31188 		msr     BASEPRI, r3
 378              	@ 0 "" 2
 379              		.thumb
 380 002c 10BD     		pop	{r4, pc}
 381              	.LBE7:
 382              		.cfi_endproc
 383              	.LFE74:
 384              		.size	sdStop, .-sdStop
 385 002e 00BF     		.section	.text.sdIncomingDataI,"ax",%progbits
 386              		.align	2
 387              		.global	sdIncomingDataI
 388              		.thumb
 389              		.thumb_func
 390              		.type	sdIncomingDataI, %function
 391              	sdIncomingDataI:
 392              	.LFB75:
 393              		.loc 1 213 0
 394              		.cfi_startproc
 395              		@ args = 0, pretend = 0, frame = 0
 396              		@ frame_needed = 0, uses_anonymous_args = 0
 397              	.LVL39:
 398 0000 38B5     		push	{r3, r4, r5, lr}
 399              		.cfi_def_cfa_offset 16
ARM GAS  /tmp/ccLZ29M4.s 			page 8


 400              		.cfi_offset 3, -16
 401              		.cfi_offset 4, -12
 402              		.cfi_offset 5, -8
 403              		.cfi_offset 14, -4
 404              		.loc 1 218 0
 405 0002 4369     		ldr	r3, [r0, #20]
 406              		.loc 1 213 0
 407 0004 0446     		mov	r4, r0
 408 0006 0D46     		mov	r5, r1
 409              		.loc 1 218 0
 410 0008 3BB1     		cbz	r3, .L19
 411              		.loc 1 220 0
 412 000a 2946     		mov	r1, r5
 413              	.LVL40:
 414 000c 04F10C00 		add	r0, r4, #12
 415              	.LVL41:
 416 0010 FFF7FEFF 		bl	chIQPutI
 417              	.LVL42:
 418 0014 0028     		cmp	r0, #0
 419 0016 0BDB     		blt	.L20
 420              	.L15:
 421 0018 38BD     		pop	{r3, r4, r5, pc}
 422              	.LVL43:
 423              	.L19:
 424              		.loc 1 219 0
 425 001a 0430     		adds	r0, r0, #4
 426              	.LVL44:
 427 001c 0421     		movs	r1, #4
 428              	.LVL45:
 429 001e FFF7FEFF 		bl	chEvtBroadcastFlagsI
 430              	.LVL46:
 431              		.loc 1 220 0
 432 0022 2946     		mov	r1, r5
 433 0024 04F10C00 		add	r0, r4, #12
 434 0028 FFF7FEFF 		bl	chIQPutI
 435              	.LVL47:
 436 002c 0028     		cmp	r0, #0
 437 002e F3DA     		bge	.L15
 438              	.L20:
 439              		.loc 1 221 0
 440 0030 201D     		adds	r0, r4, #4
 441 0032 8021     		movs	r1, #128
 442              		.loc 1 222 0
 443 0034 BDE83840 		pop	{r3, r4, r5, lr}
 444              	.LVL48:
 445              		.loc 1 221 0
 446 0038 FFF7FEBF 		b	chEvtBroadcastFlagsI
 447              	.LVL49:
 448              		.cfi_endproc
 449              	.LFE75:
 450              		.size	sdIncomingDataI, .-sdIncomingDataI
 451              		.section	.text.sdRequestDataI,"ax",%progbits
 452              		.align	2
 453              		.global	sdRequestDataI
 454              		.thumb
 455              		.thumb_func
 456              		.type	sdRequestDataI, %function
ARM GAS  /tmp/ccLZ29M4.s 			page 9


 457              	sdRequestDataI:
 458              	.LFB76:
 459              		.loc 1 239 0
 460              		.cfi_startproc
 461              		@ args = 0, pretend = 0, frame = 0
 462              		@ frame_needed = 0, uses_anonymous_args = 0
 463              	.LVL50:
 464 0000 38B5     		push	{r3, r4, r5, lr}
 465              		.cfi_def_cfa_offset 16
 466              		.cfi_offset 3, -16
 467              		.cfi_offset 4, -12
 468              		.cfi_offset 5, -8
 469              		.cfi_offset 14, -4
 470              		.loc 1 239 0
 471 0002 0446     		mov	r4, r0
 472              		.loc 1 245 0
 473 0004 3030     		adds	r0, r0, #48
 474              	.LVL51:
 475 0006 FFF7FEFF 		bl	chOQGetI
 476              	.LVL52:
 477              		.loc 1 246 0
 478 000a 051E     		subs	r5, r0, #0
 479 000c 01DB     		blt	.L23
 480              		.loc 1 249 0
 481 000e 2846     		mov	r0, r5
 482 0010 38BD     		pop	{r3, r4, r5, pc}
 483              	.LVL53:
 484              	.L23:
 485              		.loc 1 247 0
 486 0012 201D     		adds	r0, r4, #4
 487              	.LVL54:
 488 0014 0821     		movs	r1, #8
 489 0016 FFF7FEFF 		bl	chEvtBroadcastFlagsI
 490              	.LVL55:
 491              		.loc 1 249 0
 492 001a 2846     		mov	r0, r5
 493 001c 38BD     		pop	{r3, r4, r5, pc}
 494              		.cfi_endproc
 495              	.LFE76:
 496              		.size	sdRequestDataI, .-sdRequestDataI
 497 001e 00BF     		.section	.rodata.vmt,"a",%progbits
 498              		.align	2
 499              		.set	.LANCHOR0,. + 0
 500              		.type	vmt, %object
 501              		.size	vmt, 32
 502              	vmt:
 503 0000 00000000 		.word	write
 504 0004 00000000 		.word	read
 505 0008 00000000 		.word	put
 506 000c 00000000 		.word	get
 507 0010 00000000 		.word	putt
 508 0014 00000000 		.word	gett
 509 0018 00000000 		.word	writet
 510 001c 00000000 		.word	readt
 511              		.text
 512              	.Letext0:
 513              		.file 2 "/usr/lib/gcc/arm-none-eabi/4.8/include/stddef.h"
ARM GAS  /tmp/ccLZ29M4.s 			page 10


 514              		.file 3 "/usr/include/newlib/machine/_default_types.h"
 515              		.file 4 "/usr/include/newlib/stdint.h"
 516              		.file 5 "../../os/ports/GCC/ARMCMx/chtypes.h"
 517              		.file 6 "../../os/kernel/include/chlists.h"
 518              		.file 7 "../../os/kernel/include/chthreads.h"
 519              		.file 8 "../../os/ports/GCC/ARMCMx/chcore_v7m.h"
 520              		.file 9 "../../os/kernel/include/chmtx.h"
 521              		.file 10 "../../os/kernel/include/chevents.h"
 522              		.file 11 "../../os/kernel/include/chqueues.h"
 523              		.file 12 "../../os/hal/platforms/STM32F1xx/stm32f10x.h"
 524              		.file 13 "../../os/hal/include/serial.h"
 525              		.file 14 "../../os/hal/platforms/STM32/USARTv1/serial_lld.h"
 526              		.file 15 "../../os/kernel/include/chschd.h"
 527              		.file 16 "../../os/ports/common/ARMCMx/CMSIS/include/core_cm3.h"