ARM GAS  /tmp/ccWyaz7M.s 			page 1


   1              		.syntax unified
   2              		.cpu cortex-m3
   3              		.fpu softvfp
   4              		.eabi_attribute 20, 1
   5              		.eabi_attribute 21, 1
   6              		.eabi_attribute 23, 3
   7              		.eabi_attribute 24, 1
   8              		.eabi_attribute 25, 1
   9              		.eabi_attribute 26, 1
  10              		.eabi_attribute 30, 2
  11              		.eabi_attribute 34, 1
  12              		.eabi_attribute 18, 4
  13              		.thumb
  14              		.file	"serial_lld.c"
  15              		.text
  16              	.Ltext0:
  17              		.cfi_sections	.debug_frame
  18              		.section	.text.notify1,"ax",%progbits
  19              		.align	2
  20              		.thumb
  21              		.thumb_func
  22              		.type	notify1, %function
  23              	notify1:
  24              	.LFB67:
  25              		.file 1 "../../os/hal/platforms/STM32/USARTv1/serial_lld.c"
  26              		.loc 1 203 0
  27              		.cfi_startproc
  28              		@ args = 0, pretend = 0, frame = 0
  29              		@ frame_needed = 0, uses_anonymous_args = 0
  30              		@ link register save eliminated.
  31              	.LVL0:
  32              		.loc 1 206 0
  33 0000 034B     		ldr	r3, .L2
  34 0002 9A89     		ldrh	r2, [r3, #12]
  35 0004 92B2     		uxth	r2, r2
  36 0006 42F08002 		orr	r2, r2, #128
  37 000a 9A81     		strh	r2, [r3, #12]	@ movhi
  38 000c 7047     		bx	lr
  39              	.L3:
  40 000e 00BF     		.align	2
  41              	.L2:
  42 0010 00380140 		.word	1073821696
  43              		.cfi_endproc
  44              	.LFE67:
  45              		.size	notify1, .-notify1
  46              		.section	.text.VectorD4,"ax",%progbits
  47              		.align	2
  48              		.global	VectorD4
  49              		.thumb
  50              		.thumb_func
  51              		.type	VectorD4, %function
  52              	VectorD4:
  53              	.LFB68:
  54              		.loc 1 263 0
  55              		.cfi_startproc
  56              		@ args = 0, pretend = 0, frame = 0
  57              		@ frame_needed = 0, uses_anonymous_args = 0
ARM GAS  /tmp/ccWyaz7M.s 			page 2


  58              	.LVL1:
  59              	.LBB28:
  60              	.LBB29:
  61              		.loc 1 155 0
  62 0000 3A48     		ldr	r0, .L52
  63              	.LBE29:
  64              	.LBE28:
  65              		.loc 1 263 0
  66 0002 70B5     		push	{r4, r5, r6, lr}
  67              		.cfi_def_cfa_offset 16
  68              		.cfi_offset 4, -16
  69              		.cfi_offset 5, -12
  70              		.cfi_offset 6, -8
  71              		.cfi_offset 14, -4
  72              	.LBB43:
  73              	.LBB41:
  74              		.loc 1 155 0
  75 0004 D0F8D450 		ldr	r5, [r0, #212]
  76              	.LVL2:
  77              		.loc 1 156 0
  78 0008 AE89     		ldrh	r6, [r5, #12]
  79              		.loc 1 157 0
  80 000a 2C88     		ldrh	r4, [r5]
  81              		.loc 1 156 0
  82 000c B6B2     		uxth	r6, r6
  83              	.LVL3:
  84              		.loc 1 157 0
  85 000e A4B2     		uxth	r4, r4
  86              	.LVL4:
  87              		.loc 1 160 0
  88 0010 E305     		lsls	r3, r4, #23
  89 0012 44D4     		bmi	.L49
  90              	.L5:
  91              	.LBB30:
  92              		.loc 1 168 0
  93 0014 2023     		movs	r3, #32
  94              	@ 168 "../../os/hal/platforms/STM32/USARTv1/serial_lld.c" 1
  95 0016 83F31188 		msr     BASEPRI, r3
  96              	@ 0 "" 2
  97              		.thumb
  98              	.LBE30:
  99              		.loc 1 169 0
 100 001a A106     		lsls	r1, r4, #26
 101 001c 21D5     		bpl	.L6
 102 001e 08E0     		b	.L12
 103              	.LVL5:
 104              	.L7:
 105              		.loc 1 173 0
 106 0020 A988     		ldrh	r1, [r5, #4]
 107 0022 3248     		ldr	r0, .L52
 108 0024 C9B2     		uxtb	r1, r1
 109 0026 FFF7FEFF 		bl	sdIncomingDataI
 110              	.LVL6:
 111              		.loc 1 174 0
 112 002a 2C88     		ldrh	r4, [r5]
 113 002c A4B2     		uxth	r4, r4
 114              	.LVL7:
ARM GAS  /tmp/ccWyaz7M.s 			page 3


 115              		.loc 1 169 0
 116 002e A006     		lsls	r0, r4, #26
 117 0030 17D5     		bpl	.L6
 118              	.LVL8:
 119              	.L12:
 120              		.loc 1 171 0
 121 0032 2207     		lsls	r2, r4, #28
 122 0034 F4D0     		beq	.L7
 123              	.LVL9:
 124              	.LBB31:
 125              	.LBB32:
 126              		.loc 1 136 0
 127 0036 14F0080F 		tst	r4, #8
 128 003a 14BF     		ite	ne
 129 003c 8021     		movne	r1, #128
 130 003e 0021     		moveq	r1, #0
 131              	.LVL10:
 132              		.loc 1 140 0
 133 0040 14F0010F 		tst	r4, #1
 134              		.loc 1 141 0
 135 0044 18BF     		it	ne
 136 0046 41F02001 		orrne	r1, r1, #32
 137              	.LVL11:
 138              		.loc 1 142 0
 139 004a A307     		lsls	r3, r4, #30
 140              		.loc 1 143 0
 141 004c 48BF     		it	mi
 142 004e 41F04001 		orrmi	r1, r1, #64
 143              	.LVL12:
 144              		.loc 1 144 0
 145 0052 6407     		lsls	r4, r4, #29
 146              	.LVL13:
 147              		.loc 1 146 0
 148 0054 2648     		ldr	r0, .L52+4
 149              		.loc 1 145 0
 150 0056 48BF     		it	mi
 151 0058 41F48071 		orrmi	r1, r1, #256
 152              	.LVL14:
 153              		.loc 1 146 0
 154 005c FFF7FEFF 		bl	chEvtBroadcastFlagsI
 155              	.LVL15:
 156 0060 DEE7     		b	.L7
 157              	.LVL16:
 158              	.L6:
 159              	.LBE32:
 160              	.LBE31:
 161              	.LBB33:
 162              		.loc 1 176 0
 163 0062 0023     		movs	r3, #0
 164              	@ 176 "../../os/hal/platforms/STM32/USARTv1/serial_lld.c" 1
 165 0064 83F31188 		msr     BASEPRI, r3
 166              	@ 0 "" 2
 167              		.thumb
 168              	.LBE33:
 169              		.loc 1 179 0
 170 0068 3106     		lsls	r1, r6, #24
 171 006a 01D5     		bpl	.L13
ARM GAS  /tmp/ccWyaz7M.s 			page 4


 172 006c 2206     		lsls	r2, r4, #24
 173 006e 25D4     		bmi	.L50
 174              	.L13:
 175              		.loc 1 193 0
 176 0070 6306     		lsls	r3, r4, #25
 177 0072 10D5     		bpl	.L16
 178              	.LBB34:
 179              		.loc 1 194 0
 180 0074 2023     		movs	r3, #32
 181              	@ 194 "../../os/hal/platforms/STM32/USARTv1/serial_lld.c" 1
 182 0076 83F31188 		msr     BASEPRI, r3
 183              	@ 0 "" 2
 184              		.thumb
 185              	.LBE34:
 186              		.loc 1 195 0
 187 007a 1D48     		ldr	r0, .L52+4
 188 007c 1021     		movs	r1, #16
 189 007e FFF7FEFF 		bl	chEvtBroadcastFlagsI
 190              	.LVL17:
 191              	.LBB35:
 192              		.loc 1 196 0
 193 0082 0023     		movs	r3, #0
 194              	@ 196 "../../os/hal/platforms/STM32/USARTv1/serial_lld.c" 1
 195 0084 83F31188 		msr     BASEPRI, r3
 196              	@ 0 "" 2
 197              		.thumb
 198              	.LBE35:
 199              		.loc 1 197 0
 200 0088 26F0C006 		bic	r6, r6, #192
 201              	.LVL18:
 202 008c B6B2     		uxth	r6, r6
 203              		.loc 1 198 0
 204 008e 4FF6BF73 		movw	r3, #65471
 205              		.loc 1 197 0
 206 0092 AE81     		strh	r6, [r5, #12]	@ movhi
 207              		.loc 1 198 0
 208 0094 2B80     		strh	r3, [r5]	@ movhi
 209              	.L16:
 210              	.LBE41:
 211              	.LBE43:
 212              		.loc 1 270 0
 213 0096 BDE87040 		pop	{r4, r5, r6, lr}
 214              	.LVL19:
 215              		.loc 1 269 0
 216 009a FFF7FEBF 		b	_port_irq_epilogue
 217              	.LVL20:
 218              	.L49:
 219              	.LBB44:
 220              	.LBB42:
 221              	.LBB36:
 222              		.loc 1 161 0
 223 009e 2023     		movs	r3, #32
 224              	@ 161 "../../os/hal/platforms/STM32/USARTv1/serial_lld.c" 1
 225 00a0 83F31188 		msr     BASEPRI, r3
 226              	@ 0 "" 2
 227              		.thumb
 228              	.LBE36:
ARM GAS  /tmp/ccWyaz7M.s 			page 5


 229              		.loc 1 162 0
 230 00a4 4FF40071 		mov	r1, #512
 231 00a8 0430     		adds	r0, r0, #4
 232 00aa FFF7FEFF 		bl	chEvtBroadcastFlagsI
 233              	.LVL21:
 234              	.LBB37:
 235              		.loc 1 163 0
 236 00ae 0023     		movs	r3, #0
 237              	@ 163 "../../os/hal/platforms/STM32/USARTv1/serial_lld.c" 1
 238 00b0 83F31188 		msr     BASEPRI, r3
 239              	@ 0 "" 2
 240              		.thumb
 241              	.LBE37:
 242              		.loc 1 164 0
 243 00b4 4FF6FF63 		movw	r3, #65279
 244 00b8 2B80     		strh	r3, [r5]	@ movhi
 245 00ba ABE7     		b	.L5
 246              	.LVL22:
 247              	.L50:
 248              	.LBB38:
 249              	.LBB39:
 250              		.loc 1 181 0
 251 00bc 2023     		movs	r3, #32
 252              	@ 181 "../../os/hal/platforms/STM32/USARTv1/serial_lld.c" 1
 253 00be 83F31188 		msr     BASEPRI, r3
 254              	@ 0 "" 2
 255              		.thumb
 256              	.LBE39:
 257              		.loc 1 182 0
 258 00c2 0C48     		ldr	r0, .L52+8
 259 00c4 FFF7FEFF 		bl	chOQGetI
 260              	.LVL23:
 261              		.loc 1 183 0
 262 00c8 0028     		cmp	r0, #0
 263 00ca 05DB     		blt	.L51
 264              		.loc 1 188 0
 265 00cc 80B2     		uxth	r0, r0
 266              	.LVL24:
 267 00ce A880     		strh	r0, [r5, #4]	@ movhi
 268              	.L15:
 269              	.LBB40:
 270              		.loc 1 189 0
 271 00d0 0023     		movs	r3, #0
 272              	@ 189 "../../os/hal/platforms/STM32/USARTv1/serial_lld.c" 1
 273 00d2 83F31188 		msr     BASEPRI, r3
 274              	@ 0 "" 2
 275              		.thumb
 276 00d6 CBE7     		b	.L13
 277              	.LVL25:
 278              	.L51:
 279              	.LBE40:
 280              		.loc 1 184 0
 281 00d8 0548     		ldr	r0, .L52+4
 282              	.LVL26:
 283 00da 0821     		movs	r1, #8
 284 00dc FFF7FEFF 		bl	chEvtBroadcastFlagsI
 285              	.LVL27:
ARM GAS  /tmp/ccWyaz7M.s 			page 6


 286              		.loc 1 185 0
 287 00e0 26F0C003 		bic	r3, r6, #192
 288 00e4 43F04003 		orr	r3, r3, #64
 289 00e8 AB81     		strh	r3, [r5, #12]	@ movhi
 290 00ea F1E7     		b	.L15
 291              	.L53:
 292              		.align	2
 293              	.L52:
 294 00ec 00000000 		.word	.LANCHOR0
 295 00f0 04000000 		.word	.LANCHOR0+4
 296 00f4 30000000 		.word	.LANCHOR0+48
 297              	.LBE38:
 298              	.LBE42:
 299              	.LBE44:
 300              		.cfi_endproc
 301              	.LFE68:
 302              		.size	VectorD4, .-VectorD4
 303              		.section	.text.sd_lld_init,"ax",%progbits
 304              		.align	2
 305              		.global	sd_lld_init
 306              		.thumb
 307              		.thumb_func
 308              		.type	sd_lld_init, %function
 309              	sd_lld_init:
 310              	.LFB69:
 311              		.loc 1 377 0
 312              		.cfi_startproc
 313              		@ args = 0, pretend = 0, frame = 0
 314              		@ frame_needed = 0, uses_anonymous_args = 0
 315 0000 10B5     		push	{r4, lr}
 316              		.cfi_def_cfa_offset 8
 317              		.cfi_offset 4, -8
 318              		.cfi_offset 14, -4
 319              		.loc 1 380 0
 320 0002 054C     		ldr	r4, .L55
 321 0004 0021     		movs	r1, #0
 322 0006 2046     		mov	r0, r4
 323 0008 044A     		ldr	r2, .L55+4
 324 000a FFF7FEFF 		bl	sdObjectInit
 325              	.LVL28:
 326              		.loc 1 381 0
 327 000e 044B     		ldr	r3, .L55+8
 328 0010 C4F8D430 		str	r3, [r4, #212]
 329 0014 10BD     		pop	{r4, pc}
 330              	.L56:
 331 0016 00BF     		.align	2
 332              	.L55:
 333 0018 00000000 		.word	.LANCHOR0
 334 001c 00000000 		.word	notify1
 335 0020 00380140 		.word	1073821696
 336              		.cfi_endproc
 337              	.LFE69:
 338              		.size	sd_lld_init, .-sd_lld_init
 339              		.section	.text.sd_lld_start,"ax",%progbits
 340              		.align	2
 341              		.global	sd_lld_start
 342              		.thumb
ARM GAS  /tmp/ccWyaz7M.s 			page 7


 343              		.thumb_func
 344              		.type	sd_lld_start, %function
 345              	sd_lld_start:
 346              	.LFB70:
 347              		.loc 1 420 0
 348              		.cfi_startproc
 349              		@ args = 0, pretend = 0, frame = 0
 350              		@ frame_needed = 0, uses_anonymous_args = 0
 351              	.LVL29:
 352 0000 38B5     		push	{r3, r4, r5, lr}
 353              		.cfi_def_cfa_offset 16
 354              		.cfi_offset 3, -16
 355              		.cfi_offset 4, -12
 356              		.cfi_offset 5, -8
 357              		.cfi_offset 14, -4
 358              		.loc 1 425 0
 359 0002 037A     		ldrb	r3, [r0, #8]	@ zero_extendqisi2
 360              		.loc 1 423 0
 361 0004 184C     		ldr	r4, .L64
 362              		.loc 1 420 0
 363 0006 0546     		mov	r5, r0
 364              		.loc 1 423 0
 365 0008 0029     		cmp	r1, #0
 366 000a 18BF     		it	ne
 367 000c 0C46     		movne	r4, r1
 368              	.LVL30:
 369              		.loc 1 425 0
 370 000e 012B     		cmp	r3, #1
 371 0010 1DD0     		beq	.L63
 372              	.LVL31:
 373              	.L59:
 374              	.LBB45:
 375              	.LBB46:
 376              		.loc 1 101 0
 377 0012 2268     		ldr	r2, [r4]
 378 0014 1549     		ldr	r1, .L64+4
 379              	.LBE46:
 380              	.LBE45:
 381              		.loc 1 420 0
 382 0016 D5F8D430 		ldr	r3, [r5, #212]
 383              	.LVL32:
 384              	.LBB48:
 385              	.LBB47:
 386              		.loc 1 101 0
 387 001a B1FBF2F2 		udiv	r2, r1, r2
 388 001e 92B2     		uxth	r2, r2
 389 0020 1A81     		strh	r2, [r3, #8]	@ movhi
 390              		.loc 1 108 0
 391 0022 A288     		ldrh	r2, [r4, #4]
 392              		.loc 1 106 0
 393 0024 E188     		ldrh	r1, [r4, #6]
 394              		.loc 1 107 0
 395 0026 2089     		ldrh	r0, [r4, #8]
 396              		.loc 1 108 0
 397 0028 42F40452 		orr	r2, r2, #8448
 398              		.loc 1 106 0
 399 002c 41F04004 		orr	r4, r1, #64
ARM GAS  /tmp/ccWyaz7M.s 			page 8


 400              	.LVL33:
 401              		.loc 1 108 0
 402 0030 42F02C02 		orr	r2, r2, #44
 403              		.loc 1 107 0
 404 0034 40F00100 		orr	r0, r0, #1
 405              		.loc 1 108 0
 406 0038 92B2     		uxth	r2, r2
 407              		.loc 1 106 0
 408 003a A4B2     		uxth	r4, r4
 409              		.loc 1 107 0
 410 003c 80B2     		uxth	r0, r0
 411              		.loc 1 111 0
 412 003e 0021     		movs	r1, #0
 413              		.loc 1 106 0
 414 0040 1C82     		strh	r4, [r3, #16]	@ movhi
 415              		.loc 1 107 0
 416 0042 9882     		strh	r0, [r3, #20]	@ movhi
 417              		.loc 1 108 0
 418 0044 9A81     		strh	r2, [r3, #12]	@ movhi
 419              		.loc 1 111 0
 420 0046 1980     		strh	r1, [r3]	@ movhi
 421              		.loc 1 112 0
 422 0048 1A88     		ldrh	r2, [r3]
 423              		.loc 1 113 0
 424 004a 9B88     		ldrh	r3, [r3, #4]
 425              	.LVL34:
 426 004c 38BD     		pop	{r3, r4, r5, pc}
 427              	.LVL35:
 428              	.L63:
 429              	.LBE47:
 430              	.LBE48:
 431              		.loc 1 427 0
 432 004e 084B     		ldr	r3, .L64+8
 433 0050 9842     		cmp	r0, r3
 434 0052 DED1     		bne	.L59
 435              		.loc 1 428 0
 436 0054 074B     		ldr	r3, .L64+12
 437              		.loc 1 429 0
 438 0056 2520     		movs	r0, #37
 439              	.LVL36:
 440              		.loc 1 428 0
 441 0058 9A69     		ldr	r2, [r3, #24]
 442              		.loc 1 429 0
 443 005a C021     		movs	r1, #192
 444              		.loc 1 428 0
 445 005c 42F48042 		orr	r2, r2, #16384
 446 0060 9A61     		str	r2, [r3, #24]
 447              		.loc 1 429 0
 448 0062 FFF7FEFF 		bl	nvicEnableVector
 449              	.LVL37:
 450 0066 D4E7     		b	.L59
 451              	.L65:
 452              		.align	2
 453              	.L64:
 454 0068 00000000 		.word	.LANCHOR1
 455 006c 00366E01 		.word	24000000
 456 0070 00000000 		.word	.LANCHOR0
ARM GAS  /tmp/ccWyaz7M.s 			page 9


 457 0074 00100240 		.word	1073876992
 458              		.cfi_endproc
 459              	.LFE70:
 460              		.size	sd_lld_start, .-sd_lld_start
 461              		.section	.text.sd_lld_stop,"ax",%progbits
 462              		.align	2
 463              		.global	sd_lld_stop
 464              		.thumb
 465              		.thumb_func
 466              		.type	sd_lld_stop, %function
 467              	sd_lld_stop:
 468              	.LFB71:
 469              		.loc 1 481 0
 470              		.cfi_startproc
 471              		@ args = 0, pretend = 0, frame = 0
 472              		@ frame_needed = 0, uses_anonymous_args = 0
 473              		@ link register save eliminated.
 474              	.LVL38:
 475              		.loc 1 483 0
 476 0000 037A     		ldrb	r3, [r0, #8]	@ zero_extendqisi2
 477 0002 022B     		cmp	r3, #2
 478 0004 00D0     		beq	.L70
 479              	.L66:
 480 0006 7047     		bx	lr
 481              	.L70:
 482              		.loc 1 486 0
 483 0008 0849     		ldr	r1, .L71
 484              		.loc 1 484 0
 485 000a D0F8D430 		ldr	r3, [r0, #212]
 486              	.LVL39:
 487              	.LBB49:
 488              	.LBB50:
 489              		.loc 1 124 0
 490 000e 0022     		movs	r2, #0
 491              	.LBE50:
 492              	.LBE49:
 493              		.loc 1 486 0
 494 0010 8842     		cmp	r0, r1
 495              	.LBB52:
 496              	.LBB51:
 497              		.loc 1 124 0
 498 0012 9A81     		strh	r2, [r3, #12]	@ movhi
 499              		.loc 1 125 0
 500 0014 1A82     		strh	r2, [r3, #16]	@ movhi
 501              		.loc 1 126 0
 502 0016 9A82     		strh	r2, [r3, #20]	@ movhi
 503              	.LBE51:
 504              	.LBE52:
 505              		.loc 1 486 0
 506 0018 F5D1     		bne	.L66
 507              		.loc 1 487 0
 508 001a 054B     		ldr	r3, .L71+4
 509              	.LVL40:
 510              		.loc 1 488 0
 511 001c 2520     		movs	r0, #37
 512              	.LVL41:
 513              		.loc 1 487 0
ARM GAS  /tmp/ccWyaz7M.s 			page 10


 514 001e 9A69     		ldr	r2, [r3, #24]
 515 0020 22F48042 		bic	r2, r2, #16384
 516 0024 9A61     		str	r2, [r3, #24]
 517              		.loc 1 488 0
 518 0026 FFF7FEBF 		b	nvicDisableVector
 519              	.LVL42:
 520              	.L72:
 521 002a 00BF     		.align	2
 522              	.L71:
 523 002c 00000000 		.word	.LANCHOR0
 524 0030 00100240 		.word	1073876992
 525              		.cfi_endproc
 526              	.LFE71:
 527              		.size	sd_lld_stop, .-sd_lld_stop
 528              		.global	SD1
 529              		.section	.rodata.default_config,"a",%progbits
 530              		.align	2
 531              		.set	.LANCHOR1,. + 0
 532              		.type	default_config, %object
 533              		.size	default_config, 12
 534              	default_config:
 535 0000 00960000 		.word	38400
 536 0004 0000     		.short	0
 537 0006 0040     		.short	16384
 538 0008 0000     		.short	0
 539 000a 0000     		.space	2
 540              		.section	.bss.SD1,"aw",%nobits
 541              		.align	2
 542              		.set	.LANCHOR0,. + 0
 543              		.type	SD1, %object
 544              		.size	SD1, 216
 545              	SD1:
 546 0000 00000000 		.space	216
 546      00000000 
 546      00000000 
 546      00000000 
 546      00000000 
 547              		.text
 548              	.Letext0:
 549              		.file 2 "/usr/lib/gcc/arm-none-eabi/4.8/include/stddef.h"
 550              		.file 3 "/usr/include/newlib/machine/_default_types.h"
 551              		.file 4 "/usr/include/newlib/stdint.h"
 552              		.file 5 "../../os/ports/GCC/ARMCMx/chtypes.h"
 553              		.file 6 "../../os/kernel/include/chlists.h"
 554              		.file 7 "../../os/kernel/include/chthreads.h"
 555              		.file 8 "../../os/ports/GCC/ARMCMx/chcore_v7m.h"
 556              		.file 9 "../../os/kernel/include/chmtx.h"
 557              		.file 10 "../../os/kernel/include/chevents.h"
 558              		.file 11 "../../os/kernel/include/chqueues.h"
 559              		.file 12 "../../os/hal/platforms/STM32F1xx/stm32f10x.h"
 560              		.file 13 "../../os/hal/include/serial.h"
 561              		.file 14 "../../os/hal/platforms/STM32/USARTv1/serial_lld.h"
 562              		.file 15 "../../os/ports/common/ARMCMx/nvic.h"
 563              		.file 16 "../../os/ports/common/ARMCMx/CMSIS/include/core_cm3.h"