ARM GAS  /tmp/ccWyaz7M.s 			page 1


   1              		.syntax unified
   2              		.cpu cortex-m3
   3              		.fpu softvfp
   4              		.eabi_attribute 20, 1
   5              		.eabi_attribute 21, 1
   6              		.eabi_attribute 23, 3
   7              		.eabi_attribute 24, 1
   8              		.eabi_attribute 25, 1
   9              		.eabi_attribute 26, 1
  10              		.eabi_attribute 30, 2
  11              		.eabi_attribute 34, 1
  12              		.eabi_attribute 18, 4
  13              		.thumb
  14              		.file	"serial_lld.c"
  15              		.text
  16              	.Ltext0:
  17              		.cfi_sections	.debug_frame
  18              		.section	.text.notify1,"ax",%progbits
  19              		.align	2
  20              		.thumb
  21              		.thumb_func
  22              		.type	notify1, %function
  23              	notify1:
  24              	.LFB67:
  25              		.file 1 "../../os/hal/platforms/STM32/USARTv1/serial_lld.c"
  26              		.loc 1 203 0
  27              		.cfi_startproc
  28              		@ args = 0, pretend = 0, frame = 0
  29              		@ frame_needed = 0, uses_anonymous_args = 0
  30              		@ link register save eliminated.
  31              	.LVL0:
  32              		.loc 1 206 0
  33 0000 034B     		ldr	r3, .L2
  34 0002 9A89     		ldrh	r2, [r3, #12]
  35 0004 92B2     		uxth	r2, r2
  36 0006 42F08002 		orr	r2, r2, #128
  37 000a 9A81     		strh	r2, [r3, #12]	@ movhi
  38 000c 7047     		bx	lr
  39              	.L3:
  40 000e 00BF     		.align	2
  41              	.L2:
  42 0010 00380140 		.word	1073821696
  43              		.cfi_endproc
  44              	.LFE67:
  45              		.size	notify1, .-notify1
  46              		.section	.text.VectorD4,"ax",%progbits
  47              		.align	2
  48              		.global	VectorD4
  49              		.thumb
  50              		.thumb_func
  51              		.type	VectorD4, %function
  52              	VectorD4:
  53              	.LFB68:
  54              		.loc 1 263 0
  55              		.cfi_startproc
  56              		@ args = 0, pretend = 0, frame = 0
  57              		@ frame_needed = 0, uses_anonymous_args = 0
ARM GAS  /tmp/ccWyaz7M.s 			page 2


  58              	.LVL1:
  59              	.LBB28:
  60              	.LBB29:
  61              		.loc 1 155 0
  62 0000 3A48     		ldr	r0, .L52
  63              	.LBE29:
  64              	.LBE28:
  65              		.loc 1 263 0
  66 0002 70B5     		push	{r4, r5, r6, lr}
  67              		.cfi_def_cfa_offset 16
  68              		.cfi_offset 4, -16
  69              		.cfi_offset 5, -12
  70              		.cfi_offset 6, -8
  71              		.cfi_offset 14, -4
  72              	.LBB43:
  73              	.LBB41:
  74              		.loc 1 155 0
  75 0004 D0F8D450 		ldr	r5, [r0, #212]
  76              	.LVL2:
  77              		.loc 1 156 0
  78 0008 AE89     		ldrh	r6, [r5, #12]
  79              		.loc 1 157 0
  80 000a 2C88     		ldrh	r4, [r5]
  81              		.loc 1 156 0
  82 000c B6B2     		uxth	r6, r6
  83              	.LVL3:
  84              		.loc 1 157 0
  85 000e A4B2     		uxth	r4, r4
  86              	.LVL4:
  87              		.loc 1 160 0
  88 0010 E305     		lsls	r3, r4, #23
  89 0012 44D4     		bmi	.L49
  90              	.L5:
  91              	.LBB30:
  92              		.loc 1 168 0
  93 0014 2023     		movs	r3, #32
  94              	@ 168 "../../os/hal/platforms/STM32/USARTv1/serial_lld.c" 1
  95 0016 83F31188 		msr     BASEPRI, r3
  96              	@ 0 "" 2
  97              		.thumb
  98              	.LBE30:
  99              		.loc 1 169 0
 100 001a A106     		lsls	r1, r4, #26
 101 001c 21D5     		bpl	.L6
 102 001e 08E0     		b	.L12
 103              	.LVL5:
 104              	.L7:
 105              		.loc 1 173 0
 106 0020 A988     		ldrh	r1, [r5, #4]
 107 0022 3248     		ldr	r0, .L52
 108 0024 C9B2     		uxtb	r1, r1
 109 0026 FFF7FEFF 		bl	sdIncomingDataI
 110              	.LVL6:
 111              		.loc 1 174 0
 112 002a 2C88     		ldrh	r4, [r5]
 113 002c A4B2     		uxth	r4, r4
 114              	.LVL7:
ARM GAS  /tmp/ccWyaz7M.s 			page 3


 115              		.loc 1 169 0
 116 002e A006     		lsls	r0, r4, #26
 117 0030 17D5     		bpl	.L6
 118              	.LVL8:
 119              	.L12:
 120              		.loc 1 171 0
 121 0032 2207     		lsls	r2, r4, #28
 122 0034 F4D0     		beq	.L7
 123              	.LVL9:
 124              	.LBB31:
 125              	.LBB32:
 126              		.loc 1 136 0
 127 0036 14F0080F 		tst	r4, #8
 128 003a 14BF     		ite	ne
 129 003c 8021     		movne	r1, #128
 130 003e 0021     		moveq	r1, #0
 131              	.LVL10:
 132              		.loc 1 140 0
 133 0040 14F0010F 		tst	r4, #1
 134              		.loc 1 141 0
 135 0044 18BF     		it	ne
 136 0046 41F02001 		orrne	r1, r1, #32
 137              	.LVL11:
 138              		.loc 1 142 0
 139 004a A307     		lsls	r3, r4, #30
 140              		.loc 1 143 0
 141 004c 48BF     		it	mi
 142 004e 41F04001 		orrmi	r1, r1, #64
 143              	.LVL12:
 144              		.loc 1 144 0
 145 0052 6407     		lsls	r4, r4, #29
 146              	.LVL13:
 147              		.loc 1 146 0
 148 0054 2648     		ldr	r0, .L52+4
 149              		.loc 1 145 0
 150 0056 48BF     		it	mi
 151 0058 41F48071 		orrmi	r1, r1, #256
 152              	.LVL14:
 153              		.loc 1 146 0
 154 005c FFF7FEFF 		bl	chEvtBroadcastFlagsI
 155              	.LVL15:
 156 0060 DEE7     		b	.L7
 157              	.LVL16:
 158              	.L6:
 159              	.LBE32:
 160              	.LBE31:
 161              	.LBB33:
 162              		.loc 1 176 0
 163 0062 0023     		movs	r3, #0
 164              	@ 176 "../../os/hal/platforms/STM32/USARTv1/serial_lld.c" 1
 165 0064 83F31188 		msr     BASEPRI, r3
 166              	@ 0 "" 2
 167              		.thumb
 168              	.LBE33:
 169              		.loc 1 179 0
 170 0068 3106     		lsls	r1, r6, #24
 171 006a 01D5     		bpl	.L13
ARM GAS  /tmp/ccWyaz7M.s 			page 4


 172 006c 2206     		lsls	r2, r4, #24
 173 006e 25D4     		bmi	.L50
 174              	.L13:
 175              		.loc 1 193 0
 176 0070 6306     		lsls	r3, r4, #25
 177 0072 10D5     		bpl	.L16
 178              	.LBB34:
 179              		.loc 1 194 0
 180 0074 2023     		movs	r3, #32
 181              	@ 194 "../../os/hal/platforms/STM32/USARTv1/serial_lld.c" 1
 182 0076 83F31188 		msr     BASEPRI, r3
 183              	@ 0 "" 2
 184              		.thumb
 185              	.LBE34:
 186              		.loc 1 195 0
 187 007a 1D48     		ldr	r0, .L52+4
 188 007c 1021     		movs	r1, #16
 189 007e FFF7FEFF 		bl	chEvtBroadcastFlagsI
 190              	.LVL17:
 191              	.LBB35:
 192              		.loc 1 196 0
 193 0082 0023     		movs	r3, #0
 194              	@ 196 "../../os/hal/platforms/STM32/USARTv1/serial_lld.c" 1
 195 0084 83F31188 		msr     BASEPRI, r3
 196              	@ 0 "" 2
 197              		.thumb
 198              	.LBE35:
 199              		.loc 1 197 0
 200 0088 26F0C006 		bic	r6, r6, #192
 201              	.LVL18:
 202 008c B6B2     		uxth	r6, r6
 203              		.loc 1 198 0
 204 008e 4FF6BF73 		movw	r3, #65471
 205              		.loc 1 197 0
 206 0092 AE81     		strh	r6, [r5, #12]	@ movhi
 207              		.loc 1 198 0
 208 0094 2B80     		strh	r3, [r5]	@ movhi
 209              	.L16:
 210              	.LBE41:
 211              	.LBE43:
 212              		.loc 1 270 0
 213 0096 BDE87040 		pop	{r4, r5, r6, lr}
 214              	.LVL19:
 215              		.loc 1 269 0
 216 009a FFF7FEBF 		b	_port_irq_epilogue
 217              	.LVL20:
 218              	.L49:
 219              	.LBB44:
 220              	.LBB42:
 221              	.LBB36:
 222              		.loc 1 161 0
 223 009e 2023     		movs	r3, #32
 224              	@ 161 "../../os/hal/platforms/STM32/USARTv1/serial_lld.c" 1
 225 00a0 83F31188 		msr     BASEPRI, r3
 226              	@ 0 "" 2
 227              		.thumb
 228              	.LBE36:
ARM GAS  /tmp/ccWyaz7M.s 			page 5


 229              		.loc 1 162 0
 230 00a4 4FF40071 		mov	r1, #512
 231 00a8 0430     		adds	r0, r0, #4
 232 00aa FFF7FEFF 		bl	chEvtBroadcastFlagsI
 233              	.LVL21:
 234              	.LBB37:
 235              		.loc 1 163 0
 236 00ae 0023     		movs	r3, #0
 237              	@ 163 "../../os/hal/platforms/STM32/USARTv1/serial_lld.c" 1
 238 00b0 83F31188 		msr     BASEPRI, r3
 239              	@ 0 "" 2
 240              		.thumb
 241              	.LBE37:
 242              		.loc 1 164 0
 243 00b4 4FF6FF63 		movw	r3, #65279
 244 00b8 2B80     		strh	r3, [r5]	@ movhi
 245 00ba ABE7     		b	.L5
 246              	.LVL22:
 247              	.L50:
 248              	.LBB38:
 249              	.LBB39:
 250              		.loc 1 181 0
 251 00bc 2023     		movs	r3, #32
 252              	@ 181 "../../os/hal/platforms/STM32/USARTv1/serial_lld.c" 1
 253 00be 83F31188 		msr     BASEPRI, r3
 254              	@ 0 "" 2
 255              		.thumb
 256              	.LBE39:
 257              		.loc 1 182 0
 258 00c2 0C48     		ldr	r0, .L52+8
 259 00c4 FFF7FEFF 		bl	chOQGetI
 260              	.LVL23:
 261              		.loc 1 183 0
 262 00c8 0028     		cmp	r0, #0
 263 00ca 05DB     		blt	.L51
 264              		.loc 1 188 0
 265 00cc 80B2     		uxth	r0, r0
 266              	.LVL24:
 267 00ce A880     		strh	r0, [r5, #4]	@ movhi
 268              	.L15:
 269              	.LBB40:
 270              		.loc 1 189 0
 271 00d0 0023     		movs	r3, #0
 272              	@ 189 "../../os/hal/platforms/STM32/USARTv1/serial_lld.c" 1
 273 00d2 83F31188 		msr     BASEPRI, r3
 274              	@ 0 "" 2
 275              		.thumb
 276 00d6 CBE7     		b	.L13
 277              	.LVL25:
 278              	.L51:
 279              	.LBE40:
 280              		.loc 1 184 0
 281 00d8 0548     		ldr	r0, .L52+4
 282              	.LVL26:
 283 00da 0821     		movs	r1, #8
 284 00dc FFF7FEFF 		bl	chEvtBroadcastFlagsI
 285              	.LVL27:
ARM GAS  /tmp/ccWyaz7M.s 			page 6


 286              		.loc 1 185 0
 287 00e0 26F0C003 		bic	r3, r6, #192
 288 00e4 43F04003 		orr	r3, r3, #64
 289 00e8 AB81     		strh	r3, [r5, #12]	@ movhi
 290 00ea F1E7     		b	.L15
 291              	.L53:
 292              		.align	2
 293              	.L52:
 294 00ec 00000000 		.word	.LANCHOR0
 295 00f0 04000000 		.word	.LANCHOR0+4
 296 00f4 30000000 		.word	.LANCHOR0+48
 297              	.LBE38:
 298              	.LBE42:
 299              	.LBE44:
 300              		.cfi_endproc
 301              	.LFE68:
 302              		.size	VectorD4, .-VectorD4
 303              		.section	.text.sd_lld_init,"ax",%progbits
 304              		.align	2
 305              		.global	sd_lld_init
 306              		.thumb
 307              		.thumb_func
 308              		.type	sd_lld_init, %function
 309              	sd_lld_init:
 310              	.LFB69:
 311              		.loc 1 377 0
 312              		.cfi_startproc
 313              		@ args = 0, pretend = 0, frame = 0
 314              		@ frame_needed = 0, uses_anonymous_args = 0
 315 0000 10B5     		push	{r4, lr}
 316              		.cfi_def_cfa_offset 8
 317              		.cfi_offset 4, -8
 318              		.cfi_offset 14, -4
 319              		.loc 1 380 0
 320 0002 054C     		ldr	r4, .L55
 321 0004 0021     		movs	r1, #0
 322 0006 2046     		mov	r0, r4
 323 0008 044A     		ldr	r2, .L55+4
 324 000a FFF7FEFF 		bl	sdObjectInit
 325              	.LVL28:
 326              		.loc 1 381 0
 327 000e 044B     		ldr	r3, .L55+8
 328 0010 C4F8D430 		str	r3, [r4, #212]
 329 0014 10BD     		pop	{r4, pc}
 330              	.L56:
 331 0016 00BF     		.align	2
 332              	.L55:
 333 0018 00000000 		.word	.LANCHOR0
 334 001c 00000000 		.word	notify1
 335 0020 00380140 		.word	1073821696
 336              		.cfi_endproc
 337              	.LFE69:
 338              		.size	sd_lld_init, .-sd_lld_init
 339              		.section	.text.sd_lld_start,"ax",%progbits
 340              		.align	2
 341              		.global	sd_lld_start
 342              		.thumb
ARM GAS  /tmp/ccWyaz7M.s 			page 7


 343              		.thumb_func
 344              		.type	sd_lld_start, %function
 345              	sd_lld_start:
 346              	.LFB70:
 347              		.loc 1 420 0
 348              		.cfi_startproc
 349              		@ args = 0, pretend = 0, frame = 0
 350              		@ frame_needed = 0, uses_anonymous_args = 0
 351              	.LVL29:
 352 0000 38B5     		push	{r3, r4, r5, lr}
 353              		.cfi_def_cfa_offset 16
 354              		.cfi_offset 3, -16
 355              		.cfi_offset 4, -12
 356              		.cfi_offset 5, -8
 357              		.cfi_offset 14, -4
 358              		.loc 1 425 0
 359 0002 037A     		ldrb	r3, [r0, #8]	@ zero_extendqisi2
 360              		.loc 1 423 0
 361 0004 184C     		ldr	r4, .L64
 362              		.loc 1 420 0
 363 0006 0546     		mov	r5, r0
 364              		.loc 1 423 0
 365 0008 0029     		cmp	r1, #0
 366 000a 18BF     		it	ne
 367 000c 0C46     		movne	r4, r1
 368              	.LVL30:
 369              		.loc 1 425 0
 370 000e 012B     		cmp	r3, #1
 371 0010 1DD0     		beq	.L63
 372              	.LVL31:
 373              	.L59:
 374              	.LBB45:
 375              	.LBB46:
 376              		.loc 1 101 0
 377 0012 2268     		ldr	r2, [r4]
 378 0014 1549     		ldr	r1, .L64+4
 379              	.LBE46:
 380              	.LBE45:
 381              		.loc 1 420 0
 382 0016 D5F8D430 		ldr	r3, [r5, #212]
 383              	.LVL32:
 384              	.LBB48:
 385              	.LBB47:
 386              		.loc 1 101 0
 387 001a B1FBF2F2 		udiv	r2, r1, r2
 388 001e 92B2     		uxth	r2, r2
 389 0020 1A81     		strh	r2, [r3, #8]	@ movhi
 390              		.loc 1 108 0
 391 0022 A288     		ldrh	r2, [r4, #4]
 392              		.loc 1 106 0
 393 0024 E188     		ldrh	r1, [r4, #6]
 394              		.loc 1 107 0
 395 0026 2089     		ldrh	r0, [r4, #8]
 396              		.loc 1 108 0
 397 0028 42F40452 		orr	r2, r2, #8448
 398              		.loc 1 106 0
 399 002c 41F04004 		orr	r4, r1, #64
ARM GAS  /tmp/ccWyaz7M.s 			page 8


 400              	.LVL33:
 401              		.loc 1 108 0
 402 0030 42F02C02 		orr	r2, r2, #44
 403              		.loc 1 107 0
 404 0034 40F00100 		orr	r0, r0, #1
 405              		.loc 1 108 0
 406 0038 92B2     		uxth	r2, r2
 407              		.loc 1 106 0
 408 003a A4B2     		uxth	r4, r4
 409              		.loc 1 107 0
 410 003c 80B2     		uxth	r0, r0
 411              		.loc 1 111 0
 412 003e 0021     		movs	r1, #0
 413              		.loc 1 106 0
 414 0040 1C82     		strh	r4, [r3, #16]	@ movhi
 415              		.loc 1 107 0
 416 0042 9882     		strh	r0, [r3, #20]	@ movhi
 417              		.loc 1 108 0
 418 0044 9A81     		strh	r2, [r3, #12]	@ movhi
 419              		.loc 1 111 0
 420 0046 1980     		strh	r1, [r3]	@ movhi
 421              		.loc 1 112 0
 422 0048 1A88     		ldrh	r2, [r3]
 423              		.loc 1 113 0
 424 004a 9B88     		ldrh	r3, [r3, #4]
 425              	.LVL34:
 426 004c 38BD     		pop	{r3, r4, r5, pc}
 427              	.LVL35:
 428              	.L63:
 429              	.LBE47:
 430              	.LBE48:
 431              		.loc 1 427 0
 432 004e 084B     		ldr	r3, .L64+8
 433 0050 9842     		cmp	r0, r3
 434 0052 DED1     		bne	.L59
 435              		.loc 1 428 0
 436 0054 074B     		ldr	r3, .L64+12
 437              		.loc 1 429 0
 438 0056 2520     		movs	r0, #37
 439              	.LVL36:
 440              		.loc 1 428 0
 441 0058 9A69     		ldr	r2, [r3, #24]
 442              		.loc 1 429 0
 443 005a C021     		movs	r1, #192
 444              		.loc 1 428 0
 445 005c 42F48042 		orr	r2, r2, #16384
 446 0060 9A61     		str	r2, [r3, #24]
 447              		.loc 1 429 0
 448 0062 FFF7FEFF 		bl	nvicEnableVector
 449              	.LVL37:
 450 0066 D4E7     		b	.L59
 451              	.L65:
 452              		.align	2
 453              	.L64:
 454 0068 00000000 		.word	.LANCHOR1
 455 006c 00366E01 		.word	24000000
 456 0070 00000000 		.word	.LANCHOR0
ARM GAS  /tmp/ccWyaz7M.s 			page 9


 457 0074 00100240 		.word	1073876992
 458              		.cfi_endproc
 459              	.LFE70:
 460              		.size	sd_lld_start, .-sd_lld_start
 461              		.section	.text.sd_lld_stop,"ax",%progbits
 462              		.align	2
 463              		.global	sd_lld_stop
 464              		.thumb
 465              		.thumb_func
 466              		.type	sd_lld_stop, %function
 467              	sd_lld_stop:
 468              	.LFB71:
 469              		.loc 1 481 0
 470              		.cfi_startproc
 471              		@ args = 0, pretend = 0, frame = 0
 472              		@ frame_needed = 0, uses_anonymous_args = 0
 473              		@ link register save eliminated.
 474              	.LVL38:
 475              		.loc 1 483 0
 476 0000 037A     		ldrb	r3, [r0, #8]	@ zero_extendqisi2
 477 0002 022B     		cmp	r3, #2
 478 0004 00D0     		beq	.L70
 479              	.L66:
 480 0006 7047     		bx	lr
 481              	.L70:
 482              		.loc 1 486 0
 483 0008 0849     		ldr	r1, .L71
 484              		.loc 1 484 0
 485 000a D0F8D430 		ldr	r3, [r0, #212]
 486              	.LVL39:
 487              	.LBB49:
 488              	.LBB50:
 489              		.loc 1 124 0
 490 000e 0022     		movs	r2, #0
 491              	.LBE50:
 492              	.LBE49:
 493              		.loc 1 486 0
 494 0010 8842     		cmp	r0, r1
 495              	.LBB52:
 496              	.LBB51:
 497              		.loc 1 124 0
 498 0012 9A81     		strh	r2, [r3, #12]	@ movhi
 499              		.loc 1 125 0
 500 0014 1A82     		strh	r2, [r3, #16]	@ movhi
 501              		.loc 1 126 0
 502 0016 9A82     		strh	r2, [r3, #20]	@ movhi
 503              	.LBE51:
 504              	.LBE52:
 505              		.loc 1 486 0
 506 0018 F5D1     		bne	.L66
 507              		.loc 1 487 0
 508 001a 054B     		ldr	r3, .L71+4
 509              	.LVL40:
 510              		.loc 1 488 0
 511 001c 2520     		movs	r0, #37
 512              	.LVL41:
 513              		.loc 1 487 0
ARM GAS  /tmp/ccWyaz7M.s 			page 10


 514 001e 9A69     		ldr	r2, [r3, #24]
 515 0020 22F48042 		bic	r2, r2, #16384
 516 0024 9A61     		str	r2, [r3, #24]
 517              		.loc 1 488 0
 518 0026 FFF7FEBF 		b	nvicDisableVector
 519              	.LVL42:
 520              	.L72:
 521 002a 00BF     		.align	2
 522              	.L71:
 523 002c 00000000 		.word	.LANCHOR0
 524 0030 00100240 		.word	1073876992
 525              		.cfi_endproc
 526              	.LFE71:
 527              		.size	sd_lld_stop, .-sd_lld_stop
 528              		.global	SD1
 529              		.section	.rodata.default_config,"a",%progbits
 530              		.align	2
 531              		.set	.LANCHOR1,. + 0
 532              		.type	default_config, %object
 533              		.size	default_config, 12
 534              	default_config:
 535 0000 00960000 		.word	38400
 536 0004 0000     		.short	0
 537 0006 0040     		.short	16384
 538 0008 0000     		.short	0
 539 000a 0000     		.space	2
 540              		.section	.bss.SD1,"aw",%nobits
 541              		.align	2
 542              		.set	.LANCHOR0,. + 0
 543              		.type	SD1, %object
 544              		.size	SD1, 216
 545              	SD1:
 546 0000 00000000 		.space	216
 546      00000000 
 546      00000000 
 546      00000000 
 546      00000000 
 547              		.text
 548              	.Letext0:
 549              		.file 2 "/usr/lib/gcc/arm-none-eabi/4.8/include/stddef.h"
 550              		.file 3 "/usr/include/newlib/machine/_default_types.h"
 551              		.file 4 "/usr/include/newlib/stdint.h"
 552              		.file 5 "../../os/ports/GCC/ARMCMx/chtypes.h"
 553              		.file 6 "../../os/kernel/include/chlists.h"
 554              		.file 7 "../../os/kernel/include/chthreads.h"
 555              		.file 8 "../../os/ports/GCC/ARMCMx/chcore_v7m.h"
 556              		.file 9 "../../os/kernel/include/chmtx.h"
 557              		.file 10 "../../os/kernel/include/chevents.h"
 558              		.file 11 "../../os/kernel/include/chqueues.h"
 559              		.file 12 "../../os/hal/platforms/STM32F1xx/stm32f10x.h"
 560              		.file 13 "../../os/hal/include/serial.h"
 561              		.file 14 "../../os/hal/platforms/STM32/USARTv1/serial_lld.h"
 562              		.file 15 "../../os/ports/common/ARMCMx/nvic.h"
 563              		.file 16 "../../os/ports/common/ARMCMx/CMSIS/include/core_cm3.h"
 564              		.section	.debug_info,"",%progbits
 565              	.Ldebug_info0:
 566 0000 100E0000 		.4byte	0xe10
ARM GAS  /tmp/ccWyaz7M.s 			page 11


 567 0004 0400     		.2byte	0x4
 568 0006 00000000 		.4byte	.Ldebug_abbrev0
 569 000a 04       		.byte	0x4
 570 000b 01       		.uleb128 0x1
 571 000c 26030000 		.4byte	.LASF133
 572 0010 01       		.byte	0x1
 573 0011 CB050000 		.4byte	.LASF134
 574 0015 15050000 		.4byte	.LASF135
 575 0019 50000000 		.4byte	.Ldebug_ranges0+0x50
 576 001d 00000000 		.4byte	0
 577 0021 00000000 		.4byte	.Ldebug_line0
 578 0025 02       		.uleb128 0x2
 579 0026 04       		.byte	0x4
 580 0027 05       		.byte	0x5
 581 0028 696E7400 		.ascii	"int\000"
 582 002c 03       		.uleb128 0x3
 583 002d 07000000 		.4byte	.LASF2
 584 0031 02       		.byte	0x2
 585 0032 D4       		.byte	0xd4
 586 0033 37000000 		.4byte	0x37
 587 0037 04       		.uleb128 0x4
 588 0038 04       		.byte	0x4
 589 0039 07       		.byte	0x7
 590 003a 7D010000 		.4byte	.LASF0
 591 003e 04       		.uleb128 0x4
 592 003f 01       		.byte	0x1
 593 0040 06       		.byte	0x6
 594 0041 9E000000 		.4byte	.LASF1
 595 0045 03       		.uleb128 0x3
 596 0046 21000000 		.4byte	.LASF3
 597 004a 03       		.byte	0x3
 598 004b 1D       		.byte	0x1d
 599 004c 50000000 		.4byte	0x50
 600 0050 04       		.uleb128 0x4
 601 0051 01       		.byte	0x1
 602 0052 08       		.byte	0x8
 603 0053 BC030000 		.4byte	.LASF4
 604 0057 04       		.uleb128 0x4
 605 0058 02       		.byte	0x2
 606 0059 05       		.byte	0x5
 607 005a FE030000 		.4byte	.LASF5
 608 005e 03       		.uleb128 0x3
 609 005f D4040000 		.4byte	.LASF6
 610 0063 03       		.byte	0x3
 611 0064 2B       		.byte	0x2b
 612 0065 69000000 		.4byte	0x69
 613 0069 04       		.uleb128 0x4
 614 006a 02       		.byte	0x2
 615 006b 07       		.byte	0x7
 616 006c CC010000 		.4byte	.LASF7
 617 0070 03       		.uleb128 0x3
 618 0071 FB040000 		.4byte	.LASF8
 619 0075 03       		.byte	0x3
 620 0076 3F       		.byte	0x3f
 621 0077 7B000000 		.4byte	0x7b
 622 007b 04       		.uleb128 0x4
 623 007c 04       		.byte	0x4
ARM GAS  /tmp/ccWyaz7M.s 			page 12


 624 007d 05       		.byte	0x5
 625 007e EA000000 		.4byte	.LASF9
 626 0082 03       		.uleb128 0x3
 627 0083 4A010000 		.4byte	.LASF10
 628 0087 03       		.byte	0x3
 629 0088 41       		.byte	0x41
 630 0089 8D000000 		.4byte	0x8d
 631 008d 04       		.uleb128 0x4
 632 008e 04       		.byte	0x4
 633 008f 07       		.byte	0x7
 634 0090 A1040000 		.4byte	.LASF11
 635 0094 04       		.uleb128 0x4
 636 0095 08       		.byte	0x8
 637 0096 05       		.byte	0x5
 638 0097 90000000 		.4byte	.LASF12
 639 009b 04       		.uleb128 0x4
 640 009c 08       		.byte	0x8
 641 009d 07       		.byte	0x7
 642 009e 46000000 		.4byte	.LASF13
 643 00a2 03       		.uleb128 0x3
 644 00a3 97050000 		.4byte	.LASF14
 645 00a7 04       		.byte	0x4
 646 00a8 2A       		.byte	0x2a
 647 00a9 45000000 		.4byte	0x45
 648 00ad 03       		.uleb128 0x3
 649 00ae 8A010000 		.4byte	.LASF15
 650 00b2 04       		.byte	0x4
 651 00b3 36       		.byte	0x36
 652 00b4 5E000000 		.4byte	0x5e
 653 00b8 03       		.uleb128 0x3
 654 00b9 B4030000 		.4byte	.LASF16
 655 00bd 04       		.byte	0x4
 656 00be 41       		.byte	0x41
 657 00bf 70000000 		.4byte	0x70
 658 00c3 03       		.uleb128 0x3
 659 00c4 6F040000 		.4byte	.LASF17
 660 00c8 04       		.byte	0x4
 661 00c9 42       		.byte	0x42
 662 00ca 82000000 		.4byte	0x82
 663 00ce 04       		.uleb128 0x4
 664 00cf 01       		.byte	0x1
 665 00d0 02       		.byte	0x2
 666 00d1 AE030000 		.4byte	.LASF18
 667 00d5 03       		.uleb128 0x3
 668 00d6 14020000 		.4byte	.LASF19
 669 00da 05       		.byte	0x5
 670 00db 2C       		.byte	0x2c
 671 00dc A2000000 		.4byte	0xa2
 672 00e0 03       		.uleb128 0x3
 673 00e1 FC000000 		.4byte	.LASF20
 674 00e5 05       		.byte	0x5
 675 00e6 2D       		.byte	0x2d
 676 00e7 A2000000 		.4byte	0xa2
 677 00eb 03       		.uleb128 0x3
 678 00ec CB020000 		.4byte	.LASF21
 679 00f0 05       		.byte	0x5
 680 00f1 2E       		.byte	0x2e
ARM GAS  /tmp/ccWyaz7M.s 			page 13


 681 00f2 A2000000 		.4byte	0xa2
 682 00f6 03       		.uleb128 0x3
 683 00f7 BF000000 		.4byte	.LASF22
 684 00fb 05       		.byte	0x5
 685 00fc 2F       		.byte	0x2f
 686 00fd A2000000 		.4byte	0xa2
 687 0101 03       		.uleb128 0x3
 688 0102 16030000 		.4byte	.LASF23
 689 0106 05       		.byte	0x5
 690 0107 30       		.byte	0x30
 691 0108 C3000000 		.4byte	0xc3
 692 010c 03       		.uleb128 0x3
 693 010d DF010000 		.4byte	.LASF24
 694 0111 05       		.byte	0x5
 695 0112 31       		.byte	0x31
 696 0113 B8000000 		.4byte	0xb8
 697 0117 03       		.uleb128 0x3
 698 0118 28020000 		.4byte	.LASF25
 699 011c 05       		.byte	0x5
 700 011d 33       		.byte	0x33
 701 011e C3000000 		.4byte	0xc3
 702 0122 03       		.uleb128 0x3
 703 0123 5C050000 		.4byte	.LASF26
 704 0127 05       		.byte	0x5
 705 0128 34       		.byte	0x34
 706 0129 C3000000 		.4byte	0xc3
 707 012d 03       		.uleb128 0x3
 708 012e E6040000 		.4byte	.LASF27
 709 0132 05       		.byte	0x5
 710 0133 35       		.byte	0x35
 711 0134 C3000000 		.4byte	0xc3
 712 0138 03       		.uleb128 0x3
 713 0139 39040000 		.4byte	.LASF28
 714 013d 06       		.byte	0x6
 715 013e 2A       		.byte	0x2a
 716 013f 43010000 		.4byte	0x143
 717 0143 05       		.uleb128 0x5
 718 0144 39040000 		.4byte	.LASF28
 719 0148 48       		.byte	0x48
 720 0149 07       		.byte	0x7
 721 014a 5E       		.byte	0x5e
 722 014b 40020000 		.4byte	0x240
 723 014f 06       		.uleb128 0x6
 724 0150 89020000 		.4byte	.LASF29
 725 0154 07       		.byte	0x7
 726 0155 5F       		.byte	0x5f
 727 0156 61020000 		.4byte	0x261
 728 015a 00       		.byte	0
 729 015b 06       		.uleb128 0x6
 730 015c 05030000 		.4byte	.LASF30
 731 0160 07       		.byte	0x7
 732 0161 61       		.byte	0x61
 733 0162 61020000 		.4byte	0x261
 734 0166 04       		.byte	0x4
 735 0167 06       		.uleb128 0x6
 736 0168 AA050000 		.4byte	.LASF31
 737 016c 07       		.byte	0x7
ARM GAS  /tmp/ccWyaz7M.s 			page 14


 738 016d 63       		.byte	0x63
 739 016e 01010000 		.4byte	0x101
 740 0172 08       		.byte	0x8
 741 0173 06       		.uleb128 0x6
 742 0174 18060000 		.4byte	.LASF32
 743 0178 07       		.byte	0x7
 744 0179 64       		.byte	0x64
 745 017a 1B030000 		.4byte	0x31b
 746 017e 0C       		.byte	0xc
 747 017f 06       		.uleb128 0x6
 748 0180 42010000 		.4byte	.LASF33
 749 0184 07       		.byte	0x7
 750 0185 66       		.byte	0x66
 751 0186 61020000 		.4byte	0x261
 752 018a 10       		.byte	0x10
 753 018b 06       		.uleb128 0x6
 754 018c 90020000 		.4byte	.LASF34
 755 0190 07       		.byte	0x7
 756 0191 67       		.byte	0x67
 757 0192 61020000 		.4byte	0x261
 758 0196 14       		.byte	0x14
 759 0197 06       		.uleb128 0x6
 760 0198 6E050000 		.4byte	.LASF35
 761 019c 07       		.byte	0x7
 762 019d 6E       		.byte	0x6e
 763 019e 36040000 		.4byte	0x436
 764 01a2 18       		.byte	0x18
 765 01a3 06       		.uleb128 0x6
 766 01a4 EC030000 		.4byte	.LASF36
 767 01a8 07       		.byte	0x7
 768 01a9 79       		.byte	0x79
 769 01aa E0000000 		.4byte	0xe0
 770 01ae 1C       		.byte	0x1c
 771 01af 06       		.uleb128 0x6
 772 01b0 19040000 		.4byte	.LASF37
 773 01b4 07       		.byte	0x7
 774 01b5 7D       		.byte	0x7d
 775 01b6 D5000000 		.4byte	0xd5
 776 01ba 1D       		.byte	0x1d
 777 01bb 06       		.uleb128 0x6
 778 01bc 0E010000 		.4byte	.LASF38
 779 01c0 07       		.byte	0x7
 780 01c1 82       		.byte	0x82
 781 01c2 EB000000 		.4byte	0xeb
 782 01c6 1E       		.byte	0x1e
 783 01c7 06       		.uleb128 0x6
 784 01c8 08040000 		.4byte	.LASF39
 785 01cc 07       		.byte	0x7
 786 01cd 88       		.byte	0x88
 787 01ce F6000000 		.4byte	0xf6
 788 01d2 1F       		.byte	0x1f
 789 01d3 06       		.uleb128 0x6
 790 01d4 26010000 		.4byte	.LASF40
 791 01d8 07       		.byte	0x7
 792 01d9 8F       		.byte	0x8f
 793 01da 48030000 		.4byte	0x348
 794 01de 20       		.byte	0x20
ARM GAS  /tmp/ccWyaz7M.s 			page 15


 795 01df 07       		.uleb128 0x7
 796 01e0 705F7500 		.ascii	"p_u\000"
 797 01e4 07       		.byte	0x7
 798 01e5 B4       		.byte	0xb4
 799 01e6 01040000 		.4byte	0x401
 800 01ea 24       		.byte	0x24
 801 01eb 06       		.uleb128 0x6
 802 01ec 1E060000 		.4byte	.LASF41
 803 01f0 07       		.byte	0x7
 804 01f1 B9       		.byte	0xb9
 805 01f2 87020000 		.4byte	0x287
 806 01f6 28       		.byte	0x28
 807 01f7 06       		.uleb128 0x6
 808 01f8 AA010000 		.4byte	.LASF42
 809 01fc 07       		.byte	0x7
 810 01fd BF       		.byte	0xbf
 811 01fe 67020000 		.4byte	0x267
 812 0202 2C       		.byte	0x2c
 813 0203 06       		.uleb128 0x6
 814 0204 8B050000 		.4byte	.LASF43
 815 0208 07       		.byte	0x7
 816 0209 C3       		.byte	0xc3
 817 020a 0C010000 		.4byte	0x10c
 818 020e 34       		.byte	0x34
 819 020f 06       		.uleb128 0x6
 820 0210 50040000 		.4byte	.LASF44
 821 0214 07       		.byte	0x7
 822 0215 C9       		.byte	0xc9
 823 0216 17010000 		.4byte	0x117
 824 021a 38       		.byte	0x38
 825 021b 06       		.uleb128 0x6
 826 021c F4030000 		.4byte	.LASF45
 827 0220 07       		.byte	0x7
 828 0221 D0       		.byte	0xd0
 829 0222 48040000 		.4byte	0x448
 830 0226 3C       		.byte	0x3c
 831 0227 06       		.uleb128 0x6
 832 0228 F0040000 		.4byte	.LASF46
 833 022c 07       		.byte	0x7
 834 022d D4       		.byte	0xd4
 835 022e 01010000 		.4byte	0x101
 836 0232 40       		.byte	0x40
 837 0233 06       		.uleb128 0x6
 838 0234 AF000000 		.4byte	.LASF47
 839 0238 07       		.byte	0x7
 840 0239 DA       		.byte	0xda
 841 023a 9D020000 		.4byte	0x29d
 842 023e 44       		.byte	0x44
 843 023f 00       		.byte	0
 844 0240 08       		.uleb128 0x8
 845 0241 08       		.byte	0x8
 846 0242 06       		.byte	0x6
 847 0243 61       		.byte	0x61
 848 0244 61020000 		.4byte	0x261
 849 0248 06       		.uleb128 0x6
 850 0249 89020000 		.4byte	.LASF29
 851 024d 06       		.byte	0x6
ARM GAS  /tmp/ccWyaz7M.s 			page 16


 852 024e 62       		.byte	0x62
 853 024f 61020000 		.4byte	0x261
 854 0253 00       		.byte	0
 855 0254 06       		.uleb128 0x6
 856 0255 05030000 		.4byte	.LASF30
 857 0259 06       		.byte	0x6
 858 025a 64       		.byte	0x64
 859 025b 61020000 		.4byte	0x261
 860 025f 04       		.byte	0x4
 861 0260 00       		.byte	0
 862 0261 09       		.uleb128 0x9
 863 0262 04       		.byte	0x4
 864 0263 38010000 		.4byte	0x138
 865 0267 03       		.uleb128 0x3
 866 0268 98020000 		.4byte	.LASF48
 867 026c 06       		.byte	0x6
 868 026d 66       		.byte	0x66
 869 026e 40020000 		.4byte	0x240
 870 0272 08       		.uleb128 0x8
 871 0273 04       		.byte	0x4
 872 0274 06       		.byte	0x6
 873 0275 6B       		.byte	0x6b
 874 0276 87020000 		.4byte	0x287
 875 027a 06       		.uleb128 0x6
 876 027b 89020000 		.4byte	.LASF29
 877 027f 06       		.byte	0x6
 878 0280 6D       		.byte	0x6d
 879 0281 61020000 		.4byte	0x261
 880 0285 00       		.byte	0
 881 0286 00       		.byte	0
 882 0287 03       		.uleb128 0x3
 883 0288 1C020000 		.4byte	.LASF49
 884 028c 06       		.byte	0x6
 885 028d 70       		.byte	0x70
 886 028e 72020000 		.4byte	0x272
 887 0292 03       		.uleb128 0x3
 888 0293 55010000 		.4byte	.LASF50
 889 0297 08       		.byte	0x8
 890 0298 E5       		.byte	0xe5
 891 0299 9D020000 		.4byte	0x29d
 892 029d 0A       		.uleb128 0xa
 893 029e 04       		.byte	0x4
 894 029f 0B       		.uleb128 0xb
 895 02a0 00000000 		.4byte	.LASF51
 896 02a4 24       		.byte	0x24
 897 02a5 08       		.byte	0x8
 898 02a6 0C01     		.2byte	0x10c
 899 02a8 1B030000 		.4byte	0x31b
 900 02ac 0C       		.uleb128 0xc
 901 02ad 723400   		.ascii	"r4\000"
 902 02b0 08       		.byte	0x8
 903 02b1 1F01     		.2byte	0x11f
 904 02b3 92020000 		.4byte	0x292
 905 02b7 00       		.byte	0
 906 02b8 0C       		.uleb128 0xc
 907 02b9 723500   		.ascii	"r5\000"
 908 02bc 08       		.byte	0x8
ARM GAS  /tmp/ccWyaz7M.s 			page 17


 909 02bd 2001     		.2byte	0x120
 910 02bf 92020000 		.4byte	0x292
 911 02c3 04       		.byte	0x4
 912 02c4 0C       		.uleb128 0xc
 913 02c5 723600   		.ascii	"r6\000"
 914 02c8 08       		.byte	0x8
 915 02c9 2101     		.2byte	0x121
 916 02cb 92020000 		.4byte	0x292
 917 02cf 08       		.byte	0x8
 918 02d0 0C       		.uleb128 0xc
 919 02d1 723700   		.ascii	"r7\000"
 920 02d4 08       		.byte	0x8
 921 02d5 2201     		.2byte	0x122
 922 02d7 92020000 		.4byte	0x292
 923 02db 0C       		.byte	0xc
 924 02dc 0C       		.uleb128 0xc
 925 02dd 723800   		.ascii	"r8\000"
 926 02e0 08       		.byte	0x8
 927 02e1 2301     		.2byte	0x123
 928 02e3 92020000 		.4byte	0x292
 929 02e7 10       		.byte	0x10
 930 02e8 0C       		.uleb128 0xc
 931 02e9 723900   		.ascii	"r9\000"
 932 02ec 08       		.byte	0x8
 933 02ed 2401     		.2byte	0x124
 934 02ef 92020000 		.4byte	0x292
 935 02f3 14       		.byte	0x14
 936 02f4 0C       		.uleb128 0xc
 937 02f5 72313000 		.ascii	"r10\000"
 938 02f9 08       		.byte	0x8
 939 02fa 2501     		.2byte	0x125
 940 02fc 92020000 		.4byte	0x292
 941 0300 18       		.byte	0x18
 942 0301 0C       		.uleb128 0xc
 943 0302 72313100 		.ascii	"r11\000"
 944 0306 08       		.byte	0x8
 945 0307 2601     		.2byte	0x126
 946 0309 92020000 		.4byte	0x292
 947 030d 1C       		.byte	0x1c
 948 030e 0C       		.uleb128 0xc
 949 030f 6C7200   		.ascii	"lr\000"
 950 0312 08       		.byte	0x8
 951 0313 2701     		.2byte	0x127
 952 0315 92020000 		.4byte	0x292
 953 0319 20       		.byte	0x20
 954 031a 00       		.byte	0
 955 031b 0B       		.uleb128 0xb
 956 031c 0D050000 		.4byte	.LASF52
 957 0320 04       		.byte	0x4
 958 0321 08       		.byte	0x8
 959 0322 3101     		.2byte	0x131
 960 0324 36030000 		.4byte	0x336
 961 0328 0C       		.uleb128 0xc
 962 0329 72313300 		.ascii	"r13\000"
 963 032d 08       		.byte	0x8
 964 032e 3201     		.2byte	0x132
 965 0330 36030000 		.4byte	0x336
ARM GAS  /tmp/ccWyaz7M.s 			page 18


 966 0334 00       		.byte	0
 967 0335 00       		.byte	0
 968 0336 09       		.uleb128 0x9
 969 0337 04       		.byte	0x4
 970 0338 9F020000 		.4byte	0x29f
 971 033c 0D       		.uleb128 0xd
 972 033d C3000000 		.4byte	0xc3
 973 0341 04       		.uleb128 0x4
 974 0342 04       		.byte	0x4
 975 0343 07       		.byte	0x7
 976 0344 70020000 		.4byte	.LASF53
 977 0348 0D       		.uleb128 0xd
 978 0349 2D010000 		.4byte	0x12d
 979 034d 05       		.uleb128 0x5
 980 034e 83020000 		.4byte	.LASF54
 981 0352 10       		.byte	0x10
 982 0353 09       		.byte	0x9
 983 0354 2C       		.byte	0x2c
 984 0355 7E030000 		.4byte	0x37e
 985 0359 06       		.uleb128 0x6
 986 035a B7000000 		.4byte	.LASF55
 987 035e 09       		.byte	0x9
 988 035f 2D       		.byte	0x2d
 989 0360 67020000 		.4byte	0x267
 990 0364 00       		.byte	0
 991 0365 06       		.uleb128 0x6
 992 0366 10060000 		.4byte	.LASF56
 993 036a 09       		.byte	0x9
 994 036b 2F       		.byte	0x2f
 995 036c 61020000 		.4byte	0x261
 996 0370 08       		.byte	0x8
 997 0371 06       		.uleb128 0x6
 998 0372 DF040000 		.4byte	.LASF57
 999 0376 09       		.byte	0x9
 1000 0377 31       		.byte	0x31
 1001 0378 7E030000 		.4byte	0x37e
 1002 037c 0C       		.byte	0xc
 1003 037d 00       		.byte	0
 1004 037e 09       		.uleb128 0x9
 1005 037f 04       		.byte	0x4
 1006 0380 4D030000 		.4byte	0x34d
 1007 0384 03       		.uleb128 0x3
 1008 0385 83020000 		.4byte	.LASF54
 1009 0389 09       		.byte	0x9
 1010 038a 33       		.byte	0x33
 1011 038b 4D030000 		.4byte	0x34d
 1012 038f 03       		.uleb128 0x3
 1013 0390 B1050000 		.4byte	.LASF58
 1014 0394 0A       		.byte	0xa
 1015 0395 2C       		.byte	0x2c
 1016 0396 9A030000 		.4byte	0x39a
 1017 039a 05       		.uleb128 0x5
 1018 039b B1050000 		.4byte	.LASF58
 1019 039f 10       		.byte	0x10
 1020 03a0 0A       		.byte	0xa
 1021 03a1 31       		.byte	0x31
 1022 03a2 D7030000 		.4byte	0x3d7
ARM GAS  /tmp/ccWyaz7M.s 			page 19


 1023 03a6 06       		.uleb128 0x6
 1024 03a7 21040000 		.4byte	.LASF59
 1025 03ab 0A       		.byte	0xa
 1026 03ac 32       		.byte	0x32
 1027 03ad D7030000 		.4byte	0x3d7
 1028 03b1 00       		.byte	0
 1029 03b2 06       		.uleb128 0x6
 1030 03b3 D7030000 		.4byte	.LASF60
 1031 03b7 0A       		.byte	0xa
 1032 03b8 35       		.byte	0x35
 1033 03b9 61020000 		.4byte	0x261
 1034 03bd 04       		.byte	0x4
 1035 03be 06       		.uleb128 0x6
 1036 03bf AE020000 		.4byte	.LASF61
 1037 03c3 0A       		.byte	0xa
 1038 03c4 37       		.byte	0x37
 1039 03c5 17010000 		.4byte	0x117
 1040 03c9 08       		.byte	0x8
 1041 03ca 06       		.uleb128 0x6
 1042 03cb E3030000 		.4byte	.LASF62
 1043 03cf 0A       		.byte	0xa
 1044 03d0 3A       		.byte	0x3a
 1045 03d1 22010000 		.4byte	0x122
 1046 03d5 0C       		.byte	0xc
 1047 03d6 00       		.byte	0
 1048 03d7 09       		.uleb128 0x9
 1049 03d8 04       		.byte	0x4
 1050 03d9 8F030000 		.4byte	0x38f
 1051 03dd 05       		.uleb128 0x5
 1052 03de 6B010000 		.4byte	.LASF63
 1053 03e2 04       		.byte	0x4
 1054 03e3 0A       		.byte	0xa
 1055 03e4 41       		.byte	0x41
 1056 03e5 F6030000 		.4byte	0x3f6
 1057 03e9 06       		.uleb128 0x6
 1058 03ea 75050000 		.4byte	.LASF64
 1059 03ee 0A       		.byte	0xa
 1060 03ef 42       		.byte	0x42
 1061 03f0 D7030000 		.4byte	0x3d7
 1062 03f4 00       		.byte	0
 1063 03f5 00       		.byte	0
 1064 03f6 03       		.uleb128 0x3
 1065 03f7 6B010000 		.4byte	.LASF63
 1066 03fb 0A       		.byte	0xa
 1067 03fc 45       		.byte	0x45
 1068 03fd DD030000 		.4byte	0x3dd
 1069 0401 0E       		.uleb128 0xe
 1070 0402 04       		.byte	0x4
 1071 0403 07       		.byte	0x7
 1072 0404 96       		.byte	0x96
 1073 0405 36040000 		.4byte	0x436
 1074 0409 0F       		.uleb128 0xf
 1075 040a 0E000000 		.4byte	.LASF65
 1076 040e 07       		.byte	0x7
 1077 040f 9D       		.byte	0x9d
 1078 0410 0C010000 		.4byte	0x10c
 1079 0414 0F       		.uleb128 0xf
ARM GAS  /tmp/ccWyaz7M.s 			page 20


 1080 0415 5D000000 		.4byte	.LASF66
 1081 0419 07       		.byte	0x7
 1082 041a A4       		.byte	0xa4
 1083 041b 0C010000 		.4byte	0x10c
 1084 041f 0F       		.uleb128 0xf
 1085 0420 BF050000 		.4byte	.LASF67
 1086 0424 07       		.byte	0x7
 1087 0425 AB       		.byte	0xab
 1088 0426 9D020000 		.4byte	0x29d
 1089 042a 0F       		.uleb128 0xf
 1090 042b 12040000 		.4byte	.LASF68
 1091 042f 07       		.byte	0x7
 1092 0430 B2       		.byte	0xb2
 1093 0431 17010000 		.4byte	0x117
 1094 0435 00       		.byte	0
 1095 0436 09       		.uleb128 0x9
 1096 0437 04       		.byte	0x4
 1097 0438 3C040000 		.4byte	0x43c
 1098 043c 10       		.uleb128 0x10
 1099 043d 41040000 		.4byte	0x441
 1100 0441 04       		.uleb128 0x4
 1101 0442 01       		.byte	0x1
 1102 0443 08       		.byte	0x8
 1103 0444 B8040000 		.4byte	.LASF69
 1104 0448 09       		.uleb128 0x9
 1105 0449 04       		.byte	0x4
 1106 044a 84030000 		.4byte	0x384
 1107 044e 09       		.uleb128 0x9
 1108 044f 04       		.byte	0x4
 1109 0450 54040000 		.4byte	0x454
 1110 0454 11       		.uleb128 0x11
 1111 0455 0C010000 		.4byte	0x10c
 1112 0459 63040000 		.4byte	0x463
 1113 045d 12       		.uleb128 0x12
 1114 045e 9D020000 		.4byte	0x29d
 1115 0462 00       		.byte	0
 1116 0463 03       		.uleb128 0x3
 1117 0464 4D020000 		.4byte	.LASF70
 1118 0468 0B       		.byte	0xb
 1119 0469 37       		.byte	0x37
 1120 046a 6E040000 		.4byte	0x46e
 1121 046e 05       		.uleb128 0x5
 1122 046f 4D020000 		.4byte	.LASF70
 1123 0473 24       		.byte	0x24
 1124 0474 0B       		.byte	0xb
 1125 0475 45       		.byte	0x45
 1126 0476 DB040000 		.4byte	0x4db
 1127 047a 06       		.uleb128 0x6
 1128 047b 86000000 		.4byte	.LASF71
 1129 047f 0B       		.byte	0xb
 1130 0480 46       		.byte	0x46
 1131 0481 67020000 		.4byte	0x267
 1132 0485 00       		.byte	0
 1133 0486 06       		.uleb128 0x6
 1134 0487 79020000 		.4byte	.LASF72
 1135 048b 0B       		.byte	0xb
 1136 048c 47       		.byte	0x47
ARM GAS  /tmp/ccWyaz7M.s 			page 21


 1137 048d 2C000000 		.4byte	0x2c
 1138 0491 08       		.byte	0x8
 1139 0492 06       		.uleb128 0x6
 1140 0493 15010000 		.4byte	.LASF73
 1141 0497 0B       		.byte	0xb
 1142 0498 48       		.byte	0x48
 1143 0499 FD040000 		.4byte	0x4fd
 1144 049d 0C       		.byte	0xc
 1145 049e 06       		.uleb128 0x6
 1146 049f 68050000 		.4byte	.LASF74
 1147 04a3 0B       		.byte	0xb
 1148 04a4 49       		.byte	0x49
 1149 04a5 FD040000 		.4byte	0x4fd
 1150 04a9 10       		.byte	0x10
 1151 04aa 06       		.uleb128 0x6
 1152 04ab 1E010000 		.4byte	.LASF75
 1153 04af 0B       		.byte	0xb
 1154 04b0 4B       		.byte	0x4b
 1155 04b1 FD040000 		.4byte	0x4fd
 1156 04b5 14       		.byte	0x14
 1157 04b6 06       		.uleb128 0x6
 1158 04b7 1E030000 		.4byte	.LASF76
 1159 04bb 0B       		.byte	0xb
 1160 04bc 4C       		.byte	0x4c
 1161 04bd FD040000 		.4byte	0x4fd
 1162 04c1 18       		.byte	0x18
 1163 04c2 06       		.uleb128 0x6
 1164 04c3 82050000 		.4byte	.LASF77
 1165 04c7 0B       		.byte	0xb
 1166 04c8 4D       		.byte	0x4d
 1167 04c9 DB040000 		.4byte	0x4db
 1168 04cd 1C       		.byte	0x1c
 1169 04ce 06       		.uleb128 0x6
 1170 04cf 09060000 		.4byte	.LASF78
 1171 04d3 0B       		.byte	0xb
 1172 04d4 4E       		.byte	0x4e
 1173 04d5 9D020000 		.4byte	0x29d
 1174 04d9 20       		.byte	0x20
 1175 04da 00       		.byte	0
 1176 04db 03       		.uleb128 0x3
 1177 04dc 43020000 		.4byte	.LASF79
 1178 04e0 0B       		.byte	0xb
 1179 04e1 3A       		.byte	0x3a
 1180 04e2 E6040000 		.4byte	0x4e6
 1181 04e6 09       		.uleb128 0x9
 1182 04e7 04       		.byte	0x4
 1183 04e8 EC040000 		.4byte	0x4ec
 1184 04ec 13       		.uleb128 0x13
 1185 04ed F7040000 		.4byte	0x4f7
 1186 04f1 12       		.uleb128 0x12
 1187 04f2 F7040000 		.4byte	0x4f7
 1188 04f6 00       		.byte	0
 1189 04f7 09       		.uleb128 0x9
 1190 04f8 04       		.byte	0x4
 1191 04f9 63040000 		.4byte	0x463
 1192 04fd 09       		.uleb128 0x9
 1193 04fe 04       		.byte	0x4
ARM GAS  /tmp/ccWyaz7M.s 			page 22


 1194 04ff A2000000 		.4byte	0xa2
 1195 0503 03       		.uleb128 0x3
 1196 0504 9F050000 		.4byte	.LASF80
 1197 0508 0B       		.byte	0xb
 1198 0509 82       		.byte	0x82
 1199 050a 63040000 		.4byte	0x463
 1200 050e 03       		.uleb128 0x3
 1201 050f 15000000 		.4byte	.LASF81
 1202 0513 0B       		.byte	0xb
 1203 0514 F5       		.byte	0xf5
 1204 0515 63040000 		.4byte	0x463
 1205 0519 11       		.uleb128 0x11
 1206 051a 2C000000 		.4byte	0x2c
 1207 051e 32050000 		.4byte	0x532
 1208 0522 12       		.uleb128 0x12
 1209 0523 9D020000 		.4byte	0x29d
 1210 0527 12       		.uleb128 0x12
 1211 0528 32050000 		.4byte	0x532
 1212 052c 12       		.uleb128 0x12
 1213 052d 2C000000 		.4byte	0x2c
 1214 0531 00       		.byte	0
 1215 0532 09       		.uleb128 0x9
 1216 0533 04       		.byte	0x4
 1217 0534 38050000 		.4byte	0x538
 1218 0538 10       		.uleb128 0x10
 1219 0539 A2000000 		.4byte	0xa2
 1220 053d 09       		.uleb128 0x9
 1221 053e 04       		.byte	0x4
 1222 053f 19050000 		.4byte	0x519
 1223 0543 11       		.uleb128 0x11
 1224 0544 2C000000 		.4byte	0x2c
 1225 0548 5C050000 		.4byte	0x55c
 1226 054c 12       		.uleb128 0x12
 1227 054d 9D020000 		.4byte	0x29d
 1228 0551 12       		.uleb128 0x12
 1229 0552 FD040000 		.4byte	0x4fd
 1230 0556 12       		.uleb128 0x12
 1231 0557 2C000000 		.4byte	0x2c
 1232 055b 00       		.byte	0
 1233 055c 09       		.uleb128 0x9
 1234 055d 04       		.byte	0x4
 1235 055e 43050000 		.4byte	0x543
 1236 0562 11       		.uleb128 0x11
 1237 0563 0C010000 		.4byte	0x10c
 1238 0567 76050000 		.4byte	0x576
 1239 056b 12       		.uleb128 0x12
 1240 056c 9D020000 		.4byte	0x29d
 1241 0570 12       		.uleb128 0x12
 1242 0571 A2000000 		.4byte	0xa2
 1243 0575 00       		.byte	0
 1244 0576 09       		.uleb128 0x9
 1245 0577 04       		.byte	0x4
 1246 0578 62050000 		.4byte	0x562
 1247 057c 0D       		.uleb128 0xd
 1248 057d AD000000 		.4byte	0xad
 1249 0581 0D       		.uleb128 0xd
 1250 0582 B8000000 		.4byte	0xb8
ARM GAS  /tmp/ccWyaz7M.s 			page 23


 1251 0586 14       		.uleb128 0x14
 1252 0587 30       		.byte	0x30
 1253 0588 0C       		.byte	0xc
 1254 0589 4304     		.2byte	0x443
 1255 058b 2B060000 		.4byte	0x62b
 1256 058f 0C       		.uleb128 0xc
 1257 0590 435200   		.ascii	"CR\000"
 1258 0593 0C       		.byte	0xc
 1259 0594 4504     		.2byte	0x445
 1260 0596 3C030000 		.4byte	0x33c
 1261 059a 00       		.byte	0
 1262 059b 15       		.uleb128 0x15
 1263 059c C6050000 		.4byte	.LASF82
 1264 05a0 0C       		.byte	0xc
 1265 05a1 4604     		.2byte	0x446
 1266 05a3 3C030000 		.4byte	0x33c
 1267 05a7 04       		.byte	0x4
 1268 05a8 0C       		.uleb128 0xc
 1269 05a9 43495200 		.ascii	"CIR\000"
 1270 05ad 0C       		.byte	0xc
 1271 05ae 4704     		.2byte	0x447
 1272 05b0 3C030000 		.4byte	0x33c
 1273 05b4 08       		.byte	0x8
 1274 05b5 15       		.uleb128 0x15
 1275 05b6 F3000000 		.4byte	.LASF83
 1276 05ba 0C       		.byte	0xc
 1277 05bb 4804     		.2byte	0x448
 1278 05bd 3C030000 		.4byte	0x33c
 1279 05c1 0C       		.byte	0xc
 1280 05c2 15       		.uleb128 0x15
 1281 05c3 A5020000 		.4byte	.LASF84
 1282 05c7 0C       		.byte	0xc
 1283 05c8 4904     		.2byte	0x449
 1284 05ca 3C030000 		.4byte	0x33c
 1285 05ce 10       		.byte	0x10
 1286 05cf 15       		.uleb128 0x15
 1287 05d0 28060000 		.4byte	.LASF85
 1288 05d4 0C       		.byte	0xc
 1289 05d5 4A04     		.2byte	0x44a
 1290 05d7 3C030000 		.4byte	0x33c
 1291 05db 14       		.byte	0x14
 1292 05dc 15       		.uleb128 0x15
 1293 05dd 31040000 		.4byte	.LASF86
 1294 05e1 0C       		.byte	0xc
 1295 05e2 4B04     		.2byte	0x44b
 1296 05e4 3C030000 		.4byte	0x33c
 1297 05e8 18       		.byte	0x18
 1298 05e9 15       		.uleb128 0x15
 1299 05ea 05050000 		.4byte	.LASF87
 1300 05ee 0C       		.byte	0xc
 1301 05ef 4C04     		.2byte	0x44c
 1302 05f1 3C030000 		.4byte	0x33c
 1303 05f5 1C       		.byte	0x1c
 1304 05f6 15       		.uleb128 0x15
 1305 05f7 7D050000 		.4byte	.LASF88
 1306 05fb 0C       		.byte	0xc
 1307 05fc 4D04     		.2byte	0x44d
ARM GAS  /tmp/ccWyaz7M.s 			page 24


 1308 05fe 3C030000 		.4byte	0x33c
 1309 0602 20       		.byte	0x20
 1310 0603 0C       		.uleb128 0xc
 1311 0604 43535200 		.ascii	"CSR\000"
 1312 0608 0C       		.byte	0xc
 1313 0609 4E04     		.2byte	0x44e
 1314 060b 3C030000 		.4byte	0x33c
 1315 060f 24       		.byte	0x24
 1316 0610 15       		.uleb128 0x15
 1317 0611 D3020000 		.4byte	.LASF89
 1318 0615 0C       		.byte	0xc
 1319 0616 5604     		.2byte	0x456
 1320 0618 C3000000 		.4byte	0xc3
 1321 061c 28       		.byte	0x28
 1322 061d 15       		.uleb128 0x15
 1323 061e 91050000 		.4byte	.LASF90
 1324 0622 0C       		.byte	0xc
 1325 0623 5704     		.2byte	0x457
 1326 0625 3C030000 		.4byte	0x33c
 1327 0629 2C       		.byte	0x2c
 1328 062a 00       		.byte	0
 1329 062b 16       		.uleb128 0x16
 1330 062c C9000000 		.4byte	.LASF91
 1331 0630 0C       		.byte	0xc
 1332 0631 5904     		.2byte	0x459
 1333 0633 86050000 		.4byte	0x586
 1334 0637 14       		.uleb128 0x14
 1335 0638 1C       		.byte	0x1c
 1336 0639 0C       		.byte	0xc
 1337 063a E104     		.2byte	0x4e1
 1338 063c F5060000 		.4byte	0x6f5
 1339 0640 0C       		.uleb128 0xc
 1340 0641 535200   		.ascii	"SR\000"
 1341 0644 0C       		.byte	0xc
 1342 0645 E304     		.2byte	0x4e3
 1343 0647 7C050000 		.4byte	0x57c
 1344 064b 00       		.byte	0
 1345 064c 15       		.uleb128 0x15
 1346 064d D3020000 		.4byte	.LASF89
 1347 0651 0C       		.byte	0xc
 1348 0652 E404     		.2byte	0x4e4
 1349 0654 AD000000 		.4byte	0xad
 1350 0658 02       		.byte	0x2
 1351 0659 0C       		.uleb128 0xc
 1352 065a 445200   		.ascii	"DR\000"
 1353 065d 0C       		.byte	0xc
 1354 065e E504     		.2byte	0x4e5
 1355 0660 7C050000 		.4byte	0x57c
 1356 0664 04       		.byte	0x4
 1357 0665 15       		.uleb128 0x15
 1358 0666 DD020000 		.4byte	.LASF92
 1359 066a 0C       		.byte	0xc
 1360 066b E604     		.2byte	0x4e6
 1361 066d AD000000 		.4byte	0xad
 1362 0671 06       		.byte	0x6
 1363 0672 0C       		.uleb128 0xc
 1364 0673 42525200 		.ascii	"BRR\000"
ARM GAS  /tmp/ccWyaz7M.s 			page 25


 1365 0677 0C       		.byte	0xc
 1366 0678 E704     		.2byte	0x4e7
 1367 067a 7C050000 		.4byte	0x57c
 1368 067e 08       		.byte	0x8
 1369 067f 15       		.uleb128 0x15
 1370 0680 E7020000 		.4byte	.LASF93
 1371 0684 0C       		.byte	0xc
 1372 0685 E804     		.2byte	0x4e8
 1373 0687 AD000000 		.4byte	0xad
 1374 068b 0A       		.byte	0xa
 1375 068c 0C       		.uleb128 0xc
 1376 068d 43523100 		.ascii	"CR1\000"
 1377 0691 0C       		.byte	0xc
 1378 0692 E904     		.2byte	0x4e9
 1379 0694 7C050000 		.4byte	0x57c
 1380 0698 0C       		.byte	0xc
 1381 0699 15       		.uleb128 0x15
 1382 069a F1020000 		.4byte	.LASF94
 1383 069e 0C       		.byte	0xc
 1384 069f EA04     		.2byte	0x4ea
 1385 06a1 AD000000 		.4byte	0xad
 1386 06a5 0E       		.byte	0xe
 1387 06a6 0C       		.uleb128 0xc
 1388 06a7 43523200 		.ascii	"CR2\000"
 1389 06ab 0C       		.byte	0xc
 1390 06ac EB04     		.2byte	0x4eb
 1391 06ae 7C050000 		.4byte	0x57c
 1392 06b2 10       		.byte	0x10
 1393 06b3 15       		.uleb128 0x15
 1394 06b4 FB020000 		.4byte	.LASF95
 1395 06b8 0C       		.byte	0xc
 1396 06b9 EC04     		.2byte	0x4ec
 1397 06bb AD000000 		.4byte	0xad
 1398 06bf 12       		.byte	0x12
 1399 06c0 0C       		.uleb128 0xc
 1400 06c1 43523300 		.ascii	"CR3\000"
 1401 06c5 0C       		.byte	0xc
 1402 06c6 ED04     		.2byte	0x4ed
 1403 06c8 7C050000 		.4byte	0x57c
 1404 06cc 14       		.byte	0x14
 1405 06cd 15       		.uleb128 0x15
 1406 06ce 65040000 		.4byte	.LASF96
 1407 06d2 0C       		.byte	0xc
 1408 06d3 EE04     		.2byte	0x4ee
 1409 06d5 AD000000 		.4byte	0xad
 1410 06d9 16       		.byte	0x16
 1411 06da 15       		.uleb128 0x15
 1412 06db AA000000 		.4byte	.LASF97
 1413 06df 0C       		.byte	0xc
 1414 06e0 EF04     		.2byte	0x4ef
 1415 06e2 7C050000 		.4byte	0x57c
 1416 06e6 18       		.byte	0x18
 1417 06e7 15       		.uleb128 0x15
 1418 06e8 0C030000 		.4byte	.LASF98
 1419 06ec 0C       		.byte	0xc
 1420 06ed F004     		.2byte	0x4f0
 1421 06ef AD000000 		.4byte	0xad
ARM GAS  /tmp/ccWyaz7M.s 			page 26


 1422 06f3 1A       		.byte	0x1a
 1423 06f4 00       		.byte	0
 1424 06f5 16       		.uleb128 0x16
 1425 06f6 FF010000 		.4byte	.LASF99
 1426 06fa 0C       		.byte	0xc
 1427 06fb F104     		.2byte	0x4f1
 1428 06fd 37060000 		.4byte	0x637
 1429 0701 11       		.uleb128 0x11
 1430 0702 0C010000 		.4byte	0x10c
 1431 0706 1A070000 		.4byte	0x71a
 1432 070a 12       		.uleb128 0x12
 1433 070b 9D020000 		.4byte	0x29d
 1434 070f 12       		.uleb128 0x12
 1435 0710 A2000000 		.4byte	0xa2
 1436 0714 12       		.uleb128 0x12
 1437 0715 2D010000 		.4byte	0x12d
 1438 0719 00       		.byte	0
 1439 071a 09       		.uleb128 0x9
 1440 071b 04       		.byte	0x4
 1441 071c 01070000 		.4byte	0x701
 1442 0720 11       		.uleb128 0x11
 1443 0721 0C010000 		.4byte	0x10c
 1444 0725 34070000 		.4byte	0x734
 1445 0729 12       		.uleb128 0x12
 1446 072a 9D020000 		.4byte	0x29d
 1447 072e 12       		.uleb128 0x12
 1448 072f 2D010000 		.4byte	0x12d
 1449 0733 00       		.byte	0
 1450 0734 09       		.uleb128 0x9
 1451 0735 04       		.byte	0x4
 1452 0736 20070000 		.4byte	0x720
 1453 073a 11       		.uleb128 0x11
 1454 073b 2C000000 		.4byte	0x2c
 1455 073f 58070000 		.4byte	0x758
 1456 0743 12       		.uleb128 0x12
 1457 0744 9D020000 		.4byte	0x29d
 1458 0748 12       		.uleb128 0x12
 1459 0749 32050000 		.4byte	0x532
 1460 074d 12       		.uleb128 0x12
 1461 074e 2C000000 		.4byte	0x2c
 1462 0752 12       		.uleb128 0x12
 1463 0753 2D010000 		.4byte	0x12d
 1464 0757 00       		.byte	0
 1465 0758 09       		.uleb128 0x9
 1466 0759 04       		.byte	0x4
 1467 075a 3A070000 		.4byte	0x73a
 1468 075e 11       		.uleb128 0x11
 1469 075f 2C000000 		.4byte	0x2c
 1470 0763 7C070000 		.4byte	0x77c
 1471 0767 12       		.uleb128 0x12
 1472 0768 9D020000 		.4byte	0x29d
 1473 076c 12       		.uleb128 0x12
 1474 076d FD040000 		.4byte	0x4fd
 1475 0771 12       		.uleb128 0x12
 1476 0772 2C000000 		.4byte	0x2c
 1477 0776 12       		.uleb128 0x12
 1478 0777 2D010000 		.4byte	0x12d
ARM GAS  /tmp/ccWyaz7M.s 			page 27


 1479 077b 00       		.byte	0
 1480 077c 09       		.uleb128 0x9
 1481 077d 04       		.byte	0x4
 1482 077e 5E070000 		.4byte	0x75e
 1483 0782 17       		.uleb128 0x17
 1484 0783 01       		.byte	0x1
 1485 0784 0D       		.byte	0xd
 1486 0785 64       		.byte	0x64
 1487 0786 9D070000 		.4byte	0x79d
 1488 078a 18       		.uleb128 0x18
 1489 078b 5B040000 		.4byte	.LASF100
 1490 078f 00       		.sleb128 0
 1491 0790 18       		.uleb128 0x18
 1492 0791 29040000 		.4byte	.LASF101
 1493 0795 01       		.sleb128 1
 1494 0796 18       		.uleb128 0x18
 1495 0797 53050000 		.4byte	.LASF102
 1496 079b 02       		.sleb128 2
 1497 079c 00       		.byte	0
 1498 079d 03       		.uleb128 0x3
 1499 079e 78040000 		.4byte	.LASF103
 1500 07a2 0D       		.byte	0xd
 1501 07a3 68       		.byte	0x68
 1502 07a4 82070000 		.4byte	0x782
 1503 07a8 03       		.uleb128 0x3
 1504 07a9 82040000 		.4byte	.LASF104
 1505 07ad 0D       		.byte	0xd
 1506 07ae 6D       		.byte	0x6d
 1507 07af B3070000 		.4byte	0x7b3
 1508 07b3 05       		.uleb128 0x5
 1509 07b4 82040000 		.4byte	.LASF104
 1510 07b8 D8       		.byte	0xd8
 1511 07b9 0D       		.byte	0xd
 1512 07ba 87       		.byte	0x87
 1513 07bb 1E080000 		.4byte	0x81e
 1514 07bf 07       		.uleb128 0x7
 1515 07c0 766D7400 		.ascii	"vmt\000"
 1516 07c4 0D       		.byte	0xd
 1517 07c5 89       		.byte	0x89
 1518 07c6 CF080000 		.4byte	0x8cf
 1519 07ca 00       		.byte	0
 1520 07cb 06       		.uleb128 0x6
 1521 07cc C6010000 		.4byte	.LASF105
 1522 07d0 0D       		.byte	0xd
 1523 07d1 8A       		.byte	0x8a
 1524 07d2 F6030000 		.4byte	0x3f6
 1525 07d6 04       		.byte	0x4
 1526 07d7 06       		.uleb128 0x6
 1527 07d8 E4000000 		.4byte	.LASF106
 1528 07dc 0D       		.byte	0xd
 1529 07dd 8A       		.byte	0x8a
 1530 07de 9D070000 		.4byte	0x79d
 1531 07e2 08       		.byte	0x8
 1532 07e3 06       		.uleb128 0x6
 1533 07e4 A3010000 		.4byte	.LASF107
 1534 07e8 0D       		.byte	0xd
 1535 07e9 8A       		.byte	0x8a
ARM GAS  /tmp/ccWyaz7M.s 			page 28


 1536 07ea 03050000 		.4byte	0x503
 1537 07ee 0C       		.byte	0xc
 1538 07ef 06       		.uleb128 0x6
 1539 07f0 E5010000 		.4byte	.LASF108
 1540 07f4 0D       		.byte	0xd
 1541 07f5 8A       		.byte	0x8a
 1542 07f6 0E050000 		.4byte	0x50e
 1543 07fa 30       		.byte	0x30
 1544 07fb 07       		.uleb128 0x7
 1545 07fc 696200   		.ascii	"ib\000"
 1546 07ff 0D       		.byte	0xd
 1547 0800 8A       		.byte	0x8a
 1548 0801 DA080000 		.4byte	0x8da
 1549 0805 54       		.byte	0x54
 1550 0806 07       		.uleb128 0x7
 1551 0807 6F6200   		.ascii	"ob\000"
 1552 080a 0D       		.byte	0xd
 1553 080b 8A       		.byte	0x8a
 1554 080c DA080000 		.4byte	0x8da
 1555 0810 94       		.byte	0x94
 1556 0811 06       		.uleb128 0x6
 1557 0812 77010000 		.4byte	.LASF109
 1558 0816 0D       		.byte	0xd
 1559 0817 8A       		.byte	0x8a
 1560 0818 EA080000 		.4byte	0x8ea
 1561 081c D4       		.byte	0xd4
 1562 081d 00       		.byte	0
 1563 081e 08       		.uleb128 0x8
 1564 081f 0C       		.byte	0xc
 1565 0820 0E       		.byte	0xe
 1566 0821 D7       		.byte	0xd7
 1567 0822 57080000 		.4byte	0x857
 1568 0826 06       		.uleb128 0x6
 1569 0827 3D020000 		.4byte	.LASF110
 1570 082b 0E       		.byte	0xe
 1571 082c DB       		.byte	0xdb
 1572 082d C3000000 		.4byte	0xc3
 1573 0831 00       		.byte	0
 1574 0832 07       		.uleb128 0x7
 1575 0833 63723100 		.ascii	"cr1\000"
 1576 0837 0E       		.byte	0xe
 1577 0838 E0       		.byte	0xe0
 1578 0839 AD000000 		.4byte	0xad
 1579 083d 04       		.byte	0x4
 1580 083e 07       		.uleb128 0x7
 1581 083f 63723200 		.ascii	"cr2\000"
 1582 0843 0E       		.byte	0xe
 1583 0844 E4       		.byte	0xe4
 1584 0845 AD000000 		.4byte	0xad
 1585 0849 06       		.byte	0x6
 1586 084a 07       		.uleb128 0x7
 1587 084b 63723300 		.ascii	"cr3\000"
 1588 084f 0E       		.byte	0xe
 1589 0850 E8       		.byte	0xe8
 1590 0851 AD000000 		.4byte	0xad
 1591 0855 08       		.byte	0x8
 1592 0856 00       		.byte	0
ARM GAS  /tmp/ccWyaz7M.s 			page 29


 1593 0857 03       		.uleb128 0x3
 1594 0858 B6020000 		.4byte	.LASF111
 1595 085c 0E       		.byte	0xe
 1596 085d E9       		.byte	0xe9
 1597 085e 1E080000 		.4byte	0x81e
 1598 0862 05       		.uleb128 0x5
 1599 0863 93010000 		.4byte	.LASF112
 1600 0867 20       		.byte	0x20
 1601 0868 0D       		.byte	0xd
 1602 0869 7C       		.byte	0x7c
 1603 086a CF080000 		.4byte	0x8cf
 1604 086e 06       		.uleb128 0x6
 1605 086f 5A020000 		.4byte	.LASF113
 1606 0873 0D       		.byte	0xd
 1607 0874 7D       		.byte	0x7d
 1608 0875 3D050000 		.4byte	0x53d
 1609 0879 00       		.byte	0
 1610 087a 06       		.uleb128 0x6
 1611 087b B3040000 		.4byte	.LASF114
 1612 087f 0D       		.byte	0xd
 1613 0880 7D       		.byte	0x7d
 1614 0881 5C050000 		.4byte	0x55c
 1615 0885 04       		.byte	0x4
 1616 0886 07       		.uleb128 0x7
 1617 0887 70757400 		.ascii	"put\000"
 1618 088b 0D       		.byte	0xd
 1619 088c 7D       		.byte	0x7d
 1620 088d 76050000 		.4byte	0x576
 1621 0891 08       		.byte	0x8
 1622 0892 07       		.uleb128 0x7
 1623 0893 67657400 		.ascii	"get\000"
 1624 0897 0D       		.byte	0xd
 1625 0898 7D       		.byte	0x7d
 1626 0899 4E040000 		.4byte	0x44e
 1627 089d 0C       		.byte	0xc
 1628 089e 06       		.uleb128 0x6
 1629 089f 60020000 		.4byte	.LASF115
 1630 08a3 0D       		.byte	0xd
 1631 08a4 7D       		.byte	0x7d
 1632 08a5 1A070000 		.4byte	0x71a
 1633 08a9 10       		.byte	0x10
 1634 08aa 06       		.uleb128 0x6
 1635 08ab C1010000 		.4byte	.LASF116
 1636 08af 0D       		.byte	0xd
 1637 08b0 7D       		.byte	0x7d
 1638 08b1 34070000 		.4byte	0x734
 1639 08b5 14       		.byte	0x14
 1640 08b6 06       		.uleb128 0x6
 1641 08b7 0D020000 		.4byte	.LASF117
 1642 08bb 0D       		.byte	0xd
 1643 08bc 7D       		.byte	0x7d
 1644 08bd 58070000 		.4byte	0x758
 1645 08c1 18       		.byte	0x18
 1646 08c2 06       		.uleb128 0x6
 1647 08c3 80000000 		.4byte	.LASF118
 1648 08c7 0D       		.byte	0xd
 1649 08c8 7D       		.byte	0x7d
ARM GAS  /tmp/ccWyaz7M.s 			page 30


 1650 08c9 7C070000 		.4byte	0x77c
 1651 08cd 1C       		.byte	0x1c
 1652 08ce 00       		.byte	0
 1653 08cf 09       		.uleb128 0x9
 1654 08d0 04       		.byte	0x4
 1655 08d1 D5080000 		.4byte	0x8d5
 1656 08d5 10       		.uleb128 0x10
 1657 08d6 62080000 		.4byte	0x862
 1658 08da 19       		.uleb128 0x19
 1659 08db A2000000 		.4byte	0xa2
 1660 08df EA080000 		.4byte	0x8ea
 1661 08e3 1A       		.uleb128 0x1a
 1662 08e4 41030000 		.4byte	0x341
 1663 08e8 3F       		.byte	0x3f
 1664 08e9 00       		.byte	0
 1665 08ea 09       		.uleb128 0x9
 1666 08eb 04       		.byte	0x4
 1667 08ec F5060000 		.4byte	0x6f5
 1668 08f0 1B       		.uleb128 0x1b
 1669 08f1 65020000 		.4byte	.LASF120
 1670 08f5 01       		.byte	0x1
 1671 08f6 5C       		.byte	0x5c
 1672 08f7 01       		.byte	0x1
 1673 08f8 1C090000 		.4byte	0x91c
 1674 08fc 1C       		.uleb128 0x1c
 1675 08fd 73647000 		.ascii	"sdp\000"
 1676 0901 01       		.byte	0x1
 1677 0902 5C       		.byte	0x5c
 1678 0903 1C090000 		.4byte	0x91c
 1679 0907 1D       		.uleb128 0x1d
 1680 0908 CD040000 		.4byte	.LASF119
 1681 090c 01       		.byte	0x1
 1682 090d 5C       		.byte	0x5c
 1683 090e 22090000 		.4byte	0x922
 1684 0912 1E       		.uleb128 0x1e
 1685 0913 7500     		.ascii	"u\000"
 1686 0915 01       		.byte	0x1
 1687 0916 5D       		.byte	0x5d
 1688 0917 EA080000 		.4byte	0x8ea
 1689 091b 00       		.byte	0
 1690 091c 09       		.uleb128 0x9
 1691 091d 04       		.byte	0x4
 1692 091e A8070000 		.4byte	0x7a8
 1693 0922 09       		.uleb128 0x9
 1694 0923 04       		.byte	0x4
 1695 0924 28090000 		.4byte	0x928
 1696 0928 10       		.uleb128 0x10
 1697 0929 57080000 		.4byte	0x857
 1698 092d 1B       		.uleb128 0x1b
 1699 092e 5E010000 		.4byte	.LASF121
 1700 0932 01       		.byte	0x1
 1701 0933 7A       		.byte	0x7a
 1702 0934 01       		.byte	0x1
 1703 0935 43090000 		.4byte	0x943
 1704 0939 1C       		.uleb128 0x1c
 1705 093a 7500     		.ascii	"u\000"
 1706 093c 01       		.byte	0x1
ARM GAS  /tmp/ccWyaz7M.s 			page 31


 1707 093d 7A       		.byte	0x7a
 1708 093e EA080000 		.4byte	0x8ea
 1709 0942 00       		.byte	0
 1710 0943 1B       		.uleb128 0x1b
 1711 0944 40040000 		.4byte	.LASF122
 1712 0948 01       		.byte	0x1
 1713 0949 9A       		.byte	0x9a
 1714 094a 01       		.byte	0x1
 1715 094b 080A0000 		.4byte	0xa08
 1716 094f 1C       		.uleb128 0x1c
 1717 0950 73647000 		.ascii	"sdp\000"
 1718 0954 01       		.byte	0x1
 1719 0955 9A       		.byte	0x9a
 1720 0956 1C090000 		.4byte	0x91c
 1721 095a 1E       		.uleb128 0x1e
 1722 095b 7500     		.ascii	"u\000"
 1723 095d 01       		.byte	0x1
 1724 095e 9B       		.byte	0x9b
 1725 095f EA080000 		.4byte	0x8ea
 1726 0963 1E       		.uleb128 0x1e
 1727 0964 63723100 		.ascii	"cr1\000"
 1728 0968 01       		.byte	0x1
 1729 0969 9C       		.byte	0x9c
 1730 096a AD000000 		.4byte	0xad
 1731 096e 1E       		.uleb128 0x1e
 1732 096f 737200   		.ascii	"sr\000"
 1733 0972 01       		.byte	0x1
 1734 0973 9D       		.byte	0x9d
 1735 0974 AD000000 		.4byte	0xad
 1736 0978 1F       		.uleb128 0x1f
 1737 0979 89090000 		.4byte	0x989
 1738 097d 1E       		.uleb128 0x1e
 1739 097e 746D7000 		.ascii	"tmp\000"
 1740 0982 01       		.byte	0x1
 1741 0983 A1       		.byte	0xa1
 1742 0984 C3000000 		.4byte	0xc3
 1743 0988 00       		.byte	0
 1744 0989 1F       		.uleb128 0x1f
 1745 098a 9A090000 		.4byte	0x99a
 1746 098e 1E       		.uleb128 0x1e
 1747 098f 746D7000 		.ascii	"tmp\000"
 1748 0993 01       		.byte	0x1
 1749 0994 A3       		.byte	0xa3
 1750 0995 C3000000 		.4byte	0xc3
 1751 0999 00       		.byte	0
 1752 099a 1F       		.uleb128 0x1f
 1753 099b AB090000 		.4byte	0x9ab
 1754 099f 1E       		.uleb128 0x1e
 1755 09a0 746D7000 		.ascii	"tmp\000"
 1756 09a4 01       		.byte	0x1
 1757 09a5 A8       		.byte	0xa8
 1758 09a6 C3000000 		.4byte	0xc3
 1759 09aa 00       		.byte	0
 1760 09ab 1F       		.uleb128 0x1f
 1761 09ac BC090000 		.4byte	0x9bc
 1762 09b0 1E       		.uleb128 0x1e
 1763 09b1 746D7000 		.ascii	"tmp\000"
ARM GAS  /tmp/ccWyaz7M.s 			page 32


 1764 09b5 01       		.byte	0x1
 1765 09b6 B0       		.byte	0xb0
 1766 09b7 C3000000 		.4byte	0xc3
 1767 09bb 00       		.byte	0
 1768 09bc 1F       		.uleb128 0x1f
 1769 09bd E9090000 		.4byte	0x9e9
 1770 09c1 1E       		.uleb128 0x1e
 1771 09c2 6200     		.ascii	"b\000"
 1772 09c4 01       		.byte	0x1
 1773 09c5 B4       		.byte	0xb4
 1774 09c6 0C010000 		.4byte	0x10c
 1775 09ca 1F       		.uleb128 0x1f
 1776 09cb DB090000 		.4byte	0x9db
 1777 09cf 1E       		.uleb128 0x1e
 1778 09d0 746D7000 		.ascii	"tmp\000"
 1779 09d4 01       		.byte	0x1
 1780 09d5 B5       		.byte	0xb5
 1781 09d6 C3000000 		.4byte	0xc3
 1782 09da 00       		.byte	0
 1783 09db 20       		.uleb128 0x20
 1784 09dc 1E       		.uleb128 0x1e
 1785 09dd 746D7000 		.ascii	"tmp\000"
 1786 09e1 01       		.byte	0x1
 1787 09e2 BD       		.byte	0xbd
 1788 09e3 C3000000 		.4byte	0xc3
 1789 09e7 00       		.byte	0
 1790 09e8 00       		.byte	0
 1791 09e9 1F       		.uleb128 0x1f
 1792 09ea FA090000 		.4byte	0x9fa
 1793 09ee 1E       		.uleb128 0x1e
 1794 09ef 746D7000 		.ascii	"tmp\000"
 1795 09f3 01       		.byte	0x1
 1796 09f4 C2       		.byte	0xc2
 1797 09f5 C3000000 		.4byte	0xc3
 1798 09f9 00       		.byte	0
 1799 09fa 20       		.uleb128 0x20
 1800 09fb 1E       		.uleb128 0x1e
 1801 09fc 746D7000 		.ascii	"tmp\000"
 1802 0a00 01       		.byte	0x1
 1803 0a01 C4       		.byte	0xc4
 1804 0a02 C3000000 		.4byte	0xc3
 1805 0a06 00       		.byte	0
 1806 0a07 00       		.byte	0
 1807 0a08 21       		.uleb128 0x21
 1808 0a09 C3020000 		.4byte	.LASF136
 1809 0a0d 01       		.byte	0x1
 1810 0a0e CB       		.byte	0xcb
 1811 0a0f 00000000 		.4byte	.LFB67
 1812 0a13 14000000 		.4byte	.LFE67-.LFB67
 1813 0a17 01       		.uleb128 0x1
 1814 0a18 9C       		.byte	0x9c
 1815 0a19 2A0A0000 		.4byte	0xa2a
 1816 0a1d 22       		.uleb128 0x22
 1817 0a1e 717000   		.ascii	"qp\000"
 1818 0a21 01       		.byte	0x1
 1819 0a22 CB       		.byte	0xcb
 1820 0a23 F7040000 		.4byte	0x4f7
ARM GAS  /tmp/ccWyaz7M.s 			page 33


 1821 0a27 01       		.uleb128 0x1
 1822 0a28 50       		.byte	0x50
 1823 0a29 00       		.byte	0
 1824 0a2a 1B       		.uleb128 0x1b
 1825 0a2b 2B000000 		.4byte	.LASF123
 1826 0a2f 01       		.byte	0x1
 1827 0a30 87       		.byte	0x87
 1828 0a31 01       		.byte	0x1
 1829 0a32 570A0000 		.4byte	0xa57
 1830 0a36 1C       		.uleb128 0x1c
 1831 0a37 73647000 		.ascii	"sdp\000"
 1832 0a3b 01       		.byte	0x1
 1833 0a3c 87       		.byte	0x87
 1834 0a3d 1C090000 		.4byte	0x91c
 1835 0a41 1C       		.uleb128 0x1c
 1836 0a42 737200   		.ascii	"sr\000"
 1837 0a45 01       		.byte	0x1
 1838 0a46 87       		.byte	0x87
 1839 0a47 AD000000 		.4byte	0xad
 1840 0a4b 1E       		.uleb128 0x1e
 1841 0a4c 73747300 		.ascii	"sts\000"
 1842 0a50 01       		.byte	0x1
 1843 0a51 88       		.byte	0x88
 1844 0a52 22010000 		.4byte	0x122
 1845 0a56 00       		.byte	0
 1846 0a57 23       		.uleb128 0x23
 1847 0a58 34020000 		.4byte	.LASF124
 1848 0a5c 01       		.byte	0x1
 1849 0a5d 0701     		.2byte	0x107
 1850 0a5f 00000000 		.4byte	.LFB68
 1851 0a63 F8000000 		.4byte	.LFE68-.LFB68
 1852 0a67 01       		.uleb128 0x1
 1853 0a68 9C       		.byte	0x9c
 1854 0a69 400C0000 		.4byte	0xc40
 1855 0a6d 24       		.uleb128 0x24
 1856 0a6e 43090000 		.4byte	0x943
 1857 0a72 00000000 		.4byte	.LBB28
 1858 0a76 00000000 		.4byte	.Ldebug_ranges0+0
 1859 0a7a 01       		.byte	0x1
 1860 0a7b 0B01     		.2byte	0x10b
 1861 0a7d 360C0000 		.4byte	0xc36
 1862 0a81 25       		.uleb128 0x25
 1863 0a82 4F090000 		.4byte	0x94f
 1864 0a86 06       		.uleb128 0x6
 1865 0a87 03       		.byte	0x3
 1866 0a88 00000000 		.4byte	SD1
 1867 0a8c 9F       		.byte	0x9f
 1868 0a8d 26       		.uleb128 0x26
 1869 0a8e 00000000 		.4byte	.Ldebug_ranges0+0
 1870 0a92 27       		.uleb128 0x27
 1871 0a93 5A090000 		.4byte	0x95a
 1872 0a97 00000000 		.4byte	.LLST0
 1873 0a9b 27       		.uleb128 0x27
 1874 0a9c 63090000 		.4byte	0x963
 1875 0aa0 1E000000 		.4byte	.LLST1
 1876 0aa4 27       		.uleb128 0x27
 1877 0aa5 6E090000 		.4byte	0x96e
ARM GAS  /tmp/ccWyaz7M.s 			page 34


 1878 0aa9 3C000000 		.4byte	.LLST2
 1879 0aad 28       		.uleb128 0x28
 1880 0aae 14000000 		.4byte	.LBB30
 1881 0ab2 06000000 		.4byte	.LBE30-.LBB30
 1882 0ab6 C20A0000 		.4byte	0xac2
 1883 0aba 29       		.uleb128 0x29
 1884 0abb 9F090000 		.4byte	0x99f
 1885 0abf 01       		.uleb128 0x1
 1886 0ac0 53       		.byte	0x53
 1887 0ac1 00       		.byte	0
 1888 0ac2 2A       		.uleb128 0x2a
 1889 0ac3 2A0A0000 		.4byte	0xa2a
 1890 0ac7 36000000 		.4byte	.LBB31
 1891 0acb 2C000000 		.4byte	.LBE31-.LBB31
 1892 0acf 01       		.byte	0x1
 1893 0ad0 AC       		.byte	0xac
 1894 0ad1 0E0B0000 		.4byte	0xb0e
 1895 0ad5 2B       		.uleb128 0x2b
 1896 0ad6 410A0000 		.4byte	0xa41
 1897 0ada 65000000 		.4byte	.LLST3
 1898 0ade 2B       		.uleb128 0x2b
 1899 0adf 360A0000 		.4byte	0xa36
 1900 0ae3 78000000 		.4byte	.LLST4
 1901 0ae7 2C       		.uleb128 0x2c
 1902 0ae8 36000000 		.4byte	.LBB32
 1903 0aec 2C000000 		.4byte	.LBE32-.LBB32
 1904 0af0 27       		.uleb128 0x27
 1905 0af1 4B0A0000 		.4byte	0xa4b
 1906 0af5 90000000 		.4byte	.LLST5
 1907 0af9 2D       		.uleb128 0x2d
 1908 0afa 60000000 		.4byte	.LVL15
 1909 0afe 7B0D0000 		.4byte	0xd7b
 1910 0b02 2E       		.uleb128 0x2e
 1911 0b03 01       		.uleb128 0x1
 1912 0b04 50       		.byte	0x50
 1913 0b05 05       		.uleb128 0x5
 1914 0b06 03       		.byte	0x3
 1915 0b07 04000000 		.4byte	.LANCHOR0+4
 1916 0b0b 00       		.byte	0
 1917 0b0c 00       		.byte	0
 1918 0b0d 00       		.byte	0
 1919 0b0e 28       		.uleb128 0x28
 1920 0b0f 62000000 		.4byte	.LBB33
 1921 0b13 06000000 		.4byte	.LBE33-.LBB33
 1922 0b17 230B0000 		.4byte	0xb23
 1923 0b1b 29       		.uleb128 0x29
 1924 0b1c B0090000 		.4byte	0x9b0
 1925 0b20 01       		.uleb128 0x1
 1926 0b21 53       		.byte	0x53
 1927 0b22 00       		.byte	0
 1928 0b23 28       		.uleb128 0x28
 1929 0b24 74000000 		.4byte	.LBB34
 1930 0b28 06000000 		.4byte	.LBE34-.LBB34
 1931 0b2c 380B0000 		.4byte	0xb38
 1932 0b30 29       		.uleb128 0x29
 1933 0b31 EE090000 		.4byte	0x9ee
 1934 0b35 01       		.uleb128 0x1
ARM GAS  /tmp/ccWyaz7M.s 			page 35


 1935 0b36 53       		.byte	0x53
 1936 0b37 00       		.byte	0
 1937 0b38 28       		.uleb128 0x28
 1938 0b39 82000000 		.4byte	.LBB35
 1939 0b3d 06000000 		.4byte	.LBE35-.LBB35
 1940 0b41 4D0B0000 		.4byte	0xb4d
 1941 0b45 29       		.uleb128 0x29
 1942 0b46 FB090000 		.4byte	0x9fb
 1943 0b4a 01       		.uleb128 0x1
 1944 0b4b 53       		.byte	0x53
 1945 0b4c 00       		.byte	0
 1946 0b4d 28       		.uleb128 0x28
 1947 0b4e 9E000000 		.4byte	.LBB36
 1948 0b52 06000000 		.4byte	.LBE36-.LBB36
 1949 0b56 620B0000 		.4byte	0xb62
 1950 0b5a 29       		.uleb128 0x29
 1951 0b5b 7D090000 		.4byte	0x97d
 1952 0b5f 01       		.uleb128 0x1
 1953 0b60 53       		.byte	0x53
 1954 0b61 00       		.byte	0
 1955 0b62 28       		.uleb128 0x28
 1956 0b63 AE000000 		.4byte	.LBB37
 1957 0b67 06000000 		.4byte	.LBE37-.LBB37
 1958 0b6b 770B0000 		.4byte	0xb77
 1959 0b6f 29       		.uleb128 0x29
 1960 0b70 8E090000 		.4byte	0x98e
 1961 0b74 01       		.uleb128 0x1
 1962 0b75 53       		.byte	0x53
 1963 0b76 00       		.byte	0
 1964 0b77 28       		.uleb128 0x28
 1965 0b78 BC000000 		.4byte	.LBB38
 1966 0b7c 3C000000 		.4byte	.LBE38-.LBB38
 1967 0b80 E70B0000 		.4byte	0xbe7
 1968 0b84 27       		.uleb128 0x27
 1969 0b85 C1090000 		.4byte	0x9c1
 1970 0b89 AF000000 		.4byte	.LLST6
 1971 0b8d 28       		.uleb128 0x28
 1972 0b8e BC000000 		.4byte	.LBB39
 1973 0b92 06000000 		.4byte	.LBE39-.LBB39
 1974 0b96 A20B0000 		.4byte	0xba2
 1975 0b9a 29       		.uleb128 0x29
 1976 0b9b CF090000 		.4byte	0x9cf
 1977 0b9f 01       		.uleb128 0x1
 1978 0ba0 53       		.byte	0x53
 1979 0ba1 00       		.byte	0
 1980 0ba2 28       		.uleb128 0x28
 1981 0ba3 D0000000 		.4byte	.LBB40
 1982 0ba7 08000000 		.4byte	.LBE40-.LBB40
 1983 0bab B70B0000 		.4byte	0xbb7
 1984 0baf 29       		.uleb128 0x29
 1985 0bb0 DC090000 		.4byte	0x9dc
 1986 0bb4 01       		.uleb128 0x1
 1987 0bb5 53       		.byte	0x53
 1988 0bb6 00       		.byte	0
 1989 0bb7 2F       		.uleb128 0x2f
 1990 0bb8 C8000000 		.4byte	.LVL23
 1991 0bbc 970D0000 		.4byte	0xd97
ARM GAS  /tmp/ccWyaz7M.s 			page 36


 1992 0bc0 CE0B0000 		.4byte	0xbce
 1993 0bc4 2E       		.uleb128 0x2e
 1994 0bc5 01       		.uleb128 0x1
 1995 0bc6 50       		.byte	0x50
 1996 0bc7 05       		.uleb128 0x5
 1997 0bc8 03       		.byte	0x3
 1998 0bc9 30000000 		.4byte	.LANCHOR0+48
 1999 0bcd 00       		.byte	0
 2000 0bce 2D       		.uleb128 0x2d
 2001 0bcf E0000000 		.4byte	.LVL27
 2002 0bd3 7B0D0000 		.4byte	0xd7b
 2003 0bd7 2E       		.uleb128 0x2e
 2004 0bd8 01       		.uleb128 0x1
 2005 0bd9 51       		.byte	0x51
 2006 0bda 01       		.uleb128 0x1
 2007 0bdb 38       		.byte	0x38
 2008 0bdc 2E       		.uleb128 0x2e
 2009 0bdd 01       		.uleb128 0x1
 2010 0bde 50       		.byte	0x50
 2011 0bdf 05       		.uleb128 0x5
 2012 0be0 03       		.byte	0x3
 2013 0be1 04000000 		.4byte	.LANCHOR0+4
 2014 0be5 00       		.byte	0
 2015 0be6 00       		.byte	0
 2016 0be7 2F       		.uleb128 0x2f
 2017 0be8 2A000000 		.4byte	.LVL6
 2018 0bec B30D0000 		.4byte	0xdb3
 2019 0bf0 FE0B0000 		.4byte	0xbfe
 2020 0bf4 2E       		.uleb128 0x2e
 2021 0bf5 01       		.uleb128 0x1
 2022 0bf6 50       		.byte	0x50
 2023 0bf7 05       		.uleb128 0x5
 2024 0bf8 03       		.byte	0x3
 2025 0bf9 00000000 		.4byte	.LANCHOR0
 2026 0bfd 00       		.byte	0
 2027 0bfe 2F       		.uleb128 0x2f
 2028 0bff 82000000 		.4byte	.LVL17
 2029 0c03 7B0D0000 		.4byte	0xd7b
 2030 0c07 1A0C0000 		.4byte	0xc1a
 2031 0c0b 2E       		.uleb128 0x2e
 2032 0c0c 01       		.uleb128 0x1
 2033 0c0d 51       		.byte	0x51
 2034 0c0e 01       		.uleb128 0x1
 2035 0c0f 40       		.byte	0x40
 2036 0c10 2E       		.uleb128 0x2e
 2037 0c11 01       		.uleb128 0x1
 2038 0c12 50       		.byte	0x50
 2039 0c13 05       		.uleb128 0x5
 2040 0c14 03       		.byte	0x3
 2041 0c15 04000000 		.4byte	.LANCHOR0+4
 2042 0c19 00       		.byte	0
 2043 0c1a 2D       		.uleb128 0x2d
 2044 0c1b AE000000 		.4byte	.LVL21
 2045 0c1f 7B0D0000 		.4byte	0xd7b
 2046 0c23 2E       		.uleb128 0x2e
 2047 0c24 01       		.uleb128 0x1
 2048 0c25 51       		.byte	0x51
ARM GAS  /tmp/ccWyaz7M.s 			page 37


 2049 0c26 03       		.uleb128 0x3
 2050 0c27 0A       		.byte	0xa
 2051 0c28 0002     		.2byte	0x200
 2052 0c2a 2E       		.uleb128 0x2e
 2053 0c2b 01       		.uleb128 0x1
 2054 0c2c 50       		.byte	0x50
 2055 0c2d 05       		.uleb128 0x5
 2056 0c2e 03       		.byte	0x3
 2057 0c2f 04000000 		.4byte	.LANCHOR0+4
 2058 0c33 00       		.byte	0
 2059 0c34 00       		.byte	0
 2060 0c35 00       		.byte	0
 2061 0c36 30       		.uleb128 0x30
 2062 0c37 9E000000 		.4byte	.LVL20
 2063 0c3b CA0D0000 		.4byte	0xdca
 2064 0c3f 00       		.byte	0
 2065 0c40 23       		.uleb128 0x23
 2066 0c41 B5010000 		.4byte	.LASF125
 2067 0c45 01       		.byte	0x1
 2068 0c46 7901     		.2byte	0x179
 2069 0c48 00000000 		.4byte	.LFB69
 2070 0c4c 24000000 		.4byte	.LFE69-.LFB69
 2071 0c50 01       		.uleb128 0x1
 2072 0c51 9C       		.byte	0x9c
 2073 0c52 750C0000 		.4byte	0xc75
 2074 0c56 2D       		.uleb128 0x2d
 2075 0c57 0E000000 		.4byte	.LVL28
 2076 0c5b D20D0000 		.4byte	0xdd2
 2077 0c5f 2E       		.uleb128 0x2e
 2078 0c60 01       		.uleb128 0x1
 2079 0c61 52       		.byte	0x52
 2080 0c62 05       		.uleb128 0x5
 2081 0c63 03       		.byte	0x3
 2082 0c64 00000000 		.4byte	notify1
 2083 0c68 2E       		.uleb128 0x2e
 2084 0c69 01       		.uleb128 0x1
 2085 0c6a 51       		.byte	0x51
 2086 0c6b 01       		.uleb128 0x1
 2087 0c6c 30       		.byte	0x30
 2088 0c6d 2E       		.uleb128 0x2e
 2089 0c6e 01       		.uleb128 0x1
 2090 0c6f 50       		.byte	0x50
 2091 0c70 02       		.uleb128 0x2
 2092 0c71 74       		.byte	0x74
 2093 0c72 00       		.sleb128 0
 2094 0c73 00       		.byte	0
 2095 0c74 00       		.byte	0
 2096 0c75 23       		.uleb128 0x23
 2097 0c76 CA030000 		.4byte	.LASF126
 2098 0c7a 01       		.byte	0x1
 2099 0c7b A401     		.2byte	0x1a4
 2100 0c7d 00000000 		.4byte	.LFB70
 2101 0c81 78000000 		.4byte	.LFE70-.LFB70
 2102 0c85 01       		.uleb128 0x1
 2103 0c86 9C       		.byte	0x9c
 2104 0c87 F80C0000 		.4byte	0xcf8
 2105 0c8b 31       		.uleb128 0x31
ARM GAS  /tmp/ccWyaz7M.s 			page 38


 2106 0c8c 73647000 		.ascii	"sdp\000"
 2107 0c90 01       		.byte	0x1
 2108 0c91 A401     		.2byte	0x1a4
 2109 0c93 1C090000 		.4byte	0x91c
 2110 0c97 CD000000 		.4byte	.LLST7
 2111 0c9b 32       		.uleb128 0x32
 2112 0c9c CD040000 		.4byte	.LASF119
 2113 0ca0 01       		.byte	0x1
 2114 0ca1 A401     		.2byte	0x1a4
 2115 0ca3 22090000 		.4byte	0x922
 2116 0ca7 01010000 		.4byte	.LLST8
 2117 0cab 24       		.uleb128 0x24
 2118 0cac F0080000 		.4byte	0x8f0
 2119 0cb0 12000000 		.4byte	.LBB45
 2120 0cb4 20000000 		.4byte	.Ldebug_ranges0+0x20
 2121 0cb8 01       		.byte	0x1
 2122 0cb9 D501     		.2byte	0x1d5
 2123 0cbb E10C0000 		.4byte	0xce1
 2124 0cbf 2B       		.uleb128 0x2b
 2125 0cc0 FC080000 		.4byte	0x8fc
 2126 0cc4 47010000 		.4byte	.LLST9
 2127 0cc8 2B       		.uleb128 0x2b
 2128 0cc9 07090000 		.4byte	0x907
 2129 0ccd 5A010000 		.4byte	.LLST10
 2130 0cd1 26       		.uleb128 0x26
 2131 0cd2 20000000 		.4byte	.Ldebug_ranges0+0x20
 2132 0cd6 27       		.uleb128 0x27
 2133 0cd7 12090000 		.4byte	0x912
 2134 0cdb 8A010000 		.4byte	.LLST11
 2135 0cdf 00       		.byte	0
 2136 0ce0 00       		.byte	0
 2137 0ce1 2D       		.uleb128 0x2d
 2138 0ce2 66000000 		.4byte	.LVL37
 2139 0ce6 EE0D0000 		.4byte	0xdee
 2140 0cea 2E       		.uleb128 0x2e
 2141 0ceb 01       		.uleb128 0x1
 2142 0cec 51       		.byte	0x51
 2143 0ced 02       		.uleb128 0x2
 2144 0cee 08       		.byte	0x8
 2145 0cef C0       		.byte	0xc0
 2146 0cf0 2E       		.uleb128 0x2e
 2147 0cf1 01       		.uleb128 0x1
 2148 0cf2 50       		.byte	0x50
 2149 0cf3 02       		.uleb128 0x2
 2150 0cf4 08       		.byte	0x8
 2151 0cf5 25       		.byte	0x25
 2152 0cf6 00       		.byte	0
 2153 0cf7 00       		.byte	0
 2154 0cf8 23       		.uleb128 0x23
 2155 0cf9 FD050000 		.4byte	.LASF127
 2156 0cfd 01       		.byte	0x1
 2157 0cfe E101     		.2byte	0x1e1
 2158 0d00 00000000 		.4byte	.LFB71
 2159 0d04 34000000 		.4byte	.LFE71-.LFB71
 2160 0d08 01       		.uleb128 0x1
 2161 0d09 9C       		.byte	0x9c
 2162 0d0a 4D0D0000 		.4byte	0xd4d
ARM GAS  /tmp/ccWyaz7M.s 			page 39


 2163 0d0e 31       		.uleb128 0x31
 2164 0d0f 73647000 		.ascii	"sdp\000"
 2165 0d13 01       		.byte	0x1
 2166 0d14 E101     		.2byte	0x1e1
 2167 0d16 1C090000 		.4byte	0x91c
 2168 0d1a 9D010000 		.4byte	.LLST12
 2169 0d1e 24       		.uleb128 0x24
 2170 0d1f 2D090000 		.4byte	0x92d
 2171 0d23 0E000000 		.4byte	.LBB49
 2172 0d27 38000000 		.4byte	.Ldebug_ranges0+0x38
 2173 0d2b 01       		.byte	0x1
 2174 0d2c E401     		.2byte	0x1e4
 2175 0d2e 3C0D0000 		.4byte	0xd3c
 2176 0d32 2B       		.uleb128 0x2b
 2177 0d33 39090000 		.4byte	0x939
 2178 0d37 BE010000 		.4byte	.LLST13
 2179 0d3b 00       		.byte	0
 2180 0d3c 33       		.uleb128 0x33
 2181 0d3d 2A000000 		.4byte	.LVL42
 2182 0d41 050E0000 		.4byte	0xe05
 2183 0d45 2E       		.uleb128 0x2e
 2184 0d46 01       		.uleb128 0x1
 2185 0d47 50       		.byte	0x50
 2186 0d48 02       		.uleb128 0x2
 2187 0d49 08       		.byte	0x8
 2188 0d4a 25       		.byte	0x25
 2189 0d4b 00       		.byte	0
 2190 0d4c 00       		.byte	0
 2191 0d4d 34       		.uleb128 0x34
 2192 0d4e D5000000 		.4byte	.LASF137
 2193 0d52 01       		.byte	0x1
 2194 0d53 49       		.byte	0x49
 2195 0d54 28090000 		.4byte	0x928
 2196 0d58 05       		.uleb128 0x5
 2197 0d59 03       		.byte	0x3
 2198 0d5a 00000000 		.4byte	default_config
 2199 0d5e 35       		.uleb128 0x35
 2200 0d5f 66000000 		.4byte	.LASF128
 2201 0d63 10       		.byte	0x10
 2202 0d64 0706     		.2byte	0x607
 2203 0d66 81050000 		.4byte	0x581
 2204 0d6a 36       		.uleb128 0x36
 2205 0d6b 53443100 		.ascii	"SD1\000"
 2206 0d6f 01       		.byte	0x1
 2207 0d70 28       		.byte	0x28
 2208 0d71 A8070000 		.4byte	0x7a8
 2209 0d75 05       		.uleb128 0x5
 2210 0d76 03       		.byte	0x3
 2211 0d77 00000000 		.4byte	SD1
 2212 0d7b 37       		.uleb128 0x37
 2213 0d7c 2D010000 		.4byte	.LASF129
 2214 0d80 0A       		.byte	0xa
 2215 0d81 BA       		.byte	0xba
 2216 0d82 910D0000 		.4byte	0xd91
 2217 0d86 12       		.uleb128 0x12
 2218 0d87 910D0000 		.4byte	0xd91
 2219 0d8b 12       		.uleb128 0x12
ARM GAS  /tmp/ccWyaz7M.s 			page 40


 2220 0d8c 22010000 		.4byte	0x122
 2221 0d90 00       		.byte	0
 2222 0d91 09       		.uleb128 0x9
 2223 0d92 04       		.byte	0x4
 2224 0d93 F6030000 		.4byte	0x3f6
 2225 0d97 38       		.uleb128 0x38
 2226 0d98 05010000 		.4byte	.LASF138
 2227 0d9c 0B       		.byte	0xb
 2228 0d9d 6E01     		.2byte	0x16e
 2229 0d9f 0C010000 		.4byte	0x10c
 2230 0da3 AD0D0000 		.4byte	0xdad
 2231 0da7 12       		.uleb128 0x12
 2232 0da8 AD0D0000 		.4byte	0xdad
 2233 0dac 00       		.byte	0
 2234 0dad 09       		.uleb128 0x9
 2235 0dae 04       		.byte	0x4
 2236 0daf 0E050000 		.4byte	0x50e
 2237 0db3 39       		.uleb128 0x39
 2238 0db4 BD040000 		.4byte	.LASF130
 2239 0db8 0D       		.byte	0xd
 2240 0db9 3901     		.2byte	0x139
 2241 0dbb CA0D0000 		.4byte	0xdca
 2242 0dbf 12       		.uleb128 0x12
 2243 0dc0 1C090000 		.4byte	0x91c
 2244 0dc4 12       		.uleb128 0x12
 2245 0dc5 A2000000 		.4byte	0xa2
 2246 0dc9 00       		.byte	0
 2247 0dca 3A       		.uleb128 0x3a
 2248 0dcb EC010000 		.4byte	.LASF139
 2249 0dcf 08       		.byte	0x8
 2250 0dd0 0302     		.2byte	0x203
 2251 0dd2 39       		.uleb128 0x39
 2252 0dd3 73000000 		.4byte	.LASF131
 2253 0dd7 0D       		.byte	0xd
 2254 0dd8 3601     		.2byte	0x136
 2255 0dda EE0D0000 		.4byte	0xdee
 2256 0dde 12       		.uleb128 0x12
 2257 0ddf 1C090000 		.4byte	0x91c
 2258 0de3 12       		.uleb128 0x12
 2259 0de4 DB040000 		.4byte	0x4db
 2260 0de8 12       		.uleb128 0x12
 2261 0de9 DB040000 		.4byte	0x4db
 2262 0ded 00       		.byte	0
 2263 0dee 39       		.uleb128 0x39
 2264 0def 35000000 		.4byte	.LASF132
 2265 0df3 0F       		.byte	0xf
 2266 0df4 2301     		.2byte	0x123
 2267 0df6 050E0000 		.4byte	0xe05
 2268 0dfa 12       		.uleb128 0x12
 2269 0dfb C3000000 		.4byte	0xc3
 2270 0dff 12       		.uleb128 0x12
 2271 0e00 C3000000 		.4byte	0xc3
 2272 0e04 00       		.byte	0
 2273 0e05 3B       		.uleb128 0x3b
 2274 0e06 8F040000 		.4byte	.LASF140
 2275 0e0a 0F       		.byte	0xf
 2276 0e0b 2401     		.2byte	0x124
ARM GAS  /tmp/ccWyaz7M.s 			page 41


 2277 0e0d 12       		.uleb128 0x12
 2278 0e0e C3000000 		.4byte	0xc3
 2279 0e12 00       		.byte	0
 2280 0e13 00       		.byte	0
 2281              		.section	.debug_abbrev,"",%progbits
 2282              	.Ldebug_abbrev0:
 2283 0000 01       		.uleb128 0x1
 2284 0001 11       		.uleb128 0x11
 2285 0002 01       		.byte	0x1
 2286 0003 25       		.uleb128 0x25
 2287 0004 0E       		.uleb128 0xe
 2288 0005 13       		.uleb128 0x13
 2289 0006 0B       		.uleb128 0xb
 2290 0007 03       		.uleb128 0x3
 2291 0008 0E       		.uleb128 0xe
 2292 0009 1B       		.uleb128 0x1b
 2293 000a 0E       		.uleb128 0xe
 2294 000b 55       		.uleb128 0x55
 2295 000c 17       		.uleb128 0x17
 2296 000d 11       		.uleb128 0x11
 2297 000e 01       		.uleb128 0x1
 2298 000f 10       		.uleb128 0x10
 2299 0010 17       		.uleb128 0x17
 2300 0011 00       		.byte	0
 2301 0012 00       		.byte	0
 2302 0013 02       		.uleb128 0x2
 2303 0014 24       		.uleb128 0x24
 2304 0015 00       		.byte	0
 2305 0016 0B       		.uleb128 0xb
 2306 0017 0B       		.uleb128 0xb
 2307 0018 3E       		.uleb128 0x3e
 2308 0019 0B       		.uleb128 0xb
 2309 001a 03       		.uleb128 0x3
 2310 001b 08       		.uleb128 0x8
 2311 001c 00       		.byte	0
 2312 001d 00       		.byte	0
 2313 001e 03       		.uleb128 0x3
 2314 001f 16       		.uleb128 0x16
 2315 0020 00       		.byte	0
 2316 0021 03       		.uleb128 0x3
 2317 0022 0E       		.uleb128 0xe
 2318 0023 3A       		.uleb128 0x3a
 2319 0024 0B       		.uleb128 0xb
 2320 0025 3B       		.uleb128 0x3b
 2321 0026 0B       		.uleb128 0xb
 2322 0027 49       		.uleb128 0x49
 2323 0028 13       		.uleb128 0x13
 2324 0029 00       		.byte	0
 2325 002a 00       		.byte	0
 2326 002b 04       		.uleb128 0x4
 2327 002c 24       		.uleb128 0x24
 2328 002d 00       		.byte	0
 2329 002e 0B       		.uleb128 0xb
 2330 002f 0B       		.uleb128 0xb
 2331 0030 3E       		.uleb128 0x3e
 2332 0031 0B       		.uleb128 0xb
 2333 0032 03       		.uleb128 0x3
ARM GAS  /tmp/ccWyaz7M.s 			page 42


 2334 0033 0E       		.uleb128 0xe
 2335 0034 00       		.byte	0
 2336 0035 00       		.byte	0
 2337 0036 05       		.uleb128 0x5
 2338 0037 13       		.uleb128 0x13
 2339 0038 01       		.byte	0x1
 2340 0039 03       		.uleb128 0x3
 2341 003a 0E       		.uleb128 0xe
 2342 003b 0B       		.uleb128 0xb
 2343 003c 0B       		.uleb128 0xb
 2344 003d 3A       		.uleb128 0x3a
 2345 003e 0B       		.uleb128 0xb
 2346 003f 3B       		.uleb128 0x3b
 2347 0040 0B       		.uleb128 0xb
 2348 0041 01       		.uleb128 0x1
 2349 0042 13       		.uleb128 0x13
 2350 0043 00       		.byte	0
 2351 0044 00       		.byte	0
 2352 0045 06       		.uleb128 0x6
 2353 0046 0D       		.uleb128 0xd
 2354 0047 00       		.byte	0
 2355 0048 03       		.uleb128 0x3
 2356 0049 0E       		.uleb128 0xe
 2357 004a 3A       		.uleb128 0x3a
 2358 004b 0B       		.uleb128 0xb
 2359 004c 3B       		.uleb128 0x3b
 2360 004d 0B       		.uleb128 0xb
 2361 004e 49       		.uleb128 0x49
 2362 004f 13       		.uleb128 0x13
 2363 0050 38       		.uleb128 0x38
 2364 0051 0B       		.uleb128 0xb
 2365 0052 00       		.byte	0
 2366 0053 00       		.byte	0
 2367 0054 07       		.uleb128 0x7
 2368 0055 0D       		.uleb128 0xd
 2369 0056 00       		.byte	0
 2370 0057 03       		.uleb128 0x3
 2371 0058 08       		.uleb128 0x8
 2372 0059 3A       		.uleb128 0x3a
 2373 005a 0B       		.uleb128 0xb
 2374 005b 3B       		.uleb128 0x3b
 2375 005c 0B       		.uleb128 0xb
 2376 005d 49       		.uleb128 0x49
 2377 005e 13       		.uleb128 0x13
 2378 005f 38       		.uleb128 0x38
 2379 0060 0B       		.uleb128 0xb
 2380 0061 00       		.byte	0
 2381 0062 00       		.byte	0
 2382 0063 08       		.uleb128 0x8
 2383 0064 13       		.uleb128 0x13
 2384 0065 01       		.byte	0x1
 2385 0066 0B       		.uleb128 0xb
 2386 0067 0B       		.uleb128 0xb
 2387 0068 3A       		.uleb128 0x3a
 2388 0069 0B       		.uleb128 0xb
 2389 006a 3B       		.uleb128 0x3b
 2390 006b 0B       		.uleb128 0xb
ARM GAS  /tmp/ccWyaz7M.s 			page 43


 2391 006c 01       		.uleb128 0x1
 2392 006d 13       		.uleb128 0x13
 2393 006e 00       		.byte	0
 2394 006f 00       		.byte	0
 2395 0070 09       		.uleb128 0x9
 2396 0071 0F       		.uleb128 0xf
 2397 0072 00       		.byte	0
 2398 0073 0B       		.uleb128 0xb
 2399 0074 0B       		.uleb128 0xb
 2400 0075 49       		.uleb128 0x49
 2401 0076 13       		.uleb128 0x13
 2402 0077 00       		.byte	0
 2403 0078 00       		.byte	0
 2404 0079 0A       		.uleb128 0xa
 2405 007a 0F       		.uleb128 0xf
 2406 007b 00       		.byte	0
 2407 007c 0B       		.uleb128 0xb
 2408 007d 0B       		.uleb128 0xb
 2409 007e 00       		.byte	0
 2410 007f 00       		.byte	0
 2411 0080 0B       		.uleb128 0xb
 2412 0081 13       		.uleb128 0x13
 2413 0082 01       		.byte	0x1
 2414 0083 03       		.uleb128 0x3
 2415 0084 0E       		.uleb128 0xe
 2416 0085 0B       		.uleb128 0xb
 2417 0086 0B       		.uleb128 0xb
 2418 0087 3A       		.uleb128 0x3a
 2419 0088 0B       		.uleb128 0xb
 2420 0089 3B       		.uleb128 0x3b
 2421 008a 05       		.uleb128 0x5
 2422 008b 01       		.uleb128 0x1
 2423 008c 13       		.uleb128 0x13
 2424 008d 00       		.byte	0
 2425 008e 00       		.byte	0
 2426 008f 0C       		.uleb128 0xc
 2427 0090 0D       		.uleb128 0xd
 2428 0091 00       		.byte	0
 2429 0092 03       		.uleb128 0x3
 2430 0093 08       		.uleb128 0x8
 2431 0094 3A       		.uleb128 0x3a
 2432 0095 0B       		.uleb128 0xb
 2433 0096 3B       		.uleb128 0x3b
 2434 0097 05       		.uleb128 0x5
 2435 0098 49       		.uleb128 0x49
 2436 0099 13       		.uleb128 0x13
 2437 009a 38       		.uleb128 0x38
 2438 009b 0B       		.uleb128 0xb
 2439 009c 00       		.byte	0
 2440 009d 00       		.byte	0
 2441 009e 0D       		.uleb128 0xd
 2442 009f 35       		.uleb128 0x35
 2443 00a0 00       		.byte	0
 2444 00a1 49       		.uleb128 0x49
 2445 00a2 13       		.uleb128 0x13
 2446 00a3 00       		.byte	0
 2447 00a4 00       		.byte	0
ARM GAS  /tmp/ccWyaz7M.s 			page 44


 2448 00a5 0E       		.uleb128 0xe
 2449 00a6 17       		.uleb128 0x17
 2450 00a7 01       		.byte	0x1
 2451 00a8 0B       		.uleb128 0xb
 2452 00a9 0B       		.uleb128 0xb
 2453 00aa 3A       		.uleb128 0x3a
 2454 00ab 0B       		.uleb128 0xb
 2455 00ac 3B       		.uleb128 0x3b
 2456 00ad 0B       		.uleb128 0xb
 2457 00ae 01       		.uleb128 0x1
 2458 00af 13       		.uleb128 0x13
 2459 00b0 00       		.byte	0
 2460 00b1 00       		.byte	0
 2461 00b2 0F       		.uleb128 0xf
 2462 00b3 0D       		.uleb128 0xd
 2463 00b4 00       		.byte	0
 2464 00b5 03       		.uleb128 0x3
 2465 00b6 0E       		.uleb128 0xe
 2466 00b7 3A       		.uleb128 0x3a
 2467 00b8 0B       		.uleb128 0xb
 2468 00b9 3B       		.uleb128 0x3b
 2469 00ba 0B       		.uleb128 0xb
 2470 00bb 49       		.uleb128 0x49
 2471 00bc 13       		.uleb128 0x13
 2472 00bd 00       		.byte	0
 2473 00be 00       		.byte	0
 2474 00bf 10       		.uleb128 0x10
 2475 00c0 26       		.uleb128 0x26
 2476 00c1 00       		.byte	0
 2477 00c2 49       		.uleb128 0x49
 2478 00c3 13       		.uleb128 0x13
 2479 00c4 00       		.byte	0
 2480 00c5 00       		.byte	0
 2481 00c6 11       		.uleb128 0x11
 2482 00c7 15       		.uleb128 0x15
 2483 00c8 01       		.byte	0x1
 2484 00c9 27       		.uleb128 0x27
 2485 00ca 19       		.uleb128 0x19
 2486 00cb 49       		.uleb128 0x49
 2487 00cc 13       		.uleb128 0x13
 2488 00cd 01       		.uleb128 0x1
 2489 00ce 13       		.uleb128 0x13
 2490 00cf 00       		.byte	0
 2491 00d0 00       		.byte	0
 2492 00d1 12       		.uleb128 0x12
 2493 00d2 05       		.uleb128 0x5
 2494 00d3 00       		.byte	0
 2495 00d4 49       		.uleb128 0x49
 2496 00d5 13       		.uleb128 0x13
 2497 00d6 00       		.byte	0
 2498 00d7 00       		.byte	0
 2499 00d8 13       		.uleb128 0x13
 2500 00d9 15       		.uleb128 0x15
 2501 00da 01       		.byte	0x1
 2502 00db 27       		.uleb128 0x27
 2503 00dc 19       		.uleb128 0x19
 2504 00dd 01       		.uleb128 0x1
ARM GAS  /tmp/ccWyaz7M.s 			page 45


 2505 00de 13       		.uleb128 0x13
 2506 00df 00       		.byte	0
 2507 00e0 00       		.byte	0
 2508 00e1 14       		.uleb128 0x14
 2509 00e2 13       		.uleb128 0x13
 2510 00e3 01       		.byte	0x1
 2511 00e4 0B       		.uleb128 0xb
 2512 00e5 0B       		.uleb128 0xb
 2513 00e6 3A       		.uleb128 0x3a
 2514 00e7 0B       		.uleb128 0xb
 2515 00e8 3B       		.uleb128 0x3b
 2516 00e9 05       		.uleb128 0x5
 2517 00ea 01       		.uleb128 0x1
 2518 00eb 13       		.uleb128 0x13
 2519 00ec 00       		.byte	0
 2520 00ed 00       		.byte	0
 2521 00ee 15       		.uleb128 0x15
 2522 00ef 0D       		.uleb128 0xd
 2523 00f0 00       		.byte	0
 2524 00f1 03       		.uleb128 0x3
 2525 00f2 0E       		.uleb128 0xe
 2526 00f3 3A       		.uleb128 0x3a
 2527 00f4 0B       		.uleb128 0xb
 2528 00f5 3B       		.uleb128 0x3b
 2529 00f6 05       		.uleb128 0x5
 2530 00f7 49       		.uleb128 0x49
 2531 00f8 13       		.uleb128 0x13
 2532 00f9 38       		.uleb128 0x38
 2533 00fa 0B       		.uleb128 0xb
 2534 00fb 00       		.byte	0
 2535 00fc 00       		.byte	0
 2536 00fd 16       		.uleb128 0x16
 2537 00fe 16       		.uleb128 0x16
 2538 00ff 00       		.byte	0
 2539 0100 03       		.uleb128 0x3
 2540 0101 0E       		.uleb128 0xe
 2541 0102 3A       		.uleb128 0x3a
 2542 0103 0B       		.uleb128 0xb
 2543 0104 3B       		.uleb128 0x3b
 2544 0105 05       		.uleb128 0x5
 2545 0106 49       		.uleb128 0x49
 2546 0107 13       		.uleb128 0x13
 2547 0108 00       		.byte	0
 2548 0109 00       		.byte	0
 2549 010a 17       		.uleb128 0x17
 2550 010b 04       		.uleb128 0x4
 2551 010c 01       		.byte	0x1
 2552 010d 0B       		.uleb128 0xb
 2553 010e 0B       		.uleb128 0xb
 2554 010f 3A       		.uleb128 0x3a
 2555 0110 0B       		.uleb128 0xb
 2556 0111 3B       		.uleb128 0x3b
 2557 0112 0B       		.uleb128 0xb
 2558 0113 01       		.uleb128 0x1
 2559 0114 13       		.uleb128 0x13
 2560 0115 00       		.byte	0
 2561 0116 00       		.byte	0
ARM GAS  /tmp/ccWyaz7M.s 			page 46


 2562 0117 18       		.uleb128 0x18
 2563 0118 28       		.uleb128 0x28
 2564 0119 00       		.byte	0
 2565 011a 03       		.uleb128 0x3
 2566 011b 0E       		.uleb128 0xe
 2567 011c 1C       		.uleb128 0x1c
 2568 011d 0D       		.uleb128 0xd
 2569 011e 00       		.byte	0
 2570 011f 00       		.byte	0
 2571 0120 19       		.uleb128 0x19
 2572 0121 01       		.uleb128 0x1
 2573 0122 01       		.byte	0x1
 2574 0123 49       		.uleb128 0x49
 2575 0124 13       		.uleb128 0x13
 2576 0125 01       		.uleb128 0x1
 2577 0126 13       		.uleb128 0x13
 2578 0127 00       		.byte	0
 2579 0128 00       		.byte	0
 2580 0129 1A       		.uleb128 0x1a
 2581 012a 21       		.uleb128 0x21
 2582 012b 00       		.byte	0
 2583 012c 49       		.uleb128 0x49
 2584 012d 13       		.uleb128 0x13
 2585 012e 2F       		.uleb128 0x2f
 2586 012f 0B       		.uleb128 0xb
 2587 0130 00       		.byte	0
 2588 0131 00       		.byte	0
 2589 0132 1B       		.uleb128 0x1b
 2590 0133 2E       		.uleb128 0x2e
 2591 0134 01       		.byte	0x1
 2592 0135 03       		.uleb128 0x3
 2593 0136 0E       		.uleb128 0xe
 2594 0137 3A       		.uleb128 0x3a
 2595 0138 0B       		.uleb128 0xb
 2596 0139 3B       		.uleb128 0x3b
 2597 013a 0B       		.uleb128 0xb
 2598 013b 27       		.uleb128 0x27
 2599 013c 19       		.uleb128 0x19
 2600 013d 20       		.uleb128 0x20
 2601 013e 0B       		.uleb128 0xb
 2602 013f 01       		.uleb128 0x1
 2603 0140 13       		.uleb128 0x13
 2604 0141 00       		.byte	0
 2605 0142 00       		.byte	0
 2606 0143 1C       		.uleb128 0x1c
 2607 0144 05       		.uleb128 0x5
 2608 0145 00       		.byte	0
 2609 0146 03       		.uleb128 0x3
 2610 0147 08       		.uleb128 0x8
 2611 0148 3A       		.uleb128 0x3a
 2612 0149 0B       		.uleb128 0xb
 2613 014a 3B       		.uleb128 0x3b
 2614 014b 0B       		.uleb128 0xb
 2615 014c 49       		.uleb128 0x49
 2616 014d 13       		.uleb128 0x13
 2617 014e 00       		.byte	0
 2618 014f 00       		.byte	0
ARM GAS  /tmp/ccWyaz7M.s 			page 47


 2619 0150 1D       		.uleb128 0x1d
 2620 0151 05       		.uleb128 0x5
 2621 0152 00       		.byte	0
 2622 0153 03       		.uleb128 0x3
 2623 0154 0E       		.uleb128 0xe
 2624 0155 3A       		.uleb128 0x3a
 2625 0156 0B       		.uleb128 0xb
 2626 0157 3B       		.uleb128 0x3b
 2627 0158 0B       		.uleb128 0xb
 2628 0159 49       		.uleb128 0x49
 2629 015a 13       		.uleb128 0x13
 2630 015b 00       		.byte	0
 2631 015c 00       		.byte	0
 2632 015d 1E       		.uleb128 0x1e
 2633 015e 34       		.uleb128 0x34
 2634 015f 00       		.byte	0
 2635 0160 03       		.uleb128 0x3
 2636 0161 08       		.uleb128 0x8
 2637 0162 3A       		.uleb128 0x3a
 2638 0163 0B       		.uleb128 0xb
 2639 0164 3B       		.uleb128 0x3b
 2640 0165 0B       		.uleb128 0xb
 2641 0166 49       		.uleb128 0x49
 2642 0167 13       		.uleb128 0x13
 2643 0168 00       		.byte	0
 2644 0169 00       		.byte	0
 2645 016a 1F       		.uleb128 0x1f
 2646 016b 0B       		.uleb128 0xb
 2647 016c 01       		.byte	0x1
 2648 016d 01       		.uleb128 0x1
 2649 016e 13       		.uleb128 0x13
 2650 016f 00       		.byte	0
 2651 0170 00       		.byte	0
 2652 0171 20       		.uleb128 0x20
 2653 0172 0B       		.uleb128 0xb
 2654 0173 01       		.byte	0x1
 2655 0174 00       		.byte	0
 2656 0175 00       		.byte	0
 2657 0176 21       		.uleb128 0x21
 2658 0177 2E       		.uleb128 0x2e
 2659 0178 01       		.byte	0x1
 2660 0179 03       		.uleb128 0x3
 2661 017a 0E       		.uleb128 0xe
 2662 017b 3A       		.uleb128 0x3a
 2663 017c 0B       		.uleb128 0xb
 2664 017d 3B       		.uleb128 0x3b
 2665 017e 0B       		.uleb128 0xb
 2666 017f 27       		.uleb128 0x27
 2667 0180 19       		.uleb128 0x19
 2668 0181 11       		.uleb128 0x11
 2669 0182 01       		.uleb128 0x1
 2670 0183 12       		.uleb128 0x12
 2671 0184 06       		.uleb128 0x6
 2672 0185 40       		.uleb128 0x40
 2673 0186 18       		.uleb128 0x18
 2674 0187 9742     		.uleb128 0x2117
 2675 0189 19       		.uleb128 0x19
ARM GAS  /tmp/ccWyaz7M.s 			page 48


 2676 018a 01       		.uleb128 0x1
 2677 018b 13       		.uleb128 0x13
 2678 018c 00       		.byte	0
 2679 018d 00       		.byte	0
 2680 018e 22       		.uleb128 0x22
 2681 018f 05       		.uleb128 0x5
 2682 0190 00       		.byte	0
 2683 0191 03       		.uleb128 0x3
 2684 0192 08       		.uleb128 0x8
 2685 0193 3A       		.uleb128 0x3a
 2686 0194 0B       		.uleb128 0xb
 2687 0195 3B       		.uleb128 0x3b
 2688 0196 0B       		.uleb128 0xb
 2689 0197 49       		.uleb128 0x49
 2690 0198 13       		.uleb128 0x13
 2691 0199 02       		.uleb128 0x2
 2692 019a 18       		.uleb128 0x18
 2693 019b 00       		.byte	0
 2694 019c 00       		.byte	0
 2695 019d 23       		.uleb128 0x23
 2696 019e 2E       		.uleb128 0x2e
 2697 019f 01       		.byte	0x1
 2698 01a0 3F       		.uleb128 0x3f
 2699 01a1 19       		.uleb128 0x19
 2700 01a2 03       		.uleb128 0x3
 2701 01a3 0E       		.uleb128 0xe
 2702 01a4 3A       		.uleb128 0x3a
 2703 01a5 0B       		.uleb128 0xb
 2704 01a6 3B       		.uleb128 0x3b
 2705 01a7 05       		.uleb128 0x5
 2706 01a8 27       		.uleb128 0x27
 2707 01a9 19       		.uleb128 0x19
 2708 01aa 11       		.uleb128 0x11
 2709 01ab 01       		.uleb128 0x1
 2710 01ac 12       		.uleb128 0x12
 2711 01ad 06       		.uleb128 0x6
 2712 01ae 40       		.uleb128 0x40
 2713 01af 18       		.uleb128 0x18
 2714 01b0 9742     		.uleb128 0x2117
 2715 01b2 19       		.uleb128 0x19
 2716 01b3 01       		.uleb128 0x1
 2717 01b4 13       		.uleb128 0x13
 2718 01b5 00       		.byte	0
 2719 01b6 00       		.byte	0
 2720 01b7 24       		.uleb128 0x24
 2721 01b8 1D       		.uleb128 0x1d
 2722 01b9 01       		.byte	0x1
 2723 01ba 31       		.uleb128 0x31
 2724 01bb 13       		.uleb128 0x13
 2725 01bc 52       		.uleb128 0x52
 2726 01bd 01       		.uleb128 0x1
 2727 01be 55       		.uleb128 0x55
 2728 01bf 17       		.uleb128 0x17
 2729 01c0 58       		.uleb128 0x58
 2730 01c1 0B       		.uleb128 0xb
 2731 01c2 59       		.uleb128 0x59
 2732 01c3 05       		.uleb128 0x5
ARM GAS  /tmp/ccWyaz7M.s 			page 49


 2733 01c4 01       		.uleb128 0x1
 2734 01c5 13       		.uleb128 0x13
 2735 01c6 00       		.byte	0
 2736 01c7 00       		.byte	0
 2737 01c8 25       		.uleb128 0x25
 2738 01c9 05       		.uleb128 0x5
 2739 01ca 00       		.byte	0
 2740 01cb 31       		.uleb128 0x31
 2741 01cc 13       		.uleb128 0x13
 2742 01cd 02       		.uleb128 0x2
 2743 01ce 18       		.uleb128 0x18
 2744 01cf 00       		.byte	0
 2745 01d0 00       		.byte	0
 2746 01d1 26       		.uleb128 0x26
 2747 01d2 0B       		.uleb128 0xb
 2748 01d3 01       		.byte	0x1
 2749 01d4 55       		.uleb128 0x55
 2750 01d5 17       		.uleb128 0x17
 2751 01d6 00       		.byte	0
 2752 01d7 00       		.byte	0
 2753 01d8 27       		.uleb128 0x27
 2754 01d9 34       		.uleb128 0x34
 2755 01da 00       		.byte	0
 2756 01db 31       		.uleb128 0x31
 2757 01dc 13       		.uleb128 0x13
 2758 01dd 02       		.uleb128 0x2
 2759 01de 17       		.uleb128 0x17
 2760 01df 00       		.byte	0
 2761 01e0 00       		.byte	0
 2762 01e1 28       		.uleb128 0x28
 2763 01e2 0B       		.uleb128 0xb
 2764 01e3 01       		.byte	0x1
 2765 01e4 11       		.uleb128 0x11
 2766 01e5 01       		.uleb128 0x1
 2767 01e6 12       		.uleb128 0x12
 2768 01e7 06       		.uleb128 0x6
 2769 01e8 01       		.uleb128 0x1
 2770 01e9 13       		.uleb128 0x13
 2771 01ea 00       		.byte	0
 2772 01eb 00       		.byte	0
 2773 01ec 29       		.uleb128 0x29
 2774 01ed 34       		.uleb128 0x34
 2775 01ee 00       		.byte	0
 2776 01ef 31       		.uleb128 0x31
 2777 01f0 13       		.uleb128 0x13
 2778 01f1 02       		.uleb128 0x2
 2779 01f2 18       		.uleb128 0x18
 2780 01f3 00       		.byte	0
 2781 01f4 00       		.byte	0
 2782 01f5 2A       		.uleb128 0x2a
 2783 01f6 1D       		.uleb128 0x1d
 2784 01f7 01       		.byte	0x1
 2785 01f8 31       		.uleb128 0x31
 2786 01f9 13       		.uleb128 0x13
 2787 01fa 11       		.uleb128 0x11
 2788 01fb 01       		.uleb128 0x1
 2789 01fc 12       		.uleb128 0x12
ARM GAS  /tmp/ccWyaz7M.s 			page 50


 2790 01fd 06       		.uleb128 0x6
 2791 01fe 58       		.uleb128 0x58
 2792 01ff 0B       		.uleb128 0xb
 2793 0200 59       		.uleb128 0x59
 2794 0201 0B       		.uleb128 0xb
 2795 0202 01       		.uleb128 0x1
 2796 0203 13       		.uleb128 0x13
 2797 0204 00       		.byte	0
 2798 0205 00       		.byte	0
 2799 0206 2B       		.uleb128 0x2b
 2800 0207 05       		.uleb128 0x5
 2801 0208 00       		.byte	0
 2802 0209 31       		.uleb128 0x31
 2803 020a 13       		.uleb128 0x13
 2804 020b 02       		.uleb128 0x2
 2805 020c 17       		.uleb128 0x17
 2806 020d 00       		.byte	0
 2807 020e 00       		.byte	0
 2808 020f 2C       		.uleb128 0x2c
 2809 0210 0B       		.uleb128 0xb
 2810 0211 01       		.byte	0x1
 2811 0212 11       		.uleb128 0x11
 2812 0213 01       		.uleb128 0x1
 2813 0214 12       		.uleb128 0x12
 2814 0215 06       		.uleb128 0x6
 2815 0216 00       		.byte	0
 2816 0217 00       		.byte	0
 2817 0218 2D       		.uleb128 0x2d
 2818 0219 898201   		.uleb128 0x4109
 2819 021c 01       		.byte	0x1
 2820 021d 11       		.uleb128 0x11
 2821 021e 01       		.uleb128 0x1
 2822 021f 31       		.uleb128 0x31
 2823 0220 13       		.uleb128 0x13
 2824 0221 00       		.byte	0
 2825 0222 00       		.byte	0
 2826 0223 2E       		.uleb128 0x2e
 2827 0224 8A8201   		.uleb128 0x410a
 2828 0227 00       		.byte	0
 2829 0228 02       		.uleb128 0x2
 2830 0229 18       		.uleb128 0x18
 2831 022a 9142     		.uleb128 0x2111
 2832 022c 18       		.uleb128 0x18
 2833 022d 00       		.byte	0
 2834 022e 00       		.byte	0
 2835 022f 2F       		.uleb128 0x2f
 2836 0230 898201   		.uleb128 0x4109
 2837 0233 01       		.byte	0x1
 2838 0234 11       		.uleb128 0x11
 2839 0235 01       		.uleb128 0x1
 2840 0236 31       		.uleb128 0x31
 2841 0237 13       		.uleb128 0x13
 2842 0238 01       		.uleb128 0x1
 2843 0239 13       		.uleb128 0x13
 2844 023a 00       		.byte	0
 2845 023b 00       		.byte	0
 2846 023c 30       		.uleb128 0x30
ARM GAS  /tmp/ccWyaz7M.s 			page 51


 2847 023d 898201   		.uleb128 0x4109
 2848 0240 00       		.byte	0
 2849 0241 11       		.uleb128 0x11
 2850 0242 01       		.uleb128 0x1
 2851 0243 9542     		.uleb128 0x2115
 2852 0245 19       		.uleb128 0x19
 2853 0246 31       		.uleb128 0x31
 2854 0247 13       		.uleb128 0x13
 2855 0248 00       		.byte	0
 2856 0249 00       		.byte	0
 2857 024a 31       		.uleb128 0x31
 2858 024b 05       		.uleb128 0x5
 2859 024c 00       		.byte	0
 2860 024d 03       		.uleb128 0x3
 2861 024e 08       		.uleb128 0x8
 2862 024f 3A       		.uleb128 0x3a
 2863 0250 0B       		.uleb128 0xb
 2864 0251 3B       		.uleb128 0x3b
 2865 0252 05       		.uleb128 0x5
 2866 0253 49       		.uleb128 0x49
 2867 0254 13       		.uleb128 0x13
 2868 0255 02       		.uleb128 0x2
 2869 0256 17       		.uleb128 0x17
 2870 0257 00       		.byte	0
 2871 0258 00       		.byte	0
 2872 0259 32       		.uleb128 0x32
 2873 025a 05       		.uleb128 0x5
 2874 025b 00       		.byte	0
 2875 025c 03       		.uleb128 0x3
 2876 025d 0E       		.uleb128 0xe
 2877 025e 3A       		.uleb128 0x3a
 2878 025f 0B       		.uleb128 0xb
 2879 0260 3B       		.uleb128 0x3b
 2880 0261 05       		.uleb128 0x5
 2881 0262 49       		.uleb128 0x49
 2882 0263 13       		.uleb128 0x13
 2883 0264 02       		.uleb128 0x2
 2884 0265 17       		.uleb128 0x17
 2885 0266 00       		.byte	0
 2886 0267 00       		.byte	0
 2887 0268 33       		.uleb128 0x33
 2888 0269 898201   		.uleb128 0x4109
 2889 026c 01       		.byte	0x1
 2890 026d 11       		.uleb128 0x11
 2891 026e 01       		.uleb128 0x1
 2892 026f 9542     		.uleb128 0x2115
 2893 0271 19       		.uleb128 0x19
 2894 0272 31       		.uleb128 0x31
 2895 0273 13       		.uleb128 0x13
 2896 0274 00       		.byte	0
 2897 0275 00       		.byte	0
 2898 0276 34       		.uleb128 0x34
 2899 0277 34       		.uleb128 0x34
 2900 0278 00       		.byte	0
 2901 0279 03       		.uleb128 0x3
 2902 027a 0E       		.uleb128 0xe
 2903 027b 3A       		.uleb128 0x3a
ARM GAS  /tmp/ccWyaz7M.s 			page 52


 2904 027c 0B       		.uleb128 0xb
 2905 027d 3B       		.uleb128 0x3b
 2906 027e 0B       		.uleb128 0xb
 2907 027f 49       		.uleb128 0x49
 2908 0280 13       		.uleb128 0x13
 2909 0281 02       		.uleb128 0x2
 2910 0282 18       		.uleb128 0x18
 2911 0283 00       		.byte	0
 2912 0284 00       		.byte	0
 2913 0285 35       		.uleb128 0x35
 2914 0286 34       		.uleb128 0x34
 2915 0287 00       		.byte	0
 2916 0288 03       		.uleb128 0x3
 2917 0289 0E       		.uleb128 0xe
 2918 028a 3A       		.uleb128 0x3a
 2919 028b 0B       		.uleb128 0xb
 2920 028c 3B       		.uleb128 0x3b
 2921 028d 05       		.uleb128 0x5
 2922 028e 49       		.uleb128 0x49
 2923 028f 13       		.uleb128 0x13
 2924 0290 3F       		.uleb128 0x3f
 2925 0291 19       		.uleb128 0x19
 2926 0292 3C       		.uleb128 0x3c
 2927 0293 19       		.uleb128 0x19
 2928 0294 00       		.byte	0
 2929 0295 00       		.byte	0
 2930 0296 36       		.uleb128 0x36
 2931 0297 34       		.uleb128 0x34
 2932 0298 00       		.byte	0
 2933 0299 03       		.uleb128 0x3
 2934 029a 08       		.uleb128 0x8
 2935 029b 3A       		.uleb128 0x3a
 2936 029c 0B       		.uleb128 0xb
 2937 029d 3B       		.uleb128 0x3b
 2938 029e 0B       		.uleb128 0xb
 2939 029f 49       		.uleb128 0x49
 2940 02a0 13       		.uleb128 0x13
 2941 02a1 3F       		.uleb128 0x3f
 2942 02a2 19       		.uleb128 0x19
 2943 02a3 02       		.uleb128 0x2
 2944 02a4 18       		.uleb128 0x18
 2945 02a5 00       		.byte	0
 2946 02a6 00       		.byte	0
 2947 02a7 37       		.uleb128 0x37
 2948 02a8 2E       		.uleb128 0x2e
 2949 02a9 01       		.byte	0x1
 2950 02aa 3F       		.uleb128 0x3f
 2951 02ab 19       		.uleb128 0x19
 2952 02ac 03       		.uleb128 0x3
 2953 02ad 0E       		.uleb128 0xe
 2954 02ae 3A       		.uleb128 0x3a
 2955 02af 0B       		.uleb128 0xb
 2956 02b0 3B       		.uleb128 0x3b
 2957 02b1 0B       		.uleb128 0xb
 2958 02b2 27       		.uleb128 0x27
 2959 02b3 19       		.uleb128 0x19
 2960 02b4 3C       		.uleb128 0x3c
ARM GAS  /tmp/ccWyaz7M.s 			page 53


 2961 02b5 19       		.uleb128 0x19
 2962 02b6 01       		.uleb128 0x1
 2963 02b7 13       		.uleb128 0x13
 2964 02b8 00       		.byte	0
 2965 02b9 00       		.byte	0
 2966 02ba 38       		.uleb128 0x38
 2967 02bb 2E       		.uleb128 0x2e
 2968 02bc 01       		.byte	0x1
 2969 02bd 3F       		.uleb128 0x3f
 2970 02be 19       		.uleb128 0x19
 2971 02bf 03       		.uleb128 0x3
 2972 02c0 0E       		.uleb128 0xe
 2973 02c1 3A       		.uleb128 0x3a
 2974 02c2 0B       		.uleb128 0xb
 2975 02c3 3B       		.uleb128 0x3b
 2976 02c4 05       		.uleb128 0x5
 2977 02c5 27       		.uleb128 0x27
 2978 02c6 19       		.uleb128 0x19
 2979 02c7 49       		.uleb128 0x49
 2980 02c8 13       		.uleb128 0x13
 2981 02c9 3C       		.uleb128 0x3c
 2982 02ca 19       		.uleb128 0x19
 2983 02cb 01       		.uleb128 0x1
 2984 02cc 13       		.uleb128 0x13
 2985 02cd 00       		.byte	0
 2986 02ce 00       		.byte	0
 2987 02cf 39       		.uleb128 0x39
 2988 02d0 2E       		.uleb128 0x2e
 2989 02d1 01       		.byte	0x1
 2990 02d2 3F       		.uleb128 0x3f
 2991 02d3 19       		.uleb128 0x19
 2992 02d4 03       		.uleb128 0x3
 2993 02d5 0E       		.uleb128 0xe
 2994 02d6 3A       		.uleb128 0x3a
 2995 02d7 0B       		.uleb128 0xb
 2996 02d8 3B       		.uleb128 0x3b
 2997 02d9 05       		.uleb128 0x5
 2998 02da 27       		.uleb128 0x27
 2999 02db 19       		.uleb128 0x19
 3000 02dc 3C       		.uleb128 0x3c
 3001 02dd 19       		.uleb128 0x19
 3002 02de 01       		.uleb128 0x1
 3003 02df 13       		.uleb128 0x13
 3004 02e0 00       		.byte	0
 3005 02e1 00       		.byte	0
 3006 02e2 3A       		.uleb128 0x3a
 3007 02e3 2E       		.uleb128 0x2e
 3008 02e4 00       		.byte	0
 3009 02e5 3F       		.uleb128 0x3f
 3010 02e6 19       		.uleb128 0x19
 3011 02e7 03       		.uleb128 0x3
 3012 02e8 0E       		.uleb128 0xe
 3013 02e9 3A       		.uleb128 0x3a
 3014 02ea 0B       		.uleb128 0xb
 3015 02eb 3B       		.uleb128 0x3b
 3016 02ec 05       		.uleb128 0x5
 3017 02ed 27       		.uleb128 0x27
ARM GAS  /tmp/ccWyaz7M.s 			page 54


 3018 02ee 19       		.uleb128 0x19
 3019 02ef 3C       		.uleb128 0x3c
 3020 02f0 19       		.uleb128 0x19
 3021 02f1 00       		.byte	0
 3022 02f2 00       		.byte	0
 3023 02f3 3B       		.uleb128 0x3b
 3024 02f4 2E       		.uleb128 0x2e
 3025 02f5 01       		.byte	0x1
 3026 02f6 3F       		.uleb128 0x3f
 3027 02f7 19       		.uleb128 0x19
 3028 02f8 03       		.uleb128 0x3
 3029 02f9 0E       		.uleb128 0xe
 3030 02fa 3A       		.uleb128 0x3a
 3031 02fb 0B       		.uleb128 0xb
 3032 02fc 3B       		.uleb128 0x3b
 3033 02fd 05       		.uleb128 0x5
 3034 02fe 27       		.uleb128 0x27
 3035 02ff 19       		.uleb128 0x19
 3036 0300 3C       		.uleb128 0x3c
 3037 0301 19       		.uleb128 0x19
 3038 0302 00       		.byte	0
 3039 0303 00       		.byte	0
 3040 0304 00       		.byte	0
 3041              		.section	.debug_loc,"",%progbits
 3042              	.Ldebug_loc0:
 3043              	.LLST0:
 3044 0000 08000000 		.4byte	.LVL2
 3045 0004 9A000000 		.4byte	.LVL19
 3046 0008 0100     		.2byte	0x1
 3047 000a 55       		.byte	0x55
 3048 000b 9E000000 		.4byte	.LVL20
 3049 000f F8000000 		.4byte	.LFE68
 3050 0013 0100     		.2byte	0x1
 3051 0015 55       		.byte	0x55
 3052 0016 00000000 		.4byte	0
 3053 001a 00000000 		.4byte	0
 3054              	.LLST1:
 3055 001e 0E000000 		.4byte	.LVL3
 3056 0022 8C000000 		.4byte	.LVL18
 3057 0026 0100     		.2byte	0x1
 3058 0028 56       		.byte	0x56
 3059 0029 9E000000 		.4byte	.LVL20
 3060 002d F8000000 		.4byte	.LFE68
 3061 0031 0100     		.2byte	0x1
 3062 0033 56       		.byte	0x56
 3063 0034 00000000 		.4byte	0
 3064 0038 00000000 		.4byte	0
 3065              	.LLST2:
 3066 003c 10000000 		.4byte	.LVL4
 3067 0040 20000000 		.4byte	.LVL5
 3068 0044 0100     		.2byte	0x1
 3069 0046 54       		.byte	0x54
 3070 0047 2E000000 		.4byte	.LVL7
 3071 004b 54000000 		.4byte	.LVL13
 3072 004f 0100     		.2byte	0x1
 3073 0051 54       		.byte	0x54
 3074 0052 9E000000 		.4byte	.LVL20
ARM GAS  /tmp/ccWyaz7M.s 			page 55


 3075 0056 BC000000 		.4byte	.LVL22
 3076 005a 0100     		.2byte	0x1
 3077 005c 54       		.byte	0x54
 3078 005d 00000000 		.4byte	0
 3079 0061 00000000 		.4byte	0
 3080              	.LLST3:
 3081 0065 36000000 		.4byte	.LVL9
 3082 0069 54000000 		.4byte	.LVL13
 3083 006d 0100     		.2byte	0x1
 3084 006f 54       		.byte	0x54
 3085 0070 00000000 		.4byte	0
 3086 0074 00000000 		.4byte	0
 3087              	.LLST4:
 3088 0078 36000000 		.4byte	.LVL9
 3089 007c 62000000 		.4byte	.LVL16
 3090 0080 0600     		.2byte	0x6
 3091 0082 03       		.byte	0x3
 3092 0083 00000000 		.4byte	SD1
 3093 0087 9F       		.byte	0x9f
 3094 0088 00000000 		.4byte	0
 3095 008c 00000000 		.4byte	0
 3096              	.LLST5:
 3097 0090 36000000 		.4byte	.LVL9
 3098 0094 40000000 		.4byte	.LVL10
 3099 0098 0200     		.2byte	0x2
 3100 009a 30       		.byte	0x30
 3101 009b 9F       		.byte	0x9f
 3102 009c 40000000 		.4byte	.LVL10
 3103 00a0 5F000000 		.4byte	.LVL15-1
 3104 00a4 0100     		.2byte	0x1
 3105 00a6 51       		.byte	0x51
 3106 00a7 00000000 		.4byte	0
 3107 00ab 00000000 		.4byte	0
 3108              	.LLST6:
 3109 00af C8000000 		.4byte	.LVL23
 3110 00b3 CE000000 		.4byte	.LVL24
 3111 00b7 0100     		.2byte	0x1
 3112 00b9 50       		.byte	0x50
 3113 00ba D8000000 		.4byte	.LVL25
 3114 00be DA000000 		.4byte	.LVL26
 3115 00c2 0100     		.2byte	0x1
 3116 00c4 50       		.byte	0x50
 3117 00c5 00000000 		.4byte	0
 3118 00c9 00000000 		.4byte	0
 3119              	.LLST7:
 3120 00cd 00000000 		.4byte	.LVL29
 3121 00d1 12000000 		.4byte	.LVL31
 3122 00d5 0100     		.2byte	0x1
 3123 00d7 50       		.byte	0x50
 3124 00d8 12000000 		.4byte	.LVL31
 3125 00dc 4E000000 		.4byte	.LVL35
 3126 00e0 0100     		.2byte	0x1
 3127 00e2 55       		.byte	0x55
 3128 00e3 4E000000 		.4byte	.LVL35
 3129 00e7 58000000 		.4byte	.LVL36
 3130 00eb 0100     		.2byte	0x1
 3131 00ed 50       		.byte	0x50
ARM GAS  /tmp/ccWyaz7M.s 			page 56


 3132 00ee 58000000 		.4byte	.LVL36
 3133 00f2 78000000 		.4byte	.LFE70
 3134 00f6 0100     		.2byte	0x1
 3135 00f8 55       		.byte	0x55
 3136 00f9 00000000 		.4byte	0
 3137 00fd 00000000 		.4byte	0
 3138              	.LLST8:
 3139 0101 00000000 		.4byte	.LVL29
 3140 0105 0E000000 		.4byte	.LVL30
 3141 0109 0100     		.2byte	0x1
 3142 010b 51       		.byte	0x51
 3143 010c 0E000000 		.4byte	.LVL30
 3144 0110 30000000 		.4byte	.LVL33
 3145 0114 0100     		.2byte	0x1
 3146 0116 54       		.byte	0x54
 3147 0117 30000000 		.4byte	.LVL33
 3148 011b 4E000000 		.4byte	.LVL35
 3149 011f 1300     		.2byte	0x13
 3150 0121 F3       		.byte	0xf3
 3151 0122 01       		.uleb128 0x1
 3152 0123 51       		.byte	0x51
 3153 0124 03       		.byte	0x3
 3154 0125 00000000 		.4byte	.LANCHOR1
 3155 0129 F3       		.byte	0xf3
 3156 012a 01       		.uleb128 0x1
 3157 012b 51       		.byte	0x51
 3158 012c 30       		.byte	0x30
 3159 012d 2E       		.byte	0x2e
 3160 012e 28       		.byte	0x28
 3161 012f 0100     		.2byte	0x1
 3162 0131 16       		.byte	0x16
 3163 0132 13       		.byte	0x13
 3164 0133 9F       		.byte	0x9f
 3165 0134 4E000000 		.4byte	.LVL35
 3166 0138 78000000 		.4byte	.LFE70
 3167 013c 0100     		.2byte	0x1
 3168 013e 54       		.byte	0x54
 3169 013f 00000000 		.4byte	0
 3170 0143 00000000 		.4byte	0
 3171              	.LLST9:
 3172 0147 1A000000 		.4byte	.LVL32
 3173 014b 4E000000 		.4byte	.LVL35
 3174 014f 0100     		.2byte	0x1
 3175 0151 55       		.byte	0x55
 3176 0152 00000000 		.4byte	0
 3177 0156 00000000 		.4byte	0
 3178              	.LLST10:
 3179 015a 1A000000 		.4byte	.LVL32
 3180 015e 30000000 		.4byte	.LVL33
 3181 0162 0100     		.2byte	0x1
 3182 0164 54       		.byte	0x54
 3183 0165 30000000 		.4byte	.LVL33
 3184 0169 4E000000 		.4byte	.LVL35
 3185 016d 1300     		.2byte	0x13
 3186 016f F3       		.byte	0xf3
 3187 0170 01       		.uleb128 0x1
 3188 0171 51       		.byte	0x51
ARM GAS  /tmp/ccWyaz7M.s 			page 57


 3189 0172 03       		.byte	0x3
 3190 0173 00000000 		.4byte	.LANCHOR1
 3191 0177 F3       		.byte	0xf3
 3192 0178 01       		.uleb128 0x1
 3193 0179 51       		.byte	0x51
 3194 017a 30       		.byte	0x30
 3195 017b 2E       		.byte	0x2e
 3196 017c 28       		.byte	0x28
 3197 017d 0100     		.2byte	0x1
 3198 017f 16       		.byte	0x16
 3199 0180 13       		.byte	0x13
 3200 0181 9F       		.byte	0x9f
 3201 0182 00000000 		.4byte	0
 3202 0186 00000000 		.4byte	0
 3203              	.LLST11:
 3204 018a 1A000000 		.4byte	.LVL32
 3205 018e 4C000000 		.4byte	.LVL34
 3206 0192 0100     		.2byte	0x1
 3207 0194 53       		.byte	0x53
 3208 0195 00000000 		.4byte	0
 3209 0199 00000000 		.4byte	0
 3210              	.LLST12:
 3211 019d 00000000 		.4byte	.LVL38
 3212 01a1 1E000000 		.4byte	.LVL41
 3213 01a5 0100     		.2byte	0x1
 3214 01a7 50       		.byte	0x50
 3215 01a8 1E000000 		.4byte	.LVL41
 3216 01ac 34000000 		.4byte	.LFE71
 3217 01b0 0400     		.2byte	0x4
 3218 01b2 F3       		.byte	0xf3
 3219 01b3 01       		.uleb128 0x1
 3220 01b4 50       		.byte	0x50
 3221 01b5 9F       		.byte	0x9f
 3222 01b6 00000000 		.4byte	0
 3223 01ba 00000000 		.4byte	0
 3224              	.LLST13:
 3225 01be 0E000000 		.4byte	.LVL39
 3226 01c2 1C000000 		.4byte	.LVL40
 3227 01c6 0100     		.2byte	0x1
 3228 01c8 53       		.byte	0x53
 3229 01c9 1C000000 		.4byte	.LVL40
 3230 01cd 1E000000 		.4byte	.LVL41
 3231 01d1 0300     		.2byte	0x3
 3232 01d3 70       		.byte	0x70
 3233 01d4 D401     		.sleb128 212
 3234 01d6 1E000000 		.4byte	.LVL41
 3235 01da 29000000 		.4byte	.LVL42-1
 3236 01de 0600     		.2byte	0x6
 3237 01e0 F3       		.byte	0xf3
 3238 01e1 01       		.uleb128 0x1
 3239 01e2 50       		.byte	0x50
 3240 01e3 23       		.byte	0x23
 3241 01e4 D401     		.uleb128 0xd4
 3242 01e6 00000000 		.4byte	0
 3243 01ea 00000000 		.4byte	0
 3244              		.section	.debug_aranges,"",%progbits
 3245 0000 3C000000 		.4byte	0x3c
ARM GAS  /tmp/ccWyaz7M.s 			page 58


 3246 0004 0200     		.2byte	0x2
 3247 0006 00000000 		.4byte	.Ldebug_info0
 3248 000a 04       		.byte	0x4
 3249 000b 00       		.byte	0
 3250 000c 0000     		.2byte	0
 3251 000e 0000     		.2byte	0
 3252 0010 00000000 		.4byte	.LFB67
 3253 0014 14000000 		.4byte	.LFE67-.LFB67
 3254 0018 00000000 		.4byte	.LFB68
 3255 001c F8000000 		.4byte	.LFE68-.LFB68
 3256 0020 00000000 		.4byte	.LFB69
 3257 0024 24000000 		.4byte	.LFE69-.LFB69
 3258 0028 00000000 		.4byte	.LFB70
 3259 002c 78000000 		.4byte	.LFE70-.LFB70
 3260 0030 00000000 		.4byte	.LFB71
 3261 0034 34000000 		.4byte	.LFE71-.LFB71
 3262 0038 00000000 		.4byte	0
 3263 003c 00000000 		.4byte	0
 3264              		.section	.debug_ranges,"",%progbits
 3265              	.Ldebug_ranges0:
 3266 0000 00000000 		.4byte	.LBB28
 3267 0004 02000000 		.4byte	.LBE28
 3268 0008 04000000 		.4byte	.LBB43
 3269 000c 96000000 		.4byte	.LBE43
 3270 0010 9E000000 		.4byte	.LBB44
 3271 0014 F8000000 		.4byte	.LBE44
 3272 0018 00000000 		.4byte	0
 3273 001c 00000000 		.4byte	0
 3274 0020 12000000 		.4byte	.LBB45
 3275 0024 16000000 		.4byte	.LBE45
 3276 0028 1A000000 		.4byte	.LBB48
 3277 002c 4E000000 		.4byte	.LBE48
 3278 0030 00000000 		.4byte	0
 3279 0034 00000000 		.4byte	0
 3280 0038 0E000000 		.4byte	.LBB49
 3281 003c 10000000 		.4byte	.LBE49
 3282 0040 12000000 		.4byte	.LBB52
 3283 0044 18000000 		.4byte	.LBE52
 3284 0048 00000000 		.4byte	0
 3285 004c 00000000 		.4byte	0
 3286 0050 00000000 		.4byte	.LFB67
 3287 0054 14000000 		.4byte	.LFE67
 3288 0058 00000000 		.4byte	.LFB68
 3289 005c F8000000 		.4byte	.LFE68
 3290 0060 00000000 		.4byte	.LFB69
 3291 0064 24000000 		.4byte	.LFE69
 3292 0068 00000000 		.4byte	.LFB70
 3293 006c 78000000 		.4byte	.LFE70
 3294 0070 00000000 		.4byte	.LFB71
 3295 0074 34000000 		.4byte	.LFE71
 3296 0078 00000000 		.4byte	0
 3297 007c 00000000 		.4byte	0
 3298              		.section	.debug_line,"",%progbits
 3299              	.Ldebug_line0:
 3300 0000 01030000 		.section	.debug_str,"MS",%progbits,1
 3300      02001E02 
 3300      00000201 
ARM GAS  /tmp/ccWyaz7M.s 			page 59


 3300      FB0E0D00 
 3300      01010101 
 3301              	.LASF51:
 3302 0000 696E7463 		.ascii	"intctx\000"
 3302      747800
 3303              	.LASF2:
 3304 0007 73697A65 		.ascii	"size_t\000"
 3304      5F7400
 3305              	.LASF65:
 3306 000e 7264796D 		.ascii	"rdymsg\000"
 3306      736700
 3307              	.LASF81:
 3308 0015 4F757470 		.ascii	"OutputQueue\000"
 3308      75745175 
 3308      65756500 
 3309              	.LASF3:
 3310 0021 5F5F7569 		.ascii	"__uint8_t\000"
 3310      6E74385F 
 3310      7400
 3311              	.LASF123:
 3312 002b 7365745F 		.ascii	"set_error\000"
 3312      6572726F 
 3312      7200
 3313              	.LASF132:
 3314 0035 6E766963 		.ascii	"nvicEnableVector\000"
 3314      456E6162 
 3314      6C655665 
 3314      63746F72 
 3314      00
 3315              	.LASF13:
 3316 0046 6C6F6E67 		.ascii	"long long unsigned int\000"
 3316      206C6F6E 
 3316      6720756E 
 3316      7369676E 
 3316      65642069 
 3317              	.LASF66:
 3318 005d 65786974 		.ascii	"exitcode\000"
 3318      636F6465 
 3318      00
 3319              	.LASF128:
 3320 0066 49544D5F 		.ascii	"ITM_RxBuffer\000"
 3320      52784275 
 3320      66666572 
 3320      00
 3321              	.LASF131:
 3322 0073 73644F62 		.ascii	"sdObjectInit\000"
 3322      6A656374 
 3322      496E6974 
 3322      00
 3323              	.LASF118:
 3324 0080 72656164 		.ascii	"readt\000"
 3324      7400
 3325              	.LASF71:
 3326 0086 715F7761 		.ascii	"q_waiting\000"
 3326      6974696E 
 3326      6700
 3327              	.LASF12:
ARM GAS  /tmp/ccWyaz7M.s 			page 60


 3328 0090 6C6F6E67 		.ascii	"long long int\000"
 3328      206C6F6E 
 3328      6720696E 
 3328      7400
 3329              	.LASF1:
 3330 009e 7369676E 		.ascii	"signed char\000"
 3330      65642063 
 3330      68617200 
 3331              	.LASF97:
 3332 00aa 47545052 		.ascii	"GTPR\000"
 3332      00
 3333              	.LASF47:
 3334 00af 705F6D70 		.ascii	"p_mpool\000"
 3334      6F6F6C00 
 3335              	.LASF55:
 3336 00b7 6D5F7175 		.ascii	"m_queue\000"
 3336      65756500 
 3337              	.LASF22:
 3338 00bf 74736C69 		.ascii	"tslices_t\000"
 3338      6365735F 
 3338      7400
 3339              	.LASF91:
 3340 00c9 5243435F 		.ascii	"RCC_TypeDef\000"
 3340      54797065 
 3340      44656600 
 3341              	.LASF137:
 3342 00d5 64656661 		.ascii	"default_config\000"
 3342      756C745F 
 3342      636F6E66 
 3342      696700
 3343              	.LASF106:
 3344 00e4 73746174 		.ascii	"state\000"
 3344      6500
 3345              	.LASF9:
 3346 00ea 6C6F6E67 		.ascii	"long int\000"
 3346      20696E74 
 3346      00
 3347              	.LASF83:
 3348 00f3 41504232 		.ascii	"APB2RSTR\000"
 3348      52535452 
 3348      00
 3349              	.LASF20:
 3350 00fc 74737461 		.ascii	"tstate_t\000"
 3350      74655F74 
 3350      00
 3351              	.LASF138:
 3352 0105 63684F51 		.ascii	"chOQGetI\000"
 3352      47657449 
 3352      00
 3353              	.LASF38:
 3354 010e 705F7265 		.ascii	"p_refs\000"
 3354      667300
 3355              	.LASF73:
 3356 0115 715F6275 		.ascii	"q_buffer\000"
 3356      66666572 
 3356      00
 3357              	.LASF75:
ARM GAS  /tmp/ccWyaz7M.s 			page 61


 3358 011e 715F7772 		.ascii	"q_wrptr\000"
 3358      70747200 
 3359              	.LASF40:
 3360 0126 705F7469 		.ascii	"p_time\000"
 3360      6D6500
 3361              	.LASF129:
 3362 012d 63684576 		.ascii	"chEvtBroadcastFlagsI\000"
 3362      7442726F 
 3362      61646361 
 3362      7374466C 
 3362      61677349 
 3363              	.LASF33:
 3364 0142 705F6E65 		.ascii	"p_newer\000"
 3364      77657200 
 3365              	.LASF10:
 3366 014a 5F5F7569 		.ascii	"__uint32_t\000"
 3366      6E743332 
 3366      5F7400
 3367              	.LASF50:
 3368 0155 72656761 		.ascii	"regarm_t\000"
 3368      726D5F74 
 3368      00
 3369              	.LASF121:
 3370 015e 75736172 		.ascii	"usart_deinit\000"
 3370      745F6465 
 3370      696E6974 
 3370      00
 3371              	.LASF63:
 3372 016b 4576656E 		.ascii	"EventSource\000"
 3372      74536F75 
 3372      72636500 
 3373              	.LASF109:
 3374 0177 75736172 		.ascii	"usart\000"
 3374      7400
 3375              	.LASF0:
 3376 017d 756E7369 		.ascii	"unsigned int\000"
 3376      676E6564 
 3376      20696E74 
 3376      00
 3377              	.LASF15:
 3378 018a 75696E74 		.ascii	"uint16_t\000"
 3378      31365F74 
 3378      00
 3379              	.LASF112:
 3380 0193 53657269 		.ascii	"SerialDriverVMT\000"
 3380      616C4472 
 3380      69766572 
 3380      564D5400 
 3381              	.LASF107:
 3382 01a3 69717565 		.ascii	"iqueue\000"
 3382      756500
 3383              	.LASF42:
 3384 01aa 705F6D73 		.ascii	"p_msgqueue\000"
 3384      67717565 
 3384      756500
 3385              	.LASF125:
 3386 01b5 73645F6C 		.ascii	"sd_lld_init\000"
ARM GAS  /tmp/ccWyaz7M.s 			page 62


 3386      6C645F69 
 3386      6E697400 
 3387              	.LASF116:
 3388 01c1 67657474 		.ascii	"gett\000"
 3388      00
 3389              	.LASF105:
 3390 01c6 6576656E 		.ascii	"event\000"
 3390      7400
 3391              	.LASF7:
 3392 01cc 73686F72 		.ascii	"short unsigned int\000"
 3392      7420756E 
 3392      7369676E 
 3392      65642069 
 3392      6E7400
 3393              	.LASF24:
 3394 01df 6D73675F 		.ascii	"msg_t\000"
 3394      7400
 3395              	.LASF108:
 3396 01e5 6F717565 		.ascii	"oqueue\000"
 3396      756500
 3397              	.LASF139:
 3398 01ec 5F706F72 		.ascii	"_port_irq_epilogue\000"
 3398      745F6972 
 3398      715F6570 
 3398      696C6F67 
 3398      756500
 3399              	.LASF99:
 3400 01ff 55534152 		.ascii	"USART_TypeDef\000"
 3400      545F5479 
 3400      70654465 
 3400      6600
 3401              	.LASF117:
 3402 020d 77726974 		.ascii	"writet\000"
 3402      657400
 3403              	.LASF19:
 3404 0214 746D6F64 		.ascii	"tmode_t\000"
 3404      655F7400 
 3405              	.LASF49:
 3406 021c 54687265 		.ascii	"ThreadsList\000"
 3406      6164734C 
 3406      69737400 
 3407              	.LASF25:
 3408 0228 6576656E 		.ascii	"eventmask_t\000"
 3408      746D6173 
 3408      6B5F7400 
 3409              	.LASF124:
 3410 0234 56656374 		.ascii	"VectorD4\000"
 3410      6F724434 
 3410      00
 3411              	.LASF110:
 3412 023d 73706565 		.ascii	"speed\000"
 3412      6400
 3413              	.LASF79:
 3414 0243 716E6F74 		.ascii	"qnotify_t\000"
 3414      6966795F 
 3414      7400
 3415              	.LASF70:
ARM GAS  /tmp/ccWyaz7M.s 			page 63


 3416 024d 47656E65 		.ascii	"GenericQueue\000"
 3416      72696351 
 3416      75657565 
 3416      00
 3417              	.LASF113:
 3418 025a 77726974 		.ascii	"write\000"
 3418      6500
 3419              	.LASF115:
 3420 0260 70757474 		.ascii	"putt\000"
 3420      00
 3421              	.LASF120:
 3422 0265 75736172 		.ascii	"usart_init\000"
 3422      745F696E 
 3422      697400
 3423              	.LASF53:
 3424 0270 73697A65 		.ascii	"sizetype\000"
 3424      74797065 
 3424      00
 3425              	.LASF72:
 3426 0279 715F636F 		.ascii	"q_counter\000"
 3426      756E7465 
 3426      7200
 3427              	.LASF54:
 3428 0283 4D757465 		.ascii	"Mutex\000"
 3428      7800
 3429              	.LASF29:
 3430 0289 705F6E65 		.ascii	"p_next\000"
 3430      787400
 3431              	.LASF34:
 3432 0290 705F6F6C 		.ascii	"p_older\000"
 3432      64657200 
 3433              	.LASF48:
 3434 0298 54687265 		.ascii	"ThreadsQueue\000"
 3434      61647351 
 3434      75657565 
 3434      00
 3435              	.LASF84:
 3436 02a5 41504231 		.ascii	"APB1RSTR\000"
 3436      52535452 
 3436      00
 3437              	.LASF61:
 3438 02ae 656C5F6D 		.ascii	"el_mask\000"
 3438      61736B00 
 3439              	.LASF111:
 3440 02b6 53657269 		.ascii	"SerialConfig\000"
 3440      616C436F 
 3440      6E666967 
 3440      00
 3441              	.LASF136:
 3442 02c3 6E6F7469 		.ascii	"notify1\000"
 3442      66793100 
 3443              	.LASF21:
 3444 02cb 74726566 		.ascii	"trefs_t\000"
 3444      735F7400 
 3445              	.LASF89:
 3446 02d3 52455345 		.ascii	"RESERVED0\000"
 3446      52564544 
ARM GAS  /tmp/ccWyaz7M.s 			page 64


 3446      3000
 3447              	.LASF92:
 3448 02dd 52455345 		.ascii	"RESERVED1\000"
 3448      52564544 
 3448      3100
 3449              	.LASF93:
 3450 02e7 52455345 		.ascii	"RESERVED2\000"
 3450      52564544 
 3450      3200
 3451              	.LASF94:
 3452 02f1 52455345 		.ascii	"RESERVED3\000"
 3452      52564544 
 3452      3300
 3453              	.LASF95:
 3454 02fb 52455345 		.ascii	"RESERVED4\000"
 3454      52564544 
 3454      3400
 3455              	.LASF30:
 3456 0305 705F7072 		.ascii	"p_prev\000"
 3456      657600
 3457              	.LASF98:
 3458 030c 52455345 		.ascii	"RESERVED6\000"
 3458      52564544 
 3458      3600
 3459              	.LASF23:
 3460 0316 74707269 		.ascii	"tprio_t\000"
 3460      6F5F7400 
 3461              	.LASF76:
 3462 031e 715F7264 		.ascii	"q_rdptr\000"
 3462      70747200 
 3463              	.LASF133:
 3464 0326 474E5520 		.ascii	"GNU C 4.8.3 -mcpu=cortex-m3 -mno-thumb-interwork -m"
 3464      4320342E 
 3464      382E3320 
 3464      2D6D6370 
 3464      753D636F 
 3465 0359 7468756D 		.ascii	"thumb -ggdb -O2 -fomit-frame-pointer -ffunction-sec"
 3465      62202D67 
 3465      67646220 
 3465      2D4F3220 
 3465      2D666F6D 
 3466 038c 74696F6E 		.ascii	"tions -fdata-sections -fno-common\000"
 3466      73202D66 
 3466      64617461 
 3466      2D736563 
 3466      74696F6E 
 3467              	.LASF18:
 3468 03ae 5F426F6F 		.ascii	"_Bool\000"
 3468      6C00
 3469              	.LASF16:
 3470 03b4 696E7433 		.ascii	"int32_t\000"
 3470      325F7400 
 3471              	.LASF4:
 3472 03bc 756E7369 		.ascii	"unsigned char\000"
 3472      676E6564 
 3472      20636861 
 3472      7200
ARM GAS  /tmp/ccWyaz7M.s 			page 65


 3473              	.LASF126:
 3474 03ca 73645F6C 		.ascii	"sd_lld_start\000"
 3474      6C645F73 
 3474      74617274 
 3474      00
 3475              	.LASF60:
 3476 03d7 656C5F6C 		.ascii	"el_listener\000"
 3476      69737465 
 3476      6E657200 
 3477              	.LASF62:
 3478 03e3 656C5F66 		.ascii	"el_flags\000"
 3478      6C616773 
 3478      00
 3479              	.LASF36:
 3480 03ec 705F7374 		.ascii	"p_state\000"
 3480      61746500 
 3481              	.LASF45:
 3482 03f4 705F6D74 		.ascii	"p_mtxlist\000"
 3482      786C6973 
 3482      7400
 3483              	.LASF5:
 3484 03fe 73686F72 		.ascii	"short int\000"
 3484      7420696E 
 3484      7400
 3485              	.LASF39:
 3486 0408 705F7072 		.ascii	"p_preempt\000"
 3486      65656D70 
 3486      7400
 3487              	.LASF68:
 3488 0412 65776D61 		.ascii	"ewmask\000"
 3488      736B00
 3489              	.LASF37:
 3490 0419 705F666C 		.ascii	"p_flags\000"
 3490      61677300 
 3491              	.LASF59:
 3492 0421 656C5F6E 		.ascii	"el_next\000"
 3492      65787400 
 3493              	.LASF101:
 3494 0429 53445F53 		.ascii	"SD_STOP\000"
 3494      544F5000 
 3495              	.LASF86:
 3496 0431 41504232 		.ascii	"APB2ENR\000"
 3496      454E5200 
 3497              	.LASF28:
 3498 0439 54687265 		.ascii	"Thread\000"
 3498      616400
 3499              	.LASF122:
 3500 0440 73657276 		.ascii	"serve_interrupt\000"
 3500      655F696E 
 3500      74657272 
 3500      75707400 
 3501              	.LASF44:
 3502 0450 705F6570 		.ascii	"p_epending\000"
 3502      656E6469 
 3502      6E6700
 3503              	.LASF100:
 3504 045b 53445F55 		.ascii	"SD_UNINIT\000"
ARM GAS  /tmp/ccWyaz7M.s 			page 66


 3504      4E494E49 
 3504      5400
 3505              	.LASF96:
 3506 0465 52455345 		.ascii	"RESERVED5\000"
 3506      52564544 
 3506      3500
 3507              	.LASF17:
 3508 046f 75696E74 		.ascii	"uint32_t\000"
 3508      33325F74 
 3508      00
 3509              	.LASF103:
 3510 0478 73647374 		.ascii	"sdstate_t\000"
 3510      6174655F 
 3510      7400
 3511              	.LASF104:
 3512 0482 53657269 		.ascii	"SerialDriver\000"
 3512      616C4472 
 3512      69766572 
 3512      00
 3513              	.LASF140:
 3514 048f 6E766963 		.ascii	"nvicDisableVector\000"
 3514      44697361 
 3514      626C6556 
 3514      6563746F 
 3514      7200
 3515              	.LASF11:
 3516 04a1 6C6F6E67 		.ascii	"long unsigned int\000"
 3516      20756E73 
 3516      69676E65 
 3516      6420696E 
 3516      7400
 3517              	.LASF114:
 3518 04b3 72656164 		.ascii	"read\000"
 3518      00
 3519              	.LASF69:
 3520 04b8 63686172 		.ascii	"char\000"
 3520      00
 3521              	.LASF130:
 3522 04bd 7364496E 		.ascii	"sdIncomingDataI\000"
 3522      636F6D69 
 3522      6E674461 
 3522      74614900 
 3523              	.LASF119:
 3524 04cd 636F6E66 		.ascii	"config\000"
 3524      696700
 3525              	.LASF6:
 3526 04d4 5F5F7569 		.ascii	"__uint16_t\000"
 3526      6E743136 
 3526      5F7400
 3527              	.LASF57:
 3528 04df 6D5F6E65 		.ascii	"m_next\000"
 3528      787400
 3529              	.LASF27:
 3530 04e6 73797374 		.ascii	"systime_t\000"
 3530      696D655F 
 3530      7400
 3531              	.LASF46:
ARM GAS  /tmp/ccWyaz7M.s 			page 67


 3532 04f0 705F7265 		.ascii	"p_realprio\000"
 3532      616C7072 
 3532      696F00
 3533              	.LASF8:
 3534 04fb 5F5F696E 		.ascii	"__int32_t\000"
 3534      7433325F 
 3534      7400
 3535              	.LASF87:
 3536 0505 41504231 		.ascii	"APB1ENR\000"
 3536      454E5200 
 3537              	.LASF52:
 3538 050d 636F6E74 		.ascii	"context\000"
 3538      65787400 
 3539              	.LASF135:
 3540 0515 2F686F6D 		.ascii	"/home/development/Projects/openpv/TF_OSC_ChibiOS/jo"
 3540      652F6465 
 3540      76656C6F 
 3540      706D656E 
 3540      742F5072 
 3541 0548 6D626C6F 		.ascii	"mblo/BASIC\000"
 3541      2F424153 
 3541      494300
 3542              	.LASF102:
 3543 0553 53445F52 		.ascii	"SD_READY\000"
 3543      45414459 
 3543      00
 3544              	.LASF26:
 3545 055c 666C6167 		.ascii	"flagsmask_t\000"
 3545      736D6173 
 3545      6B5F7400 
 3546              	.LASF74:
 3547 0568 715F746F 		.ascii	"q_top\000"
 3547      7000
 3548              	.LASF35:
 3549 056e 705F6E61 		.ascii	"p_name\000"
 3549      6D6500
 3550              	.LASF64:
 3551 0575 65735F6E 		.ascii	"es_next\000"
 3551      65787400 
 3552              	.LASF88:
 3553 057d 42444352 		.ascii	"BDCR\000"
 3553      00
 3554              	.LASF77:
 3555 0582 715F6E6F 		.ascii	"q_notify\000"
 3555      74696679 
 3555      00
 3556              	.LASF43:
 3557 058b 705F6D73 		.ascii	"p_msg\000"
 3557      6700
 3558              	.LASF90:
 3559 0591 43464752 		.ascii	"CFGR2\000"
 3559      3200
 3560              	.LASF14:
 3561 0597 75696E74 		.ascii	"uint8_t\000"
 3561      385F7400 
 3562              	.LASF80:
 3563 059f 496E7075 		.ascii	"InputQueue\000"
ARM GAS  /tmp/ccWyaz7M.s 			page 68


 3563      74517565 
 3563      756500
 3564              	.LASF31:
 3565 05aa 705F7072 		.ascii	"p_prio\000"
 3565      696F00
 3566              	.LASF58:
 3567 05b1 4576656E 		.ascii	"EventListener\000"
 3567      744C6973 
 3567      74656E65 
 3567      7200
 3568              	.LASF67:
 3569 05bf 77746F62 		.ascii	"wtobjp\000"
 3569      6A7000
 3570              	.LASF82:
 3571 05c6 43464752 		.ascii	"CFGR\000"
 3571      00
 3572              	.LASF134:
 3573 05cb 2E2E2F2E 		.ascii	"../../os/hal/platforms/STM32/USARTv1/serial_lld.c\000"
 3573      2E2F6F73 
 3573      2F68616C 
 3573      2F706C61 
 3573      74666F72 
 3574              	.LASF127:
 3575 05fd 73645F6C 		.ascii	"sd_lld_stop\000"
 3575      6C645F73 
 3575      746F7000 
 3576              	.LASF78:
 3577 0609 715F6C69 		.ascii	"q_link\000"
 3577      6E6B00
 3578              	.LASF56:
 3579 0610 6D5F6F77 		.ascii	"m_owner\000"
 3579      6E657200 
 3580              	.LASF32:
 3581 0618 705F6374 		.ascii	"p_ctx\000"
 3581      7800
 3582              	.LASF41:
 3583 061e 705F7761 		.ascii	"p_waiting\000"
 3583      6974696E 
 3583      6700
 3584              	.LASF85:
 3585 0628 41484245 		.ascii	"AHBENR\000"
 3585      4E5200
 3586              		.ident	"GCC: (4.8.3-18ubuntu2+12) 4.8.3"
ARM GAS  /tmp/ccWyaz7M.s 			page 69


DEFINED SYMBOLS
                            *ABS*:00000000 serial_lld.c
     /tmp/ccWyaz7M.s:19     .text.notify1:00000000 $t
     /tmp/ccWyaz7M.s:23     .text.notify1:00000000 notify1
     /tmp/ccWyaz7M.s:42     .text.notify1:00000010 $d
     /tmp/ccWyaz7M.s:47     .text.VectorD4:00000000 $t
     /tmp/ccWyaz7M.s:52     .text.VectorD4:00000000 VectorD4
     /tmp/ccWyaz7M.s:294    .text.VectorD4:000000ec $d
     /tmp/ccWyaz7M.s:304    .text.sd_lld_init:00000000 $t
     /tmp/ccWyaz7M.s:309    .text.sd_lld_init:00000000 sd_lld_init
     /tmp/ccWyaz7M.s:333    .text.sd_lld_init:00000018 $d
     /tmp/ccWyaz7M.s:340    .text.sd_lld_start:00000000 $t
     /tmp/ccWyaz7M.s:345    .text.sd_lld_start:00000000 sd_lld_start
     /tmp/ccWyaz7M.s:454    .text.sd_lld_start:00000068 $d
     /tmp/ccWyaz7M.s:462    .text.sd_lld_stop:00000000 $t
     /tmp/ccWyaz7M.s:467    .text.sd_lld_stop:00000000 sd_lld_stop
     /tmp/ccWyaz7M.s:523    .text.sd_lld_stop:0000002c $d
     /tmp/ccWyaz7M.s:545    .bss.SD1:00000000 SD1
     /tmp/ccWyaz7M.s:530    .rodata.default_config:00000000 $d
     /tmp/ccWyaz7M.s:534    .rodata.default_config:00000000 default_config
     /tmp/ccWyaz7M.s:541    .bss.SD1:00000000 $d
                     .debug_frame:00000010 $d

UNDEFINED SYMBOLS
sdIncomingDataI
chEvtBroadcastFlagsI
_port_irq_epilogue
chOQGetI
sdObjectInit
nvicEnableVector
nvicDisableVector
