ARM GAS  /tmp/ccFih8Xp.s 			page 1


   1              		.syntax unified
   2              		.cpu cortex-m3
   3              		.fpu softvfp
   4              		.eabi_attribute 20, 1
   5              		.eabi_attribute 21, 1
   6              		.eabi_attribute 23, 3
   7              		.eabi_attribute 24, 1
   8              		.eabi_attribute 25, 1
   9              		.eabi_attribute 26, 1
  10              		.eabi_attribute 30, 2
  11              		.eabi_attribute 34, 1
  12              		.eabi_attribute 18, 4
  13              		.thumb
  14              		.file	"tm.c"
  15              		.text
  16              	.Ltext0:
  17              		.cfi_sections	.debug_frame
  18              		.section	.text.tm_start,"ax",%progbits
  19              		.align	2
  20              		.thumb
  21              		.thumb_func
  22              		.type	tm_start, %function
  23              	tm_start:
  24              	.LFB63:
  25              		.file 1 "../../os/hal/src/tm.c"
  26              		.loc 1 69 0
  27              		.cfi_startproc
  28              		@ args = 0, pretend = 0, frame = 0
  29              		@ frame_needed = 0, uses_anonymous_args = 0
  30              		@ link register save eliminated.
  31              	.LVL0:
  32              		.loc 1 71 0
  33 0000 014B     		ldr	r3, .L2
  34 0002 5B68     		ldr	r3, [r3, #4]
  35 0004 8360     		str	r3, [r0, #8]
  36 0006 7047     		bx	lr
  37              	.L3:
  38              		.align	2
  39              	.L2:
  40 0008 001000E0 		.word	-536866816
  41              		.cfi_endproc
  42              	.LFE63:
  43              		.size	tm_start, .-tm_start
  44              		.section	.text.tm_stop,"ax",%progbits
  45              		.align	2
  46              		.thumb
  47              		.thumb_func
  48              		.type	tm_stop, %function
  49              	tm_stop:
  50              	.LFB64:
  51              		.loc 1 81 0
  52              		.cfi_startproc
  53              		@ args = 0, pretend = 0, frame = 0
  54              		@ frame_needed = 0, uses_anonymous_args = 0
  55              		@ link register save eliminated.
  56              	.LVL1:
  57              		.loc 1 83 0
ARM GAS  /tmp/ccFih8Xp.s 			page 2


  58 0000 084B     		ldr	r3, .L9
  59              		.loc 1 84 0
  60 0002 0949     		ldr	r1, .L9+4
  61 0004 8268     		ldr	r2, [r0, #8]
  62              		.loc 1 83 0
  63 0006 5B68     		ldr	r3, [r3, #4]
  64              	.LVL2:
  65              		.loc 1 84 0
  66 0008 0968     		ldr	r1, [r1]
  67 000a 9B1A     		subs	r3, r3, r2
  68              	.LVL3:
  69              		.loc 1 85 0
  70 000c C268     		ldr	r2, [r0, #12]
  71              		.loc 1 84 0
  72 000e 5B1A     		subs	r3, r3, r1
  73              		.loc 1 85 0
  74 0010 9342     		cmp	r3, r2
  75              		.loc 1 84 0
  76 0012 8360     		str	r3, [r0, #8]
  77              		.loc 1 85 0
  78 0014 04D8     		bhi	.L8
  79              		.loc 1 87 0
  80 0016 0269     		ldr	r2, [r0, #16]
  81 0018 9342     		cmp	r3, r2
  82              		.loc 1 88 0
  83 001a 38BF     		it	cc
  84 001c 0361     		strcc	r3, [r0, #16]
  85 001e 7047     		bx	lr
  86              	.L8:
  87              		.loc 1 86 0
  88 0020 C360     		str	r3, [r0, #12]
  89 0022 7047     		bx	lr
  90              	.L10:
  91              		.align	2
  92              	.L9:
  93 0024 001000E0 		.word	-536866816
  94 0028 00000000 		.word	.LANCHOR0
  95              		.cfi_endproc
  96              	.LFE64:
  97              		.size	tm_stop, .-tm_stop
  98              		.section	.text.tmInit,"ax",%progbits
  99              		.align	2
 100              		.global	tmInit
 101              		.thumb
 102              		.thumb_func
 103              		.type	tmInit, %function
 104              	tmInit:
 105              	.LFB65:
 106              		.loc 1 104 0
 107              		.cfi_startproc
 108              		@ args = 0, pretend = 0, frame = 24
 109              		@ frame_needed = 0, uses_anonymous_args = 0
 110 0000 10B5     		push	{r4, lr}
 111              		.cfi_def_cfa_offset 8
 112              		.cfi_offset 4, -8
 113              		.cfi_offset 14, -4
 114              		.loc 1 110 0
ARM GAS  /tmp/ccFih8Xp.s 			page 3


 115 0002 0B4C     		ldr	r4, .L12
 116              		.loc 1 104 0
 117 0004 86B0     		sub	sp, sp, #24
 118              		.cfi_def_cfa_offset 32
 119              		.loc 1 110 0
 120 0006 0023     		movs	r3, #0
 121              	.LBB8:
 122              	.LBB9:
 123              		.loc 1 130 0
 124 0008 4FF0FF31 		mov	r1, #-1
 125              	.LBE9:
 126              	.LBE8:
 127              	.LBB14:
 128              	.LBB15:
 129              		.loc 1 71 0
 130 000c 094A     		ldr	r2, .L12+4
 131              	.LBE15:
 132              	.LBE14:
 133              	.LBB18:
 134              	.LBB10:
 135              		.loc 1 130 0
 136 000e 0591     		str	r1, [sp, #20]
 137              	.LBE10:
 138              	.LBE18:
 139              		.loc 1 110 0
 140 0010 2360     		str	r3, [r4]
 141              	.LVL4:
 142              	.LBB19:
 143              	.LBB11:
 144              		.loc 1 129 0
 145 0012 0493     		str	r3, [sp, #16]
 146              	.LBE11:
 147              	.LBE19:
 148              	.LBB20:
 149              	.LBB16:
 150              		.loc 1 71 0
 151 0014 5368     		ldr	r3, [r2, #4]
 152              	.LBE16:
 153              	.LBE20:
 154              	.LBB21:
 155              	.LBB12:
 156              		.loc 1 126 0
 157 0016 0849     		ldr	r1, .L12+8
 158              		.loc 1 127 0
 159 0018 084A     		ldr	r2, .L12+12
 160              	.LBE12:
 161              	.LBE21:
 162              		.loc 1 113 0
 163 001a 01A8     		add	r0, sp, #4
 164              	.LVL5:
 165              	.LBB22:
 166              	.LBB17:
 167              		.loc 1 71 0
 168 001c 0393     		str	r3, [sp, #12]
 169              	.LBE17:
 170              	.LBE22:
 171              	.LBB23:
ARM GAS  /tmp/ccFih8Xp.s 			page 4


 172              	.LBB13:
 173              		.loc 1 126 0
 174 001e 0191     		str	r1, [sp, #4]
 175              		.loc 1 127 0
 176 0020 0292     		str	r2, [sp, #8]
 177              	.LBE13:
 178              	.LBE23:
 179              		.loc 1 113 0
 180 0022 FFF7FEFF 		bl	tm_stop
 181              	.LVL6:
 182              		.loc 1 114 0
 183 0026 039B     		ldr	r3, [sp, #12]
 184 0028 2360     		str	r3, [r4]
 185              		.loc 1 115 0
 186 002a 06B0     		add	sp, sp, #24
 187              		@ sp needed
 188 002c 10BD     		pop	{r4, pc}
 189              	.LVL7:
 190              	.L13:
 191 002e 00BF     		.align	2
 192              	.L12:
 193 0030 00000000 		.word	.LANCHOR0
 194 0034 001000E0 		.word	-536866816
 195 0038 00000000 		.word	tm_start
 196 003c 00000000 		.word	tm_stop
 197              		.cfi_endproc
 198              	.LFE65:
 199              		.size	tmInit, .-tmInit
 200              		.section	.text.tmObjectInit,"ax",%progbits
 201              		.align	2
 202              		.global	tmObjectInit
 203              		.thumb
 204              		.thumb_func
 205              		.type	tmObjectInit, %function
 206              	tmObjectInit:
 207              	.LFB66:
 208              		.loc 1 124 0
 209              		.cfi_startproc
 210              		@ args = 0, pretend = 0, frame = 0
 211              		@ frame_needed = 0, uses_anonymous_args = 0
 212              		@ link register save eliminated.
 213              	.LVL8:
 214              		.loc 1 126 0
 215 0000 0649     		ldr	r1, .L15
 216              		.loc 1 127 0
 217 0002 074A     		ldr	r2, .L15+4
 218              		.loc 1 124 0
 219 0004 10B4     		push	{r4}
 220              		.cfi_def_cfa_offset 4
 221              		.cfi_offset 4, -4
 222              		.loc 1 128 0
 223 0006 0023     		movs	r3, #0
 224              		.loc 1 130 0
 225 0008 4FF0FF34 		mov	r4, #-1
 226 000c 0461     		str	r4, [r0, #16]
 227              		.loc 1 127 0
 228 000e 80E80600 		stmia	r0, {r1, r2}
ARM GAS  /tmp/ccFih8Xp.s 			page 5


 229              		.loc 1 128 0
 230 0012 8360     		str	r3, [r0, #8]
 231              		.loc 1 129 0
 232 0014 C360     		str	r3, [r0, #12]
 233              		.loc 1 131 0
 234 0016 5DF8044B 		ldr	r4, [sp], #4
 235 001a 7047     		bx	lr
 236              	.L16:
 237              		.align	2
 238              	.L15:
 239 001c 00000000 		.word	tm_start
 240 0020 00000000 		.word	tm_stop
 241              		.cfi_endproc
 242              	.LFE66:
 243              		.size	tmObjectInit, .-tmObjectInit
 244              		.section	.bss.measurement_offset,"aw",%nobits
 245              		.align	2
 246              		.set	.LANCHOR0,. + 0
 247              		.type	measurement_offset, %object
 248              		.size	measurement_offset, 4
 249              	measurement_offset:
 250 0000 00000000 		.space	4
 251              		.text
 252              	.Letext0:
 253              		.file 2 "/usr/include/newlib/machine/_default_types.h"
 254              		.file 3 "/usr/include/newlib/stdint.h"
 255              		.file 4 "../../os/ports/common/ARMCMx/nvic.h"
 256              		.file 5 "../../os/hal/platforms/STM32F1xx/hal_lld.h"
 257              		.file 6 "../../os/hal/include/tm.h"
 258              		.file 7 "../../os/ports/common/ARMCMx/CMSIS/include/core_cm3.h"